GAS LISTING /tmp/cc82jElS.s 			page 1


   1              		.file	"_new.cpp"
   2              		.option pic
   3              		.option norelax
   4              		.text
   5              	.Ltext0:
   6              		.align	2
   7              		.globl	_Znwm
   9              	_Znwm:
  10              	.LFB1:
  11              		.file 1 "src/_new.cpp"
   1:src/_new.cpp  **** 
   2:src/_new.cpp  **** 
   3:src/_new.cpp  **** #include "../lib/mem.h"
   4:src/_new.cpp  **** #include "../h/syscall_cpp.hpp"
   5:src/_new.cpp  **** 
   6:src/_new.cpp  **** 
   7:src/_new.cpp  **** using size_t = decltype(sizeof(0));
   8:src/_new.cpp  **** 
   9:src/_new.cpp  **** void *operator new(size_t n)
  10:src/_new.cpp  **** {
  12              		.loc 1 10 1
  13              		.cfi_startproc
  14              	.LVL0:
  15 0000 130101FF 		addi	sp,sp,-16
  16              		.cfi_def_cfa_offset 16
  17 0004 23341100 		sd	ra,8(sp)
  18 0008 23308100 		sd	s0,0(sp)
  19              		.cfi_offset 1, -8
  20              		.cfi_offset 8, -16
  21 000c 13040101 		addi	s0,sp,16
  22              		.cfi_def_cfa 8, 0
  11:src/_new.cpp  ****     return __mem_alloc(n);
  23              		.loc 1 11 5
  24              		.loc 1 11 23 is_stmt 0
  25 0010 97000000 		call	__mem_alloc@plt
  25      E7800000 
  26              	.LVL1:
  12:src/_new.cpp  **** }
  27              		.loc 1 12 1
  28 0018 83308100 		ld	ra,8(sp)
  29              		.cfi_restore 1
  30 001c 03340100 		ld	s0,0(sp)
  31              		.cfi_restore 8
  32              		.cfi_def_cfa 2, 16
  33 0020 13010101 		addi	sp,sp,16
  34              		.cfi_def_cfa_offset 0
  35 0024 67800000 		jr	ra
  36              		.cfi_endproc
  37              	.LFE1:
  39              		.align	2
  40              		.globl	_Znam
  42              	_Znam:
  43              	.LFB2:
  13:src/_new.cpp  **** 
  14:src/_new.cpp  **** void *operator new[](size_t n)
  15:src/_new.cpp  **** {
  44              		.loc 1 15 1 is_stmt 1
GAS LISTING /tmp/cc82jElS.s 			page 2


  45              		.cfi_startproc
  46              	.LVL2:
  47 0028 130101FF 		addi	sp,sp,-16
  48              		.cfi_def_cfa_offset 16
  49 002c 23341100 		sd	ra,8(sp)
  50 0030 23308100 		sd	s0,0(sp)
  51              		.cfi_offset 1, -8
  52              		.cfi_offset 8, -16
  53 0034 13040101 		addi	s0,sp,16
  54              		.cfi_def_cfa 8, 0
  16:src/_new.cpp  ****     return __mem_alloc(n);
  55              		.loc 1 16 5
  56              		.loc 1 16 23 is_stmt 0
  57 0038 97000000 		call	__mem_alloc@plt
  57      E7800000 
  58              	.LVL3:
  17:src/_new.cpp  **** }
  59              		.loc 1 17 1
  60 0040 83308100 		ld	ra,8(sp)
  61              		.cfi_restore 1
  62 0044 03340100 		ld	s0,0(sp)
  63              		.cfi_restore 8
  64              		.cfi_def_cfa 2, 16
  65 0048 13010101 		addi	sp,sp,16
  66              		.cfi_def_cfa_offset 0
  67 004c 67800000 		jr	ra
  68              		.cfi_endproc
  69              	.LFE2:
  71              		.align	2
  72              		.globl	_ZdlPv
  74              	_ZdlPv:
  75              	.LFB3:
  18:src/_new.cpp  **** 
  19:src/_new.cpp  **** void operator delete(void *p)
  20:src/_new.cpp  **** {
  76              		.loc 1 20 1 is_stmt 1
  77              		.cfi_startproc
  78              	.LVL4:
  79 0050 130101FF 		addi	sp,sp,-16
  80              		.cfi_def_cfa_offset 16
  81 0054 23341100 		sd	ra,8(sp)
  82 0058 23308100 		sd	s0,0(sp)
  83              		.cfi_offset 1, -8
  84              		.cfi_offset 8, -16
  85 005c 13040101 		addi	s0,sp,16
  86              		.cfi_def_cfa 8, 0
  21:src/_new.cpp  ****     __mem_free(p);
  87              		.loc 1 21 5
  88              		.loc 1 21 15 is_stmt 0
  89 0060 97000000 		call	__mem_free@plt
  89      E7800000 
  90              	.LVL5:
  22:src/_new.cpp  **** }
  91              		.loc 1 22 1
  92 0068 83308100 		ld	ra,8(sp)
  93              		.cfi_restore 1
  94 006c 03340100 		ld	s0,0(sp)
GAS LISTING /tmp/cc82jElS.s 			page 3


  95              		.cfi_restore 8
  96              		.cfi_def_cfa 2, 16
  97 0070 13010101 		addi	sp,sp,16
  98              		.cfi_def_cfa_offset 0
  99 0074 67800000 		jr	ra
 100              		.cfi_endproc
 101              	.LFE3:
 103              		.align	2
 104              		.globl	_ZdaPv
 106              	_ZdaPv:
 107              	.LFB4:
  23:src/_new.cpp  **** 
  24:src/_new.cpp  **** void operator delete[](void *p)
  25:src/_new.cpp  **** {
 108              		.loc 1 25 1 is_stmt 1
 109              		.cfi_startproc
 110              	.LVL6:
 111 0078 130101FF 		addi	sp,sp,-16
 112              		.cfi_def_cfa_offset 16
 113 007c 23341100 		sd	ra,8(sp)
 114 0080 23308100 		sd	s0,0(sp)
 115              		.cfi_offset 1, -8
 116              		.cfi_offset 8, -16
 117 0084 13040101 		addi	s0,sp,16
 118              		.cfi_def_cfa 8, 0
  26:src/_new.cpp  ****     __mem_free(p);
 119              		.loc 1 26 5
 120              		.loc 1 26 15 is_stmt 0
 121 0088 97000000 		call	__mem_free@plt
 121      E7800000 
 122              	.LVL7:
  27:src/_new.cpp  **** }
 123              		.loc 1 27 1
 124 0090 83308100 		ld	ra,8(sp)
 125              		.cfi_restore 1
 126 0094 03340100 		ld	s0,0(sp)
 127              		.cfi_restore 8
 128              		.cfi_def_cfa 2, 16
 129 0098 13010101 		addi	sp,sp,16
 130              		.cfi_def_cfa_offset 0
 131 009c 67800000 		jr	ra
 132              		.cfi_endproc
 133              	.LFE4:
 135              	.Letext0:
 136              		.file 2 "src/../lib/hw.h"
 137              		.file 3 "src/../lib/mem.h"
GAS LISTING /tmp/cc82jElS.s 			page 4


DEFINED SYMBOLS
                            *ABS*:0000000000000000 _new.cpp
     /tmp/cc82jElS.s:9      .text:0000000000000000 _Znwm
     /tmp/cc82jElS.s:13     .text:0000000000000000 .L0 
     /tmp/cc82jElS.s:15     .text:0000000000000000 .L0 
     /tmp/cc82jElS.s:16     .text:0000000000000004 .L0 
     /tmp/cc82jElS.s:19     .text:000000000000000c .L0 
     /tmp/cc82jElS.s:20     .text:000000000000000c .L0 
     /tmp/cc82jElS.s:22     .text:0000000000000010 .L0 
     /tmp/cc82jElS.s:24     .text:0000000000000010 .L0 
     /tmp/cc82jElS.s:25     .text:0000000000000010 .L0 
     /tmp/cc82jElS.s:28     .text:0000000000000018 .L0 
     /tmp/cc82jElS.s:29     .text:000000000000001c .L0 
     /tmp/cc82jElS.s:31     .text:0000000000000020 .L0 
     /tmp/cc82jElS.s:32     .text:0000000000000020 .L0 
     /tmp/cc82jElS.s:34     .text:0000000000000024 .L0 
     /tmp/cc82jElS.s:36     .text:0000000000000028 .L0 
     /tmp/cc82jElS.s:42     .text:0000000000000028 _Znam
     /tmp/cc82jElS.s:45     .text:0000000000000028 .L0 
     /tmp/cc82jElS.s:47     .text:0000000000000028 .L0 
     /tmp/cc82jElS.s:48     .text:000000000000002c .L0 
     /tmp/cc82jElS.s:51     .text:0000000000000034 .L0 
     /tmp/cc82jElS.s:52     .text:0000000000000034 .L0 
     /tmp/cc82jElS.s:54     .text:0000000000000038 .L0 
     /tmp/cc82jElS.s:56     .text:0000000000000038 .L0 
     /tmp/cc82jElS.s:57     .text:0000000000000038 .L0 
     /tmp/cc82jElS.s:60     .text:0000000000000040 .L0 
     /tmp/cc82jElS.s:61     .text:0000000000000044 .L0 
     /tmp/cc82jElS.s:63     .text:0000000000000048 .L0 
     /tmp/cc82jElS.s:64     .text:0000000000000048 .L0 
     /tmp/cc82jElS.s:66     .text:000000000000004c .L0 
     /tmp/cc82jElS.s:68     .text:0000000000000050 .L0 
     /tmp/cc82jElS.s:74     .text:0000000000000050 _ZdlPv
     /tmp/cc82jElS.s:77     .text:0000000000000050 .L0 
     /tmp/cc82jElS.s:79     .text:0000000000000050 .L0 
     /tmp/cc82jElS.s:80     .text:0000000000000054 .L0 
     /tmp/cc82jElS.s:83     .text:000000000000005c .L0 
     /tmp/cc82jElS.s:84     .text:000000000000005c .L0 
     /tmp/cc82jElS.s:86     .text:0000000000000060 .L0 
     /tmp/cc82jElS.s:88     .text:0000000000000060 .L0 
     /tmp/cc82jElS.s:89     .text:0000000000000060 .L0 
     /tmp/cc82jElS.s:92     .text:0000000000000068 .L0 
     /tmp/cc82jElS.s:93     .text:000000000000006c .L0 
     /tmp/cc82jElS.s:95     .text:0000000000000070 .L0 
     /tmp/cc82jElS.s:96     .text:0000000000000070 .L0 
     /tmp/cc82jElS.s:98     .text:0000000000000074 .L0 
     /tmp/cc82jElS.s:100    .text:0000000000000078 .L0 
     /tmp/cc82jElS.s:106    .text:0000000000000078 _ZdaPv
     /tmp/cc82jElS.s:109    .text:0000000000000078 .L0 
     /tmp/cc82jElS.s:111    .text:0000000000000078 .L0 
     /tmp/cc82jElS.s:112    .text:000000000000007c .L0 
     /tmp/cc82jElS.s:115    .text:0000000000000084 .L0 
     /tmp/cc82jElS.s:116    .text:0000000000000084 .L0 
     /tmp/cc82jElS.s:118    .text:0000000000000088 .L0 
     /tmp/cc82jElS.s:120    .text:0000000000000088 .L0 
     /tmp/cc82jElS.s:121    .text:0000000000000088 .L0 
     /tmp/cc82jElS.s:124    .text:0000000000000090 .L0 
GAS LISTING /tmp/cc82jElS.s 			page 5


     /tmp/cc82jElS.s:125    .text:0000000000000094 .L0 
     /tmp/cc82jElS.s:127    .text:0000000000000098 .L0 
     /tmp/cc82jElS.s:128    .text:0000000000000098 .L0 
     /tmp/cc82jElS.s:130    .text:000000000000009c .L0 
     /tmp/cc82jElS.s:132    .text:00000000000000a0 .L0 
     /tmp/cc82jElS.s:138    .text:00000000000000a0 .L0 
     /tmp/cc82jElS.s:402    .debug_abbrev:0000000000000000 .Ldebug_abbrev0
     /tmp/cc82jElS.s:745    .debug_str:00000000000000d7 .LASF28
     /tmp/cc82jElS.s:727    .debug_str:0000000000000058 .LASF29
     /tmp/cc82jElS.s:759    .debug_str:00000000000001f3 .LASF30
     /tmp/cc82jElS.s:5      .text:0000000000000000 .Ltext0
     /tmp/cc82jElS.s:135    .text:00000000000000a0 .Letext0
     /tmp/cc82jElS.s:711    .debug_line:0000000000000000 .Ldebug_line0
     /tmp/cc82jElS.s:747    .debug_str:000000000000019b .LASF0
     /tmp/cc82jElS.s:739    .debug_str:00000000000000ad .LASF1
     /tmp/cc82jElS.s:733    .debug_str:0000000000000087 .LASF2
     /tmp/cc82jElS.s:723    .debug_str:000000000000003b .LASF4
     /tmp/cc82jElS.s:737    .debug_str:000000000000009b .LASF3
     /tmp/cc82jElS.s:715    .debug_str:0000000000000013 .LASF5
     /tmp/cc82jElS.s:713    .debug_str:0000000000000000 .LASF6
     /tmp/cc82jElS.s:729    .debug_str:0000000000000065 .LASF7
     /tmp/cc82jElS.s:755    .debug_str:00000000000001cd .LASF8
     /tmp/cc82jElS.s:721    .debug_str:000000000000002d .LASF9
     /tmp/cc82jElS.s:773    .debug_str:000000000000025e .LASF10
     /tmp/cc82jElS.s:731    .debug_str:0000000000000078 .LASF11
     /tmp/cc82jElS.s:763    .debug_str:0000000000000224 .LASF12
     /tmp/cc82jElS.s:753    .debug_str:00000000000001bd .LASF13
     /tmp/cc82jElS.s:741    .debug_str:00000000000000c0 .LASF14
     /tmp/cc82jElS.s:725    .debug_str:0000000000000042 .LASF15
     /tmp/cc82jElS.s:757    .debug_str:00000000000001dd .LASF16
     /tmp/cc82jElS.s:751    .debug_str:00000000000001b8 .LASF17
     /tmp/cc82jElS.s:761    .debug_str:0000000000000211 .LASF18
     /tmp/cc82jElS.s:717    .debug_str:000000000000001a .LASF20
     /tmp/cc82jElS.s:107    .text:0000000000000078 .LFB4
     /tmp/cc82jElS.s:133    .text:00000000000000a0 .LFE4
     /tmp/cc82jElS.s:642    .debug_loc:0000000000000000 .LLST3
     /tmp/cc82jElS.s:122    .text:0000000000000090 .LVL7
     /tmp/cc82jElS.s:749    .debug_str:00000000000001a8 .LASF19
     /tmp/cc82jElS.s:765    .debug_str:0000000000000234 .LASF21
     /tmp/cc82jElS.s:75     .text:0000000000000050 .LFB3
     /tmp/cc82jElS.s:101    .text:0000000000000078 .LFE3
     /tmp/cc82jElS.s:656    .debug_loc:0000000000000039 .LLST2
     /tmp/cc82jElS.s:90     .text:0000000000000068 .LVL5
     /tmp/cc82jElS.s:769    .debug_str:0000000000000248 .LASF22
     /tmp/cc82jElS.s:735    .debug_str:0000000000000095 .LASF24
     /tmp/cc82jElS.s:43     .text:0000000000000028 .LFB2
     /tmp/cc82jElS.s:69     .text:0000000000000050 .LFE2
     /tmp/cc82jElS.s:670    .debug_loc:0000000000000072 .LLST1
     /tmp/cc82jElS.s:58     .text:0000000000000040 .LVL3
     /tmp/cc82jElS.s:767    .debug_str:000000000000023b .LASF23
     /tmp/cc82jElS.s:771    .debug_str:0000000000000258 .LASF25
     /tmp/cc82jElS.s:10     .text:0000000000000000 .LFB1
     /tmp/cc82jElS.s:37     .text:0000000000000028 .LFE1
     /tmp/cc82jElS.s:684    .debug_loc:00000000000000ab .LLST0
     /tmp/cc82jElS.s:26     .text:0000000000000018 .LVL1
     /tmp/cc82jElS.s:743    .debug_str:00000000000000cc .LASF26
     /tmp/cc82jElS.s:719    .debug_str:0000000000000021 .LASF27
GAS LISTING /tmp/cc82jElS.s 			page 6


     /tmp/cc82jElS.s:110    .text:0000000000000078 .LVL6
     /tmp/cc82jElS.s:78     .text:0000000000000050 .LVL4
     /tmp/cc82jElS.s:46     .text:0000000000000028 .LVL2
     /tmp/cc82jElS.s:14     .text:0000000000000000 .LVL0
     /tmp/cc82jElS.s:139    .debug_info:0000000000000000 .Ldebug_info0

UNDEFINED SYMBOLS
__mem_alloc
__mem_free
