GAS LISTING /tmp/cc3wKLXN.s 			page 1


   1              		.file	"_new.cpp"
   2              		.option pic
   3              		.option norelax
   4              		.text
   5              	.Ltext0:
   6              		.align	2
   7              		.globl	_Znwm
   9              	_Znwm:
  10              	.LFB1:
  11              		.file 1 "src/_new.cpp"
   1:src/_new.cpp  **** 
   2:src/_new.cpp  **** #include "../h/syscall_cpp.hpp"
   3:src/_new.cpp  **** 
   4:src/_new.cpp  **** 
   5:src/_new.cpp  **** void *operator new(size_t n)
   6:src/_new.cpp  **** {
  12              		.loc 1 6 1
  13              		.cfi_startproc
  14              	.LVL0:
  15 0000 130101FF 		addi	sp,sp,-16
  16              		.cfi_def_cfa_offset 16
  17 0004 23341100 		sd	ra,8(sp)
  18 0008 23308100 		sd	s0,0(sp)
  19              		.cfi_offset 1, -8
  20              		.cfi_offset 8, -16
  21 000c 13040101 		addi	s0,sp,16
  22              		.cfi_def_cfa 8, 0
   7:src/_new.cpp  ****     return mem_alloc(n);
  23              		.loc 1 7 5
  24              		.loc 1 7 21 is_stmt 0
  25 0010 97000000 		call	_Z9mem_allocm@plt
  25      E7800000 
  26              	.LVL1:
   8:src/_new.cpp  **** }
  27              		.loc 1 8 1
  28 0018 83308100 		ld	ra,8(sp)
  29              		.cfi_restore 1
  30 001c 03340100 		ld	s0,0(sp)
  31              		.cfi_restore 8
  32              		.cfi_def_cfa 2, 16
  33 0020 13010101 		addi	sp,sp,16
  34              		.cfi_def_cfa_offset 0
  35 0024 67800000 		jr	ra
  36              		.cfi_endproc
  37              	.LFE1:
  39              		.align	2
  40              		.globl	_Znam
  42              	_Znam:
  43              	.LFB2:
   9:src/_new.cpp  **** 
  10:src/_new.cpp  **** void *operator new[](size_t n)
  11:src/_new.cpp  **** {
  44              		.loc 1 11 1 is_stmt 1
  45              		.cfi_startproc
  46              	.LVL2:
  47 0028 130101FF 		addi	sp,sp,-16
  48              		.cfi_def_cfa_offset 16
GAS LISTING /tmp/cc3wKLXN.s 			page 2


  49 002c 23341100 		sd	ra,8(sp)
  50 0030 23308100 		sd	s0,0(sp)
  51              		.cfi_offset 1, -8
  52              		.cfi_offset 8, -16
  53 0034 13040101 		addi	s0,sp,16
  54              		.cfi_def_cfa 8, 0
  12:src/_new.cpp  ****     return mem_alloc(n);
  55              		.loc 1 12 5
  56              		.loc 1 12 21 is_stmt 0
  57 0038 97000000 		call	_Z9mem_allocm@plt
  57      E7800000 
  58              	.LVL3:
  13:src/_new.cpp  **** }
  59              		.loc 1 13 1
  60 0040 83308100 		ld	ra,8(sp)
  61              		.cfi_restore 1
  62 0044 03340100 		ld	s0,0(sp)
  63              		.cfi_restore 8
  64              		.cfi_def_cfa 2, 16
  65 0048 13010101 		addi	sp,sp,16
  66              		.cfi_def_cfa_offset 0
  67 004c 67800000 		jr	ra
  68              		.cfi_endproc
  69              	.LFE2:
  71              		.align	2
  72              		.globl	_ZdlPv
  74              	_ZdlPv:
  75              	.LFB3:
  14:src/_new.cpp  **** 
  15:src/_new.cpp  **** void operator delete(void *p)
  16:src/_new.cpp  **** {
  76              		.loc 1 16 1 is_stmt 1
  77              		.cfi_startproc
  78              	.LVL4:
  79 0050 130101FF 		addi	sp,sp,-16
  80              		.cfi_def_cfa_offset 16
  81 0054 23341100 		sd	ra,8(sp)
  82 0058 23308100 		sd	s0,0(sp)
  83              		.cfi_offset 1, -8
  84              		.cfi_offset 8, -16
  85 005c 13040101 		addi	s0,sp,16
  86              		.cfi_def_cfa 8, 0
  17:src/_new.cpp  ****     mem_free(p);
  87              		.loc 1 17 5
  88              		.loc 1 17 13 is_stmt 0
  89 0060 97000000 		call	_Z8mem_freePv@plt
  89      E7800000 
  90              	.LVL5:
  18:src/_new.cpp  **** }
  91              		.loc 1 18 1
  92 0068 83308100 		ld	ra,8(sp)
  93              		.cfi_restore 1
  94 006c 03340100 		ld	s0,0(sp)
  95              		.cfi_restore 8
  96              		.cfi_def_cfa 2, 16
  97 0070 13010101 		addi	sp,sp,16
  98              		.cfi_def_cfa_offset 0
GAS LISTING /tmp/cc3wKLXN.s 			page 3


  99 0074 67800000 		jr	ra
 100              		.cfi_endproc
 101              	.LFE3:
 103              		.align	2
 104              		.globl	_ZdaPv
 106              	_ZdaPv:
 107              	.LFB4:
  19:src/_new.cpp  **** 
  20:src/_new.cpp  **** void operator delete[](void *p)
  21:src/_new.cpp  **** {
 108              		.loc 1 21 1 is_stmt 1
 109              		.cfi_startproc
 110              	.LVL6:
 111 0078 130101FF 		addi	sp,sp,-16
 112              		.cfi_def_cfa_offset 16
 113 007c 23341100 		sd	ra,8(sp)
 114 0080 23308100 		sd	s0,0(sp)
 115              		.cfi_offset 1, -8
 116              		.cfi_offset 8, -16
 117 0084 13040101 		addi	s0,sp,16
 118              		.cfi_def_cfa 8, 0
  22:src/_new.cpp  ****     mem_free(p);
 119              		.loc 1 22 5
 120              		.loc 1 22 13 is_stmt 0
 121 0088 97000000 		call	_Z8mem_freePv@plt
 121      E7800000 
 122              	.LVL7:
  23:src/_new.cpp  **** }
 123              		.loc 1 23 1
 124 0090 83308100 		ld	ra,8(sp)
 125              		.cfi_restore 1
 126 0094 03340100 		ld	s0,0(sp)
 127              		.cfi_restore 8
 128              		.cfi_def_cfa 2, 16
 129 0098 13010101 		addi	sp,sp,16
 130              		.cfi_def_cfa_offset 0
 131 009c 67800000 		jr	ra
 132              		.cfi_endproc
 133              	.LFE4:
 135              	.Letext0:
 136              		.file 2 "src/../h/../lib/hw.h"
 137              		.file 3 "src/../h/syscall_c.hpp"
GAS LISTING /tmp/cc3wKLXN.s 			page 4


DEFINED SYMBOLS
                            *ABS*:0000000000000000 _new.cpp
     /tmp/cc3wKLXN.s:9      .text:0000000000000000 _Znwm
     /tmp/cc3wKLXN.s:13     .text:0000000000000000 .L0 
     /tmp/cc3wKLXN.s:15     .text:0000000000000000 .L0 
     /tmp/cc3wKLXN.s:16     .text:0000000000000004 .L0 
     /tmp/cc3wKLXN.s:19     .text:000000000000000c .L0 
     /tmp/cc3wKLXN.s:20     .text:000000000000000c .L0 
     /tmp/cc3wKLXN.s:22     .text:0000000000000010 .L0 
     /tmp/cc3wKLXN.s:24     .text:0000000000000010 .L0 
     /tmp/cc3wKLXN.s:25     .text:0000000000000010 .L0 
     /tmp/cc3wKLXN.s:28     .text:0000000000000018 .L0 
     /tmp/cc3wKLXN.s:29     .text:000000000000001c .L0 
     /tmp/cc3wKLXN.s:31     .text:0000000000000020 .L0 
     /tmp/cc3wKLXN.s:32     .text:0000000000000020 .L0 
     /tmp/cc3wKLXN.s:34     .text:0000000000000024 .L0 
     /tmp/cc3wKLXN.s:36     .text:0000000000000028 .L0 
     /tmp/cc3wKLXN.s:42     .text:0000000000000028 _Znam
     /tmp/cc3wKLXN.s:45     .text:0000000000000028 .L0 
     /tmp/cc3wKLXN.s:47     .text:0000000000000028 .L0 
     /tmp/cc3wKLXN.s:48     .text:000000000000002c .L0 
     /tmp/cc3wKLXN.s:51     .text:0000000000000034 .L0 
     /tmp/cc3wKLXN.s:52     .text:0000000000000034 .L0 
     /tmp/cc3wKLXN.s:54     .text:0000000000000038 .L0 
     /tmp/cc3wKLXN.s:56     .text:0000000000000038 .L0 
     /tmp/cc3wKLXN.s:57     .text:0000000000000038 .L0 
     /tmp/cc3wKLXN.s:60     .text:0000000000000040 .L0 
     /tmp/cc3wKLXN.s:61     .text:0000000000000044 .L0 
     /tmp/cc3wKLXN.s:63     .text:0000000000000048 .L0 
     /tmp/cc3wKLXN.s:64     .text:0000000000000048 .L0 
     /tmp/cc3wKLXN.s:66     .text:000000000000004c .L0 
     /tmp/cc3wKLXN.s:68     .text:0000000000000050 .L0 
     /tmp/cc3wKLXN.s:74     .text:0000000000000050 _ZdlPv
     /tmp/cc3wKLXN.s:77     .text:0000000000000050 .L0 
     /tmp/cc3wKLXN.s:79     .text:0000000000000050 .L0 
     /tmp/cc3wKLXN.s:80     .text:0000000000000054 .L0 
     /tmp/cc3wKLXN.s:83     .text:000000000000005c .L0 
     /tmp/cc3wKLXN.s:84     .text:000000000000005c .L0 
     /tmp/cc3wKLXN.s:86     .text:0000000000000060 .L0 
     /tmp/cc3wKLXN.s:88     .text:0000000000000060 .L0 
     /tmp/cc3wKLXN.s:89     .text:0000000000000060 .L0 
     /tmp/cc3wKLXN.s:92     .text:0000000000000068 .L0 
     /tmp/cc3wKLXN.s:93     .text:000000000000006c .L0 
     /tmp/cc3wKLXN.s:95     .text:0000000000000070 .L0 
     /tmp/cc3wKLXN.s:96     .text:0000000000000070 .L0 
     /tmp/cc3wKLXN.s:98     .text:0000000000000074 .L0 
     /tmp/cc3wKLXN.s:100    .text:0000000000000078 .L0 
     /tmp/cc3wKLXN.s:106    .text:0000000000000078 _ZdaPv
     /tmp/cc3wKLXN.s:109    .text:0000000000000078 .L0 
     /tmp/cc3wKLXN.s:111    .text:0000000000000078 .L0 
     /tmp/cc3wKLXN.s:112    .text:000000000000007c .L0 
     /tmp/cc3wKLXN.s:115    .text:0000000000000084 .L0 
     /tmp/cc3wKLXN.s:116    .text:0000000000000084 .L0 
     /tmp/cc3wKLXN.s:118    .text:0000000000000088 .L0 
     /tmp/cc3wKLXN.s:120    .text:0000000000000088 .L0 
     /tmp/cc3wKLXN.s:121    .text:0000000000000088 .L0 
     /tmp/cc3wKLXN.s:124    .text:0000000000000090 .L0 
GAS LISTING /tmp/cc3wKLXN.s 			page 5


     /tmp/cc3wKLXN.s:125    .text:0000000000000094 .L0 
     /tmp/cc3wKLXN.s:127    .text:0000000000000098 .L0 
     /tmp/cc3wKLXN.s:128    .text:0000000000000098 .L0 
     /tmp/cc3wKLXN.s:130    .text:000000000000009c .L0 
     /tmp/cc3wKLXN.s:132    .text:00000000000000a0 .L0 
     /tmp/cc3wKLXN.s:138    .text:00000000000000a0 .L0 
     /tmp/cc3wKLXN.s:402    .debug_abbrev:0000000000000000 .Ldebug_abbrev0
     /tmp/cc3wKLXN.s:743    .debug_str:00000000000000ce .LASF30
     /tmp/cc3wKLXN.s:727    .debug_str:000000000000005a .LASF31
     /tmp/cc3wKLXN.s:759    .debug_str:00000000000001f8 .LASF32
     /tmp/cc3wKLXN.s:5      .text:0000000000000000 .Ltext0
     /tmp/cc3wKLXN.s:135    .text:00000000000000a0 .Letext0
     /tmp/cc3wKLXN.s:711    .debug_line:0000000000000000 .Ldebug_line0
     /tmp/cc3wKLXN.s:747    .debug_str:00000000000001a0 .LASF0
     /tmp/cc3wKLXN.s:739    .debug_str:00000000000000af .LASF1
     /tmp/cc3wKLXN.s:733    .debug_str:0000000000000089 .LASF2
     /tmp/cc3wKLXN.s:723    .debug_str:000000000000003d .LASF4
     /tmp/cc3wKLXN.s:737    .debug_str:000000000000009d .LASF3
     /tmp/cc3wKLXN.s:717    .debug_str:0000000000000021 .LASF5
     /tmp/cc3wKLXN.s:715    .debug_str:000000000000000e .LASF6
     /tmp/cc3wKLXN.s:729    .debug_str:0000000000000067 .LASF7
     /tmp/cc3wKLXN.s:755    .debug_str:00000000000001d2 .LASF8
     /tmp/cc3wKLXN.s:721    .debug_str:000000000000002f .LASF9
     /tmp/cc3wKLXN.s:777    .debug_str:0000000000000276 .LASF10
     /tmp/cc3wKLXN.s:731    .debug_str:000000000000007a .LASF11
     /tmp/cc3wKLXN.s:765    .debug_str:0000000000000232 .LASF12
     /tmp/cc3wKLXN.s:753    .debug_str:00000000000001c2 .LASF13
     /tmp/cc3wKLXN.s:741    .debug_str:00000000000000c2 .LASF14
     /tmp/cc3wKLXN.s:725    .debug_str:0000000000000044 .LASF15
     /tmp/cc3wKLXN.s:757    .debug_str:00000000000001e2 .LASF16
     /tmp/cc3wKLXN.s:751    .debug_str:00000000000001bd .LASF17
     /tmp/cc3wKLXN.s:763    .debug_str:000000000000021f .LASF18
     /tmp/cc3wKLXN.s:719    .debug_str:0000000000000028 .LASF20
     /tmp/cc3wKLXN.s:107    .text:0000000000000078 .LFB4
     /tmp/cc3wKLXN.s:133    .text:00000000000000a0 .LFE4
     /tmp/cc3wKLXN.s:642    .debug_loc:0000000000000000 .LLST3
     /tmp/cc3wKLXN.s:122    .text:0000000000000090 .LVL7
     /tmp/cc3wKLXN.s:749    .debug_str:00000000000001ad .LASF19
     /tmp/cc3wKLXN.s:767    .debug_str:0000000000000242 .LASF21
     /tmp/cc3wKLXN.s:75     .text:0000000000000050 .LFB3
     /tmp/cc3wKLXN.s:101    .text:0000000000000078 .LFE3
     /tmp/cc3wKLXN.s:656    .debug_loc:0000000000000039 .LLST2
     /tmp/cc3wKLXN.s:90     .text:0000000000000068 .LVL5
     /tmp/cc3wKLXN.s:773    .debug_str:0000000000000260 .LASF22
     /tmp/cc3wKLXN.s:735    .debug_str:0000000000000097 .LASF24
     /tmp/cc3wKLXN.s:43     .text:0000000000000028 .LFB2
     /tmp/cc3wKLXN.s:69     .text:0000000000000050 .LFE2
     /tmp/cc3wKLXN.s:670    .debug_loc:0000000000000072 .LLST1
     /tmp/cc3wKLXN.s:58     .text:0000000000000040 .LVL3
     /tmp/cc3wKLXN.s:769    .debug_str:0000000000000249 .LASF23
     /tmp/cc3wKLXN.s:775    .debug_str:0000000000000270 .LASF25
     /tmp/cc3wKLXN.s:10     .text:0000000000000000 .LFB1
     /tmp/cc3wKLXN.s:37     .text:0000000000000028 .LFE1
     /tmp/cc3wKLXN.s:684    .debug_loc:00000000000000ab .LLST0
     /tmp/cc3wKLXN.s:26     .text:0000000000000018 .LVL1
     /tmp/cc3wKLXN.s:713    .debug_str:0000000000000000 .LASF26
     /tmp/cc3wKLXN.s:761    .debug_str:0000000000000216 .LASF28
GAS LISTING /tmp/cc3wKLXN.s 			page 6


     /tmp/cc3wKLXN.s:745    .debug_str:0000000000000192 .LASF27
     /tmp/cc3wKLXN.s:771    .debug_str:0000000000000256 .LASF29
     /tmp/cc3wKLXN.s:110    .text:0000000000000078 .LVL6
     /tmp/cc3wKLXN.s:78     .text:0000000000000050 .LVL4
     /tmp/cc3wKLXN.s:46     .text:0000000000000028 .LVL2
     /tmp/cc3wKLXN.s:14     .text:0000000000000000 .LVL0
     /tmp/cc3wKLXN.s:139    .debug_info:0000000000000000 .Ldebug_info0

UNDEFINED SYMBOLS
_Z9mem_allocm
_Z8mem_freePv
