GAS LISTING /tmp/cc7fCWZT.s 			page 1


   1              		.file	"_new.cpp"
   2              		.option pic
   3              		.option norelax
   4              		.text
   5              	.Ltext0:
   6              		.align	2
   7              		.globl	_Znwm
   9              	_Znwm:
  10              	.LFB1:
  11              		.file 1 "src/_new.cpp"
   1:src/_new.cpp  **** 
   2:src/_new.cpp  **** 
   3:src/_new.cpp  **** #include "../lib/mem.h"
   4:src/_new.cpp  **** #include "../lib/console.h"
   5:src/_new.cpp  **** #include "../h/syscall_cpp.hpp"
   6:src/_new.cpp  **** 
   7:src/_new.cpp  **** 
   8:src/_new.cpp  **** using size_t = decltype(sizeof(0));
   9:src/_new.cpp  **** 
  10:src/_new.cpp  **** void *operator new(size_t n)
  11:src/_new.cpp  **** {
  12              		.loc 1 11 1
  13              		.cfi_startproc
  14              	.LVL0:
  15 0000 130101FF 		addi	sp,sp,-16
  16              		.cfi_def_cfa_offset 16
  17 0004 23341100 		sd	ra,8(sp)
  18 0008 23308100 		sd	s0,0(sp)
  19              		.cfi_offset 1, -8
  20              		.cfi_offset 8, -16
  21 000c 13040101 		addi	s0,sp,16
  22              		.cfi_def_cfa 8, 0
  12:src/_new.cpp  ****     return __mem_alloc(n);
  23              		.loc 1 12 5
  24              		.loc 1 12 23 is_stmt 0
  25 0010 97000000 		call	__mem_alloc@plt
  25      E7800000 
  26              	.LVL1:
  13:src/_new.cpp  **** }
  27              		.loc 1 13 1
  28 0018 83308100 		ld	ra,8(sp)
  29              		.cfi_restore 1
  30 001c 03340100 		ld	s0,0(sp)
  31              		.cfi_restore 8
  32              		.cfi_def_cfa 2, 16
  33 0020 13010101 		addi	sp,sp,16
  34              		.cfi_def_cfa_offset 0
  35 0024 67800000 		jr	ra
  36              		.cfi_endproc
  37              	.LFE1:
  39              		.align	2
  40              		.globl	_Znam
  42              	_Znam:
  43              	.LFB2:
  14:src/_new.cpp  **** 
  15:src/_new.cpp  **** void *operator new[](size_t n)
  16:src/_new.cpp  **** {
GAS LISTING /tmp/cc7fCWZT.s 			page 2


  44              		.loc 1 16 1 is_stmt 1
  45              		.cfi_startproc
  46              	.LVL2:
  47 0028 130101FF 		addi	sp,sp,-16
  48              		.cfi_def_cfa_offset 16
  49 002c 23341100 		sd	ra,8(sp)
  50 0030 23308100 		sd	s0,0(sp)
  51              		.cfi_offset 1, -8
  52              		.cfi_offset 8, -16
  53 0034 13040101 		addi	s0,sp,16
  54              		.cfi_def_cfa 8, 0
  17:src/_new.cpp  ****     return __mem_alloc(n);
  55              		.loc 1 17 5
  56              		.loc 1 17 23 is_stmt 0
  57 0038 97000000 		call	__mem_alloc@plt
  57      E7800000 
  58              	.LVL3:
  18:src/_new.cpp  **** }
  59              		.loc 1 18 1
  60 0040 83308100 		ld	ra,8(sp)
  61              		.cfi_restore 1
  62 0044 03340100 		ld	s0,0(sp)
  63              		.cfi_restore 8
  64              		.cfi_def_cfa 2, 16
  65 0048 13010101 		addi	sp,sp,16
  66              		.cfi_def_cfa_offset 0
  67 004c 67800000 		jr	ra
  68              		.cfi_endproc
  69              	.LFE2:
  71              		.align	2
  72              		.globl	_ZdlPv
  74              	_ZdlPv:
  75              	.LFB3:
  19:src/_new.cpp  **** 
  20:src/_new.cpp  **** void operator delete(void *p)
  21:src/_new.cpp  **** {
  76              		.loc 1 21 1 is_stmt 1
  77              		.cfi_startproc
  78              	.LVL4:
  79 0050 130101FF 		addi	sp,sp,-16
  80              		.cfi_def_cfa_offset 16
  81 0054 23341100 		sd	ra,8(sp)
  82 0058 23308100 		sd	s0,0(sp)
  83              		.cfi_offset 1, -8
  84              		.cfi_offset 8, -16
  85 005c 13040101 		addi	s0,sp,16
  86              		.cfi_def_cfa 8, 0
  22:src/_new.cpp  ****     __mem_free(p);
  87              		.loc 1 22 5
  88              		.loc 1 22 15 is_stmt 0
  89 0060 97000000 		call	__mem_free@plt
  89      E7800000 
  90              	.LVL5:
  23:src/_new.cpp  **** }
  91              		.loc 1 23 1
  92 0068 83308100 		ld	ra,8(sp)
  93              		.cfi_restore 1
GAS LISTING /tmp/cc7fCWZT.s 			page 3


  94 006c 03340100 		ld	s0,0(sp)
  95              		.cfi_restore 8
  96              		.cfi_def_cfa 2, 16
  97 0070 13010101 		addi	sp,sp,16
  98              		.cfi_def_cfa_offset 0
  99 0074 67800000 		jr	ra
 100              		.cfi_endproc
 101              	.LFE3:
 103              		.align	2
 104              		.globl	_ZdaPv
 106              	_ZdaPv:
 107              	.LFB4:
  24:src/_new.cpp  **** 
  25:src/_new.cpp  **** void operator delete[](void *p)
  26:src/_new.cpp  **** {
 108              		.loc 1 26 1 is_stmt 1
 109              		.cfi_startproc
 110              	.LVL6:
 111 0078 130101FF 		addi	sp,sp,-16
 112              		.cfi_def_cfa_offset 16
 113 007c 23341100 		sd	ra,8(sp)
 114 0080 23308100 		sd	s0,0(sp)
 115              		.cfi_offset 1, -8
 116              		.cfi_offset 8, -16
 117 0084 13040101 		addi	s0,sp,16
 118              		.cfi_def_cfa 8, 0
  27:src/_new.cpp  ****     __mem_free(p);
 119              		.loc 1 27 5
 120              		.loc 1 27 15 is_stmt 0
 121 0088 97000000 		call	__mem_free@plt
 121      E7800000 
 122              	.LVL7:
  28:src/_new.cpp  **** }
 123              		.loc 1 28 1
 124 0090 83308100 		ld	ra,8(sp)
 125              		.cfi_restore 1
 126 0094 03340100 		ld	s0,0(sp)
 127              		.cfi_restore 8
 128              		.cfi_def_cfa 2, 16
 129 0098 13010101 		addi	sp,sp,16
 130              		.cfi_def_cfa_offset 0
 131 009c 67800000 		jr	ra
 132              		.cfi_endproc
 133              	.LFE4:
 135              		.align	2
 136              		.globl	_ZN7Console4getcEv
 138              	_ZN7Console4getcEv:
 139              	.LFB5:
  29:src/_new.cpp  **** 
  30:src/_new.cpp  **** char Console::getc() {
 140              		.loc 1 30 22 is_stmt 1
 141              		.cfi_startproc
 142 00a0 130101FF 		addi	sp,sp,-16
 143              		.cfi_def_cfa_offset 16
 144 00a4 23341100 		sd	ra,8(sp)
 145 00a8 23308100 		sd	s0,0(sp)
 146              		.cfi_offset 1, -8
GAS LISTING /tmp/cc7fCWZT.s 			page 4


 147              		.cfi_offset 8, -16
 148 00ac 13040101 		addi	s0,sp,16
 149              		.cfi_def_cfa 8, 0
  31:src/_new.cpp  ****     return __getc();
 150              		.loc 1 31 5
 151              		.loc 1 31 18 is_stmt 0
 152 00b0 97000000 		call	__getc@plt
 152      E7800000 
 153              	.LVL8:
  32:src/_new.cpp  **** }
 154              		.loc 1 32 1
 155 00b8 83308100 		ld	ra,8(sp)
 156              		.cfi_restore 1
 157 00bc 03340100 		ld	s0,0(sp)
 158              		.cfi_restore 8
 159              		.cfi_def_cfa 2, 16
 160 00c0 13010101 		addi	sp,sp,16
 161              		.cfi_def_cfa_offset 0
 162 00c4 67800000 		jr	ra
 163              		.cfi_endproc
 164              	.LFE5:
 166              		.align	2
 167              		.globl	_ZN7Console4putcEc
 169              	_ZN7Console4putcEc:
 170              	.LFB6:
  33:src/_new.cpp  **** 
  34:src/_new.cpp  **** void Console::putc(char c) {
 171              		.loc 1 34 28 is_stmt 1
 172              		.cfi_startproc
 173              	.LVL9:
 174 00c8 130101FF 		addi	sp,sp,-16
 175              		.cfi_def_cfa_offset 16
 176 00cc 23341100 		sd	ra,8(sp)
 177 00d0 23308100 		sd	s0,0(sp)
 178              		.cfi_offset 1, -8
 179              		.cfi_offset 8, -16
 180 00d4 13040101 		addi	s0,sp,16
 181              		.cfi_def_cfa 8, 0
  35:src/_new.cpp  ****     __putc(c);
 182              		.loc 1 35 5
 183              		.loc 1 35 11 is_stmt 0
 184 00d8 97000000 		call	__putc@plt
 184      E7800000 
 185              	.LVL10:
  36:src/_new.cpp  **** }
 186              		.loc 1 36 1
 187 00e0 83308100 		ld	ra,8(sp)
 188              		.cfi_restore 1
 189 00e4 03340100 		ld	s0,0(sp)
 190              		.cfi_restore 8
 191              		.cfi_def_cfa 2, 16
 192 00e8 13010101 		addi	sp,sp,16
 193              		.cfi_def_cfa_offset 0
 194 00ec 67800000 		jr	ra
 195              		.cfi_endproc
 196              	.LFE6:
 198              	.Letext0:
GAS LISTING /tmp/cc7fCWZT.s 			page 5


 199              		.file 2 "src/../lib/hw.h"
 200              		.file 3 "src/../lib/console.h"
 201              		.file 4 "src/../lib/mem.h"
 202              		.file 5 "src/../h/syscall_cpp.hpp"
GAS LISTING /tmp/cc7fCWZT.s 			page 6

