GAS LISTING /tmp/ccY2fCPR.s 			page 1


   1              		.file	"_sem.cpp"
   2              		.option pic
   3              		.option norelax
   4              		.text
   5              	.Ltext0:
   6              		.align	2
   7              		.globl	_ZN4_sem4waitEv
   9              	_ZN4_sem4waitEv:
  10              	.LFB25:
  11              		.file 1 "src/_sem.cpp"
   1:src/_sem.cpp  **** //
   2:src/_sem.cpp  **** // Created by os on 10/11/25.
   3:src/_sem.cpp  **** //
   4:src/_sem.cpp  **** 
   5:src/_sem.cpp  **** #include "../h/_sem.hpp"
   6:src/_sem.cpp  **** #include "../h/syscall_c.hpp"
   7:src/_sem.cpp  **** 
   8:src/_sem.cpp  **** int _sem::wait() {
  12              		.loc 1 8 18
  13              		.cfi_startproc
  14              	.LVL0:
   9:src/_sem.cpp  ****     if (isClosed()) return -1;
  15              		.loc 1 9 5
  16              	.LBB37:
  17              	.LBB38:
  18              		.file 2 "src/../h/_sem.hpp"
   1:src/../h/_sem.hpp **** //
   2:src/../h/_sem.hpp **** // Created by os on 10/11/25.
   3:src/../h/_sem.hpp **** //
   4:src/../h/_sem.hpp **** 
   5:src/../h/_sem.hpp **** 
   6:src/../h/_sem.hpp **** #ifndef PROJECT_BASE__SEM_HPP
   7:src/../h/_sem.hpp **** #define PROJECT_BASE__SEM_HPP
   8:src/../h/_sem.hpp **** 
   9:src/../h/_sem.hpp **** #include "../h/list.hpp"
  10:src/../h/_sem.hpp **** #include "../h/_thread.hpp"
  11:src/../h/_sem.hpp **** #include "../lib/hw.h"
  12:src/../h/_sem.hpp **** #include "../h/syscall_c.hpp"
  13:src/../h/_sem.hpp **** 
  14:src/../h/_sem.hpp **** 
  15:src/../h/_sem.hpp **** typedef _sem* sem_t;
  16:src/../h/_sem.hpp **** 
  17:src/../h/_sem.hpp **** class _sem {
  18:src/../h/_sem.hpp **** 
  19:src/../h/_sem.hpp **** public:
  20:src/../h/_sem.hpp ****     _sem(uint32 init = 1) : val(init), waitStatus(0), closed(false) {}
  21:src/../h/_sem.hpp ****     static _sem* createSemaphore(uint32 init);
  22:src/../h/_sem.hpp **** 
  23:src/../h/_sem.hpp ****     int wait();
  24:src/../h/_sem.hpp ****     int signal();
  25:src/../h/_sem.hpp ****     int close();
  26:src/../h/_sem.hpp **** 
  27:src/../h/_sem.hpp ****     int value() const { return val; }
  28:src/../h/_sem.hpp ****     void setWaitStatus(int s) { waitStatus = s;}
  29:src/../h/_sem.hpp ****     int getWaitStatus() const { return waitStatus;}
  30:src/../h/_sem.hpp **** 
  31:src/../h/_sem.hpp ****     void setClosed(bool b);
GAS LISTING /tmp/ccY2fCPR.s 			page 2


  32:src/../h/_sem.hpp ****     bool isClosed() const {return closed;}
  19              		.loc 2 32 28
  20              		.loc 2 32 35 is_stmt 0
  21 0000 83478500 		lbu	a5,8(a0)
  22              	.LVL1:
  23              	.LBE38:
  24              	.LBE37:
  25              		.loc 1 9 5
  26 0004 6394070A 		bnez	a5,.L6
   8:src/_sem.cpp  ****     if (isClosed()) return -1;
  27              		.loc 1 8 18
  28 0008 130101FE 		addi	sp,sp,-32
  29              		.cfi_def_cfa_offset 32
  30 000c 233C1100 		sd	ra,24(sp)
  31 0010 23388100 		sd	s0,16(sp)
  32 0014 23349100 		sd	s1,8(sp)
  33 0018 23302101 		sd	s2,0(sp)
  34              		.cfi_offset 1, -8
  35              		.cfi_offset 8, -16
  36              		.cfi_offset 9, -24
  37              		.cfi_offset 18, -32
  38 001c 13040102 		addi	s0,sp,32
  39              		.cfi_def_cfa 8, 0
  40 0020 93040500 		mv	s1,a0
  10:src/_sem.cpp  ****     if (--val < 0){
  41              		.loc 1 10 5 is_stmt 1
  42              	.LBB39:
  43              		.loc 1 10 11 is_stmt 0
  44 0024 83270500 		lw	a5,0(a0)
  45              		.loc 1 10 9
  46 0028 9B87F7FF 		addiw	a5,a5,-1
  47              		.loc 1 10 15
  48 002c 2320F500 		sw	a5,0(a0)
  49              		.loc 1 10 5
  50 0030 13970702 		slli	a4,a5,32
  51 0034 63400702 		bltz	a4,.L11
  52              	.LVL2:
  53              	.L3:
  54              	.LBE39:
  11:src/_sem.cpp  ****         _thread* cur = _thread::running;
  12:src/_sem.cpp  ****         cur->setBlock(true);
  13:src/_sem.cpp  ****         blocked.addLast(cur);
  14:src/_sem.cpp  ****         thread_dispatch();
  15:src/_sem.cpp  ****     }
  16:src/_sem.cpp  **** 
  17:src/_sem.cpp  ****     return this->getWaitStatus();
  55              		.loc 1 17 5 is_stmt 1
  56              	.LBB48:
  57              	.LBB49:
  29:src/../h/_sem.hpp **** 
  58              		.loc 2 29 33
  29:src/../h/_sem.hpp **** 
  59              		.loc 2 29 40 is_stmt 0
  60 0038 03A54400 		lw	a0,4(s1)
  61              	.LVL3:
  62              	.LBE49:
  63              	.LBE48:
GAS LISTING /tmp/ccY2fCPR.s 			page 3


  18:src/_sem.cpp  **** }
  64              		.loc 1 18 1
  65 003c 83308101 		ld	ra,24(sp)
  66              		.cfi_remember_state
  67              		.cfi_restore 1
  68 0040 03340101 		ld	s0,16(sp)
  69              		.cfi_restore 8
  70              		.cfi_def_cfa 2, 32
  71 0044 83348100 		ld	s1,8(sp)
  72              		.cfi_restore 9
  73              	.LVL4:
  74 0048 03390100 		ld	s2,0(sp)
  75              		.cfi_restore 18
  76 004c 13010102 		addi	sp,sp,32
  77              		.cfi_def_cfa_offset 0
  78 0050 67800000 		jr	ra
  79              	.LVL5:
  80              	.L11:
  81              		.cfi_restore_state
  82              	.LBB50:
  83              	.LBB40:
  11:src/_sem.cpp  ****         _thread* cur = _thread::running;
  84              		.loc 1 11 9 is_stmt 1
  11:src/_sem.cpp  ****         _thread* cur = _thread::running;
  85              		.loc 1 11 18 is_stmt 0
  86 0054 97070000 		la	a5,_ZN7_thread7runningE
  86      83B70700 
  87 005c 03B90700 		ld	s2,0(a5)
  88              	.LVL6:
  12:src/_sem.cpp  ****         blocked.addLast(cur);
  89              		.loc 1 12 9 is_stmt 1
  12:src/_sem.cpp  ****         blocked.addLast(cur);
  90              		.loc 1 12 22 is_stmt 0
  91 0060 93051000 		li	a1,1
  92 0064 13050900 		mv	a0,s2
  93 0068 97000000 		call	_ZN7_thread8setBlockEb@plt
  93      E7800000 
  94              	.LVL7:
  13:src/_sem.cpp  ****         thread_dispatch();
  95              		.loc 1 13 9 is_stmt 1
  96              	.LBB41:
  97              	.LBB42:
  98              		.file 3 "src/../h/../h/list.hpp"
   1:src/../h/../h/list.hpp **** 
   2:src/../h/../h/list.hpp **** #ifndef OS1_VEZBE07_RISCV_CONTEXT_SWITCH_2_INTERRUPT_LIST_HPP
   3:src/../h/../h/list.hpp **** #define OS1_VEZBE07_RISCV_CONTEXT_SWITCH_2_INTERRUPT_LIST_HPP
   4:src/../h/../h/list.hpp **** 
   5:src/../h/../h/list.hpp **** template<typename T>
   6:src/../h/../h/list.hpp **** class List
   7:src/../h/../h/list.hpp **** {
   8:src/../h/../h/list.hpp **** private:
   9:src/../h/../h/list.hpp ****     struct Elem
  10:src/../h/../h/list.hpp ****     {
  11:src/../h/../h/list.hpp ****         T *data;
  12:src/../h/../h/list.hpp ****         Elem *next;
  13:src/../h/../h/list.hpp **** 
  14:src/../h/../h/list.hpp ****         Elem(T *data, Elem *next) : data(data), next(next) {}
GAS LISTING /tmp/ccY2fCPR.s 			page 4


  15:src/../h/../h/list.hpp ****     };
  16:src/../h/../h/list.hpp **** 
  17:src/../h/../h/list.hpp ****     Elem *head, *tail;
  18:src/../h/../h/list.hpp **** 
  19:src/../h/../h/list.hpp **** public:
  20:src/../h/../h/list.hpp ****     List() : head(0), tail(0) {}
  21:src/../h/../h/list.hpp **** 
  22:src/../h/../h/list.hpp ****     List(const List<T> &) = delete;
  23:src/../h/../h/list.hpp **** 
  24:src/../h/../h/list.hpp ****     List<T> &operator=(const List<T> &) = delete;
  25:src/../h/../h/list.hpp **** 
  26:src/../h/../h/list.hpp ****     void addFirst(T *data)
  27:src/../h/../h/list.hpp ****     {
  28:src/../h/../h/list.hpp ****         Elem *elem = new Elem(data, head);
  29:src/../h/../h/list.hpp ****         head = elem;
  30:src/../h/../h/list.hpp ****         if (!tail) { tail = head; }
  31:src/../h/../h/list.hpp ****     }
  32:src/../h/../h/list.hpp **** 
  33:src/../h/../h/list.hpp ****     void addLast(T *data)
  34:src/../h/../h/list.hpp ****     {
  35:src/../h/../h/list.hpp ****         Elem *elem = new Elem(data, 0);
  99              		.loc 3 35 22 is_stmt 0
 100 0070 13050001 		li	a0,16
 101 0074 97000000 		call	_Znwm@plt
 101      E7800000 
 102              	.LVL8:
 103              	.LBB43:
 104              	.LBB44:
  14:src/../h/../h/list.hpp ****     };
 105              		.loc 3 14 58
 106 007c 23302501 		sd	s2,0(a0)
 107 0080 23340500 		sd	zero,8(a0)
 108              	.LVL9:
 109              	.LBE44:
 110              	.LBE43:
  36:src/../h/../h/list.hpp ****         if (tail)
 111              		.loc 3 36 13
 112 0084 83B78401 		ld	a5,24(s1)
 113              		.loc 3 36 9
 114 0088 638C0700 		beqz	a5,.L4
  37:src/../h/../h/list.hpp ****         {
  38:src/../h/../h/list.hpp ****             tail->next = elem;
 115              		.loc 3 38 13
 116 008c 23B4A700 		sd	a0,8(a5)
  39:src/../h/../h/list.hpp ****             tail = elem;
 117              		.loc 3 39 13
 118 0090 23BCA400 		sd	a0,24(s1)
 119              	.L5:
 120              	.LVL10:
 121              	.LBE42:
 122              	.LBE41:
  14:src/_sem.cpp  ****     }
 123              		.loc 1 14 9 is_stmt 1
  14:src/_sem.cpp  ****     }
 124              		.loc 1 14 24 is_stmt 0
 125 0094 97000000 		call	_Z15thread_dispatchv@plt
 125      E7800000 
GAS LISTING /tmp/ccY2fCPR.s 			page 5


 126              	.LVL11:
 127              	.LBE40:
 128 009c 6FF0DFF9 		j	.L3
 129              	.LVL12:
 130              	.L4:
 131              	.LBB47:
 132              	.LBB46:
 133              	.LBB45:
  40:src/../h/../h/list.hpp ****         } else
  41:src/../h/../h/list.hpp ****         {
  42:src/../h/../h/list.hpp ****             head = tail = elem;
 134              		.loc 3 42 13
 135 00a0 23BCA400 		sd	a0,24(s1)
 136 00a4 23B8A400 		sd	a0,16(s1)
 137 00a8 6FF0DFFE 		j	.L5
 138              	.LVL13:
 139              	.L6:
 140              		.cfi_def_cfa_register 2
 141              		.cfi_restore 1
 142              		.cfi_restore 8
 143              		.cfi_restore 9
 144              		.cfi_restore 18
 145              	.LBE45:
 146              	.LBE46:
 147              	.LBE47:
 148              	.LBE50:
   9:src/_sem.cpp  ****     if (--val < 0){
 149              		.loc 1 9 29
 150 00ac 1305F0FF 		li	a0,-1
 151              	.LVL14:
 152              		.loc 1 18 1
 153 00b0 67800000 		ret
 154              		.cfi_endproc
 155              	.LFE25:
 157              		.align	2
 158              		.globl	_ZN4_sem6signalEv
 160              	_ZN4_sem6signalEv:
 161              	.LFB26:
  19:src/_sem.cpp  **** 
  20:src/_sem.cpp  **** int _sem::signal() {
 162              		.loc 1 20 20 is_stmt 1
 163              		.cfi_startproc
 164              	.LVL15:
  21:src/_sem.cpp  ****     if (isClosed()) return -1;
 165              		.loc 1 21 5
 166              	.LBB51:
 167              	.LBB52:
 168              		.loc 2 32 28
 169              		.loc 2 32 35 is_stmt 0
 170 00b4 03478500 		lbu	a4,8(a0)
 171              	.LVL16:
 172              	.LBE52:
 173              	.LBE51:
 174              		.loc 1 21 5
 175 00b8 631C0708 		bnez	a4,.L15
 176 00bc 93070500 		mv	a5,a0
  22:src/_sem.cpp  ****     if(++val <= 0){
GAS LISTING /tmp/ccY2fCPR.s 			page 6


 177              		.loc 1 22 5 is_stmt 1
 178              	.LBB53:
 179              		.loc 1 22 10 is_stmt 0
 180 00c0 03270500 		lw	a4,0(a0)
 181              		.loc 1 22 8
 182 00c4 1B071700 		addiw	a4,a4,1
 183 00c8 9B060700 		sext.w	a3,a4
 184              		.loc 1 22 14
 185 00cc 2320E500 		sw	a4,0(a0)
 186              		.loc 1 22 5
 187 00d0 6356D000 		blez	a3,.L23
 188              	.LBE53:
  23:src/_sem.cpp  ****         if(_thread* cur = blocked.removeFirst()){
  24:src/_sem.cpp  ****             cur->setBlock(false);
  25:src/_sem.cpp  ****             Scheduler::put(cur);
  26:src/_sem.cpp  ****         }
  27:src/_sem.cpp  ****     }
  28:src/_sem.cpp  ****     return 0;
 189              		.loc 1 28 12
 190 00d4 13050000 		li	a0,0
 191              	.LVL17:
 192 00d8 67800000 		ret
 193              	.LVL18:
 194              	.L23:
  23:src/_sem.cpp  ****         if(_thread* cur = blocked.removeFirst()){
 195              		.loc 1 23 9 is_stmt 1
 196              	.LBB63:
 197              	.LBB54:
 198              	.LBB55:
 199              	.LBB56:
  43:src/../h/../h/list.hpp ****         }
  44:src/../h/../h/list.hpp ****     }
  45:src/../h/../h/list.hpp **** 
  46:src/../h/../h/list.hpp ****     T *removeFirst()
  47:src/../h/../h/list.hpp ****     {
  48:src/../h/../h/list.hpp ****         if (!head) { return 0; }
 200              		.loc 3 48 14 is_stmt 0
 201 00dc 03350501 		ld	a0,16(a0)
 202              	.LVL19:
 203              		.loc 3 48 9
 204 00e0 630C0506 		beqz	a0,.L17
 205              	.LBE56:
 206              	.LBE55:
 207              	.LBE54:
 208              	.LBE63:
  20:src/_sem.cpp  ****     if (isClosed()) return -1;
 209              		.loc 1 20 20
 210 00e4 130101FE 		addi	sp,sp,-32
 211              		.cfi_def_cfa_offset 32
 212 00e8 233C1100 		sd	ra,24(sp)
 213 00ec 23388100 		sd	s0,16(sp)
 214 00f0 23349100 		sd	s1,8(sp)
 215              		.cfi_offset 1, -8
 216              		.cfi_offset 8, -16
 217              		.cfi_offset 9, -24
 218 00f4 13040102 		addi	s0,sp,32
 219              		.cfi_def_cfa 8, 0
GAS LISTING /tmp/ccY2fCPR.s 			page 7


 220              	.LVL20:
 221              	.LBB64:
 222              	.LBB61:
 223              	.LBB59:
 224              	.LBB57:
  49:src/../h/../h/list.hpp **** 
  50:src/../h/../h/list.hpp ****         Elem *elem = head;
  51:src/../h/../h/list.hpp ****         head = head->next;
 225              		.loc 3 51 22
 226 00f8 03378500 		ld	a4,8(a0)
 227              		.loc 3 51 9
 228 00fc 23B8E700 		sd	a4,16(a5)
  52:src/../h/../h/list.hpp ****         if (!head) { tail = 0; }
 229              		.loc 3 52 9
 230 0100 63040704 		beqz	a4,.L24
 231              	.L14:
  53:src/../h/../h/list.hpp **** 
  54:src/../h/../h/list.hpp ****         T *ret = elem->data;
 232              		.loc 3 54 12
 233 0104 83340500 		ld	s1,0(a0)
 234              	.LVL21:
  55:src/../h/../h/list.hpp ****         delete elem;
 235              		.loc 3 55 9
 236 0108 97000000 		call	_ZdlPv@plt
 236      E7800000 
 237              	.LVL22:
 238              	.LBE57:
 239              	.LBE59:
  23:src/_sem.cpp  ****             cur->setBlock(false);
 240              		.loc 1 23 9
 241 0110 63880404 		beqz	s1,.L18
  24:src/_sem.cpp  ****             Scheduler::put(cur);
 242              		.loc 1 24 13 is_stmt 1
  24:src/_sem.cpp  ****             Scheduler::put(cur);
 243              		.loc 1 24 26 is_stmt 0
 244 0114 93050000 		li	a1,0
 245 0118 13850400 		mv	a0,s1
 246 011c 97000000 		call	_ZN7_thread8setBlockEb@plt
 246      E7800000 
 247              	.LVL23:
  25:src/_sem.cpp  ****         }
 248              		.loc 1 25 13 is_stmt 1
  25:src/_sem.cpp  ****         }
 249              		.loc 1 25 27 is_stmt 0
 250 0124 13850400 		mv	a0,s1
 251 0128 97000000 		call	_ZN9Scheduler3putEP7_thread@plt
 251      E7800000 
 252              	.LVL24:
 253              	.LBE61:
 254              	.LBE64:
 255              		.loc 1 28 12
 256 0130 13050000 		li	a0,0
 257              	.L13:
 258              	.LVL25:
  29:src/_sem.cpp  **** }
 259              		.loc 1 29 1
 260 0134 83308101 		ld	ra,24(sp)
GAS LISTING /tmp/ccY2fCPR.s 			page 8


 261              		.cfi_remember_state
 262              		.cfi_restore 1
 263 0138 03340101 		ld	s0,16(sp)
 264              		.cfi_restore 8
 265              		.cfi_def_cfa 2, 32
 266 013c 83348100 		ld	s1,8(sp)
 267              		.cfi_restore 9
 268 0140 13010102 		addi	sp,sp,32
 269              		.cfi_def_cfa_offset 0
 270 0144 67800000 		jr	ra
 271              	.LVL26:
 272              	.L24:
 273              		.cfi_restore_state
 274              	.LBB65:
 275              	.LBB62:
 276              	.LBB60:
 277              	.LBB58:
  52:src/../h/../h/list.hpp **** 
 278              		.loc 3 52 22
 279 0148 23BC0700 		sd	zero,24(a5)
 280 014c 6FF09FFB 		j	.L14
 281              	.LVL27:
 282              	.L15:
 283              		.cfi_def_cfa_register 2
 284              		.cfi_restore 1
 285              		.cfi_restore 8
 286              		.cfi_restore 9
 287              	.LBE58:
 288              	.LBE60:
 289              	.LBE62:
 290              	.LBE65:
  21:src/_sem.cpp  ****     if(++val <= 0){
 291              		.loc 1 21 29
 292 0150 1305F0FF 		li	a0,-1
 293              	.LVL28:
 294 0154 67800000 		ret
 295              	.LVL29:
 296              	.L17:
  28:src/_sem.cpp  **** }
 297              		.loc 1 28 12
 298 0158 13050000 		li	a0,0
 299              	.LVL30:
 300              		.loc 1 29 1
 301 015c 67800000 		ret
 302              	.LVL31:
 303              	.L18:
 304              		.cfi_def_cfa_register 8
 305              		.cfi_offset 1, -8
 306              		.cfi_offset 8, -16
 307              		.cfi_offset 9, -24
  28:src/_sem.cpp  **** }
 308              		.loc 1 28 12
 309 0160 13050000 		li	a0,0
 310 0164 6FF01FFD 		j	.L13
 311              		.cfi_endproc
 312              	.LFE26:
 314              		.align	2
GAS LISTING /tmp/ccY2fCPR.s 			page 9


 315              		.globl	_ZN4_sem15createSemaphoreEj
 317              	_ZN4_sem15createSemaphoreEj:
 318              	.LFB28:
  30:src/_sem.cpp  **** 
  31:src/_sem.cpp  **** int _sem::close() {
  32:src/_sem.cpp  ****     setClosed(true);
  33:src/_sem.cpp  ****     setWaitStatus(-1);
  34:src/_sem.cpp  ****     while(_thread* cur = blocked.removeFirst()){
  35:src/_sem.cpp  ****         cur->setBlock(false);
  36:src/_sem.cpp  ****         Scheduler::put(cur);
  37:src/_sem.cpp  ****     }
  38:src/_sem.cpp  **** 
  39:src/_sem.cpp  ****     return 0;
  40:src/_sem.cpp  **** }
  41:src/_sem.cpp  **** 
  42:src/_sem.cpp  **** _sem* _sem::createSemaphore(uint32 init) {
 319              		.loc 1 42 42 is_stmt 1
 320              		.cfi_startproc
 321              	.LVL32:
 322 0168 130101FE 		addi	sp,sp,-32
 323              		.cfi_def_cfa_offset 32
 324 016c 233C1100 		sd	ra,24(sp)
 325 0170 23388100 		sd	s0,16(sp)
 326 0174 23349100 		sd	s1,8(sp)
 327              		.cfi_offset 1, -8
 328              		.cfi_offset 8, -16
 329              		.cfi_offset 9, -24
 330 0178 13040102 		addi	s0,sp,32
 331              		.cfi_def_cfa 8, 0
 332 017c 93040500 		mv	s1,a0
  43:src/_sem.cpp  ****     _sem* newSemaphore = new _sem(init);
 333              		.loc 1 43 5
 334              		.loc 1 43 39 is_stmt 0
 335 0180 13050002 		li	a0,32
 336              	.LVL33:
 337 0184 97000000 		call	_Znwm@plt
 337      E7800000 
 338              	.LVL34:
 339              	.LBB66:
 340              	.LBB67:
  20:src/../h/_sem.hpp ****     static _sem* createSemaphore(uint32 init);
 341              		.loc 2 20 67
 342 018c 23209500 		sw	s1,0(a0)
 343 0190 23220500 		sw	zero,4(a0)
 344 0194 23040500 		sb	zero,8(a0)
 345              	.LVL35:
 346              	.LBB68:
 347              	.LBB69:
  20:src/../h/../h/list.hpp **** 
 348              		.loc 3 20 29
 349 0198 23380500 		sd	zero,16(a0)
 350 019c 233C0500 		sd	zero,24(a0)
 351              	.LVL36:
 352              	.LBE69:
 353              	.LBE68:
 354              	.LBE67:
 355              	.LBE66:
GAS LISTING /tmp/ccY2fCPR.s 			page 10


  44:src/_sem.cpp  ****     return newSemaphore;
 356              		.loc 1 44 5 is_stmt 1
  45:src/_sem.cpp  **** }
 357              		.loc 1 45 1 is_stmt 0
 358 01a0 83308101 		ld	ra,24(sp)
 359              		.cfi_restore 1
 360 01a4 03340101 		ld	s0,16(sp)
 361              		.cfi_restore 8
 362              		.cfi_def_cfa 2, 32
 363 01a8 83348100 		ld	s1,8(sp)
 364              		.cfi_restore 9
 365 01ac 13010102 		addi	sp,sp,32
 366              		.cfi_def_cfa_offset 0
 367 01b0 67800000 		jr	ra
 368              		.cfi_endproc
 369              	.LFE28:
 371              		.align	2
 372              		.globl	_ZN4_sem9setClosedEb
 374              	_ZN4_sem9setClosedEb:
 375              	.LFB29:
  46:src/_sem.cpp  **** 
  47:src/_sem.cpp  **** void _sem::setClosed(bool b) {
 376              		.loc 1 47 30 is_stmt 1
 377              		.cfi_startproc
 378              	.LVL37:
 379 01b4 130101FF 		addi	sp,sp,-16
 380              		.cfi_def_cfa_offset 16
 381 01b8 23348100 		sd	s0,8(sp)
 382              		.cfi_offset 8, -8
 383 01bc 13040101 		addi	s0,sp,16
 384              		.cfi_def_cfa 8, 0
  48:src/_sem.cpp  ****     closed = b;
 385              		.loc 1 48 5
 386              		.loc 1 48 12 is_stmt 0
 387 01c0 2304B500 		sb	a1,8(a0)
  49:src/_sem.cpp  **** }
 388              		.loc 1 49 1
 389 01c4 03348100 		ld	s0,8(sp)
 390              		.cfi_restore 8
 391              		.cfi_def_cfa 2, 16
 392 01c8 13010101 		addi	sp,sp,16
 393              		.cfi_def_cfa_offset 0
 394 01cc 67800000 		jr	ra
 395              		.cfi_endproc
 396              	.LFE29:
 398              		.align	2
 399              		.globl	_ZN4_sem5closeEv
 401              	_ZN4_sem5closeEv:
 402              	.LFB27:
  31:src/_sem.cpp  ****     setClosed(true);
 403              		.loc 1 31 19 is_stmt 1
 404              		.cfi_startproc
 405              	.LVL38:
 406 01d0 130101FE 		addi	sp,sp,-32
 407              		.cfi_def_cfa_offset 32
 408 01d4 233C1100 		sd	ra,24(sp)
 409 01d8 23388100 		sd	s0,16(sp)
GAS LISTING /tmp/ccY2fCPR.s 			page 11


 410 01dc 23349100 		sd	s1,8(sp)
 411 01e0 23302101 		sd	s2,0(sp)
 412              		.cfi_offset 1, -8
 413              		.cfi_offset 8, -16
 414              		.cfi_offset 9, -24
 415              		.cfi_offset 18, -32
 416 01e4 13040102 		addi	s0,sp,32
 417              		.cfi_def_cfa 8, 0
 418 01e8 13090500 		mv	s2,a0
  32:src/_sem.cpp  ****     setWaitStatus(-1);
 419              		.loc 1 32 5
  32:src/_sem.cpp  ****     setWaitStatus(-1);
 420              		.loc 1 32 14 is_stmt 0
 421 01ec 93051000 		li	a1,1
 422 01f0 97000000 		call	_ZN4_sem9setClosedEb
 422      E7800000 
 423              	.LVL39:
  33:src/_sem.cpp  ****     while(_thread* cur = blocked.removeFirst()){
 424              		.loc 1 33 5 is_stmt 1
 425              	.LBB70:
 426              	.LBB71:
  28:src/../h/_sem.hpp ****     int getWaitStatus() const { return waitStatus;}
 427              		.loc 2 28 33
  28:src/../h/_sem.hpp ****     int getWaitStatus() const { return waitStatus;}
 428              		.loc 2 28 44 is_stmt 0
 429 01f8 9307F0FF 		li	a5,-1
 430 01fc 2322F900 		sw	a5,4(s2)
  28:src/../h/_sem.hpp ****     int getWaitStatus() const { return waitStatus;}
 431              		.loc 2 28 48
 432 0200 6F004003 		j	.L32
 433              	.LVL40:
 434              	.L34:
 435              	.LBE71:
 436              	.LBE70:
 437              	.LBB72:
 438              	.LBB73:
 439              	.LBB74:
  52:src/../h/../h/list.hpp **** 
 440              		.loc 3 52 22
 441 0204 233C0900 		sd	zero,24(s2)
 442              	.L31:
  54:src/../h/../h/list.hpp ****         delete elem;
 443              		.loc 3 54 12
 444 0208 83340500 		ld	s1,0(a0)
 445              	.LVL41:
 446              		.loc 3 55 9
 447 020c 97000000 		call	_ZdlPv@plt
 447      E7800000 
 448              	.LVL42:
 449              	.LBE74:
 450              	.LBE73:
  34:src/_sem.cpp  ****         cur->setBlock(false);
 451              		.loc 1 34 46
 452 0214 638C0402 		beqz	s1,.L30
  35:src/_sem.cpp  ****         Scheduler::put(cur);
 453              		.loc 1 35 9 is_stmt 1
  35:src/_sem.cpp  ****         Scheduler::put(cur);
GAS LISTING /tmp/ccY2fCPR.s 			page 12


 454              		.loc 1 35 22 is_stmt 0
 455 0218 93050000 		li	a1,0
 456 021c 13850400 		mv	a0,s1
 457 0220 97000000 		call	_ZN7_thread8setBlockEb@plt
 457      E7800000 
 458              	.LVL43:
  36:src/_sem.cpp  ****     }
 459              		.loc 1 36 9 is_stmt 1
  36:src/_sem.cpp  ****     }
 460              		.loc 1 36 23 is_stmt 0
 461 0228 13850400 		mv	a0,s1
 462 022c 97000000 		call	_ZN9Scheduler3putEP7_thread@plt
 462      E7800000 
 463              	.LVL44:
 464              	.LBE72:
  34:src/_sem.cpp  ****         cur->setBlock(false);
 465              		.loc 1 34 5 is_stmt 1
 466              	.L32:
  34:src/_sem.cpp  ****         cur->setBlock(false);
 467              		.loc 1 34 5
 468              	.LBB77:
 469              	.LBB76:
 470              	.LBB75:
  48:src/../h/../h/list.hpp **** 
 471              		.loc 3 48 14 is_stmt 0
 472 0234 03350901 		ld	a0,16(s2)
  48:src/../h/../h/list.hpp **** 
 473              		.loc 3 48 9
 474 0238 630A0500 		beqz	a0,.L30
 475              	.LVL45:
  51:src/../h/../h/list.hpp ****         if (!head) { tail = 0; }
 476              		.loc 3 51 22
 477 023c 83378500 		ld	a5,8(a0)
  51:src/../h/../h/list.hpp ****         if (!head) { tail = 0; }
 478              		.loc 3 51 9
 479 0240 2338F900 		sd	a5,16(s2)
  52:src/../h/../h/list.hpp **** 
 480              		.loc 3 52 9
 481 0244 E39207FC 		bnez	a5,.L31
 482 0248 6FF0DFFB 		j	.L34
 483              	.LVL46:
 484              	.L30:
 485              	.LBE75:
 486              	.LBE76:
 487              	.LBE77:
  39:src/_sem.cpp  **** }
 488              		.loc 1 39 5 is_stmt 1
  40:src/_sem.cpp  **** 
 489              		.loc 1 40 1 is_stmt 0
 490 024c 13050000 		li	a0,0
 491 0250 83308101 		ld	ra,24(sp)
 492              		.cfi_restore 1
 493 0254 03340101 		ld	s0,16(sp)
 494              		.cfi_restore 8
 495              		.cfi_def_cfa 2, 32
 496 0258 83348100 		ld	s1,8(sp)
 497              		.cfi_restore 9
GAS LISTING /tmp/ccY2fCPR.s 			page 13


 498 025c 03390100 		ld	s2,0(sp)
 499              		.cfi_restore 18
 500              	.LVL47:
 501 0260 13010102 		addi	sp,sp,32
 502              		.cfi_def_cfa_offset 0
 503 0264 67800000 		jr	ra
 504              		.cfi_endproc
 505              	.LFE27:
 507              	.Letext0:
 508              		.file 4 "src/../h/../h/../lib/hw.h"
 509              		.file 5 "src/../h/../h/scheduler.hpp"
 510              		.file 6 "src/../h/../h/_thread.hpp"
 511              		.file 7 "src/../h/../h/syscall_c.hpp"
GAS LISTING /tmp/ccY2fCPR.s 			page 14


DEFINED SYMBOLS
                            *ABS*:0000000000000000 _sem.cpp
     /tmp/ccY2fCPR.s:9      .text:0000000000000000 _ZN4_sem4waitEv
     /tmp/ccY2fCPR.s:13     .text:0000000000000000 .L0 
     /tmp/ccY2fCPR.s:15     .text:0000000000000000 .L0 
     /tmp/ccY2fCPR.s:19     .text:0000000000000000 .L0 
     /tmp/ccY2fCPR.s:20     .text:0000000000000000 .L0 
     /tmp/ccY2fCPR.s:21     .text:0000000000000000 .L0 
     /tmp/ccY2fCPR.s:26     .text:0000000000000004 .L0 
     /tmp/ccY2fCPR.s:28     .text:0000000000000008 .L0 
     /tmp/ccY2fCPR.s:29     .text:000000000000000c .L0 
     /tmp/ccY2fCPR.s:34     .text:000000000000001c .L0 
     /tmp/ccY2fCPR.s:35     .text:000000000000001c .L0 
     /tmp/ccY2fCPR.s:36     .text:000000000000001c .L0 
     /tmp/ccY2fCPR.s:37     .text:000000000000001c .L0 
     /tmp/ccY2fCPR.s:39     .text:0000000000000020 .L0 
     /tmp/ccY2fCPR.s:43     .text:0000000000000024 .L0 
     /tmp/ccY2fCPR.s:44     .text:0000000000000024 .L0 
     /tmp/ccY2fCPR.s:46     .text:0000000000000028 .L0 
     /tmp/ccY2fCPR.s:48     .text:000000000000002c .L0 
     /tmp/ccY2fCPR.s:50     .text:0000000000000030 .L0 
     /tmp/ccY2fCPR.s:58     .text:0000000000000038 .L0 
     /tmp/ccY2fCPR.s:59     .text:0000000000000038 .L0 
     /tmp/ccY2fCPR.s:60     .text:0000000000000038 .L0 
     /tmp/ccY2fCPR.s:65     .text:000000000000003c .L0 
     /tmp/ccY2fCPR.s:66     .text:0000000000000040 .L0 
     /tmp/ccY2fCPR.s:67     .text:0000000000000040 .L0 
     /tmp/ccY2fCPR.s:69     .text:0000000000000044 .L0 
     /tmp/ccY2fCPR.s:70     .text:0000000000000044 .L0 
     /tmp/ccY2fCPR.s:72     .text:0000000000000048 .L0 
     /tmp/ccY2fCPR.s:75     .text:000000000000004c .L0 
     /tmp/ccY2fCPR.s:77     .text:0000000000000050 .L0 
     /tmp/ccY2fCPR.s:81     .text:0000000000000054 .L0 
     /tmp/ccY2fCPR.s:85     .text:0000000000000054 .L0 
     /tmp/ccY2fCPR.s:86     .text:0000000000000054 .L0 
     /tmp/ccY2fCPR.s:90     .text:0000000000000060 .L0 
     /tmp/ccY2fCPR.s:91     .text:0000000000000060 .L0 
     /tmp/ccY2fCPR.s:99     .text:0000000000000070 .L0 
     /tmp/ccY2fCPR.s:100    .text:0000000000000070 .L0 
     /tmp/ccY2fCPR.s:106    .text:000000000000007c .L0 
     /tmp/ccY2fCPR.s:112    .text:0000000000000084 .L0 
     /tmp/ccY2fCPR.s:114    .text:0000000000000088 .L0 
     /tmp/ccY2fCPR.s:116    .text:000000000000008c .L0 
     /tmp/ccY2fCPR.s:118    .text:0000000000000090 .L0 
     /tmp/ccY2fCPR.s:124    .text:0000000000000094 .L0 
     /tmp/ccY2fCPR.s:125    .text:0000000000000094 .L0 
     /tmp/ccY2fCPR.s:135    .text:00000000000000a0 .L0 
     /tmp/ccY2fCPR.s:140    .text:00000000000000ac .L0 
     /tmp/ccY2fCPR.s:141    .text:00000000000000ac .L0 
     /tmp/ccY2fCPR.s:142    .text:00000000000000ac .L0 
     /tmp/ccY2fCPR.s:143    .text:00000000000000ac .L0 
     /tmp/ccY2fCPR.s:144    .text:00000000000000ac .L0 
     /tmp/ccY2fCPR.s:150    .text:00000000000000ac .L0 
     /tmp/ccY2fCPR.s:153    .text:00000000000000b0 .L0 
     /tmp/ccY2fCPR.s:154    .text:00000000000000b4 .L0 
     /tmp/ccY2fCPR.s:160    .text:00000000000000b4 _ZN4_sem6signalEv
     /tmp/ccY2fCPR.s:163    .text:00000000000000b4 .L0 
GAS LISTING /tmp/ccY2fCPR.s 			page 15


     /tmp/ccY2fCPR.s:165    .text:00000000000000b4 .L0 
     /tmp/ccY2fCPR.s:168    .text:00000000000000b4 .L0 
     /tmp/ccY2fCPR.s:169    .text:00000000000000b4 .L0 
     /tmp/ccY2fCPR.s:170    .text:00000000000000b4 .L0 
     /tmp/ccY2fCPR.s:175    .text:00000000000000b8 .L0 
     /tmp/ccY2fCPR.s:179    .text:00000000000000c0 .L0 
     /tmp/ccY2fCPR.s:180    .text:00000000000000c0 .L0 
     /tmp/ccY2fCPR.s:182    .text:00000000000000c4 .L0 
     /tmp/ccY2fCPR.s:185    .text:00000000000000cc .L0 
     /tmp/ccY2fCPR.s:187    .text:00000000000000d0 .L0 
     /tmp/ccY2fCPR.s:190    .text:00000000000000d4 .L0 
     /tmp/ccY2fCPR.s:200    .text:00000000000000dc .L0 
     /tmp/ccY2fCPR.s:201    .text:00000000000000dc .L0 
     /tmp/ccY2fCPR.s:204    .text:00000000000000e0 .L0 
     /tmp/ccY2fCPR.s:210    .text:00000000000000e4 .L0 
     /tmp/ccY2fCPR.s:211    .text:00000000000000e8 .L0 
     /tmp/ccY2fCPR.s:215    .text:00000000000000f4 .L0 
     /tmp/ccY2fCPR.s:216    .text:00000000000000f4 .L0 
     /tmp/ccY2fCPR.s:217    .text:00000000000000f4 .L0 
     /tmp/ccY2fCPR.s:219    .text:00000000000000f8 .L0 
     /tmp/ccY2fCPR.s:226    .text:00000000000000f8 .L0 
     /tmp/ccY2fCPR.s:228    .text:00000000000000fc .L0 
     /tmp/ccY2fCPR.s:230    .text:0000000000000100 .L0 
     /tmp/ccY2fCPR.s:233    .text:0000000000000104 .L0 
     /tmp/ccY2fCPR.s:236    .text:0000000000000108 .L0 
     /tmp/ccY2fCPR.s:241    .text:0000000000000110 .L0 
     /tmp/ccY2fCPR.s:243    .text:0000000000000114 .L0 
     /tmp/ccY2fCPR.s:244    .text:0000000000000114 .L0 
     /tmp/ccY2fCPR.s:249    .text:0000000000000124 .L0 
     /tmp/ccY2fCPR.s:250    .text:0000000000000124 .L0 
     /tmp/ccY2fCPR.s:256    .text:0000000000000130 .L0 
     /tmp/ccY2fCPR.s:260    .text:0000000000000134 .L0 
     /tmp/ccY2fCPR.s:261    .text:0000000000000138 .L0 
     /tmp/ccY2fCPR.s:262    .text:0000000000000138 .L0 
     /tmp/ccY2fCPR.s:264    .text:000000000000013c .L0 
     /tmp/ccY2fCPR.s:265    .text:000000000000013c .L0 
     /tmp/ccY2fCPR.s:267    .text:0000000000000140 .L0 
     /tmp/ccY2fCPR.s:269    .text:0000000000000144 .L0 
     /tmp/ccY2fCPR.s:273    .text:0000000000000148 .L0 
     /tmp/ccY2fCPR.s:279    .text:0000000000000148 .L0 
     /tmp/ccY2fCPR.s:283    .text:0000000000000150 .L0 
     /tmp/ccY2fCPR.s:284    .text:0000000000000150 .L0 
     /tmp/ccY2fCPR.s:285    .text:0000000000000150 .L0 
     /tmp/ccY2fCPR.s:286    .text:0000000000000150 .L0 
     /tmp/ccY2fCPR.s:292    .text:0000000000000150 .L0 
     /tmp/ccY2fCPR.s:298    .text:0000000000000158 .L0 
     /tmp/ccY2fCPR.s:301    .text:000000000000015c .L0 
     /tmp/ccY2fCPR.s:304    .text:0000000000000160 .L0 
     /tmp/ccY2fCPR.s:305    .text:0000000000000160 .L0 
     /tmp/ccY2fCPR.s:306    .text:0000000000000160 .L0 
     /tmp/ccY2fCPR.s:307    .text:0000000000000160 .L0 
     /tmp/ccY2fCPR.s:309    .text:0000000000000160 .L0 
     /tmp/ccY2fCPR.s:311    .text:0000000000000168 .L0 
     /tmp/ccY2fCPR.s:317    .text:0000000000000168 _ZN4_sem15createSemaphoreEj
     /tmp/ccY2fCPR.s:320    .text:0000000000000168 .L0 
     /tmp/ccY2fCPR.s:322    .text:0000000000000168 .L0 
     /tmp/ccY2fCPR.s:323    .text:000000000000016c .L0 
GAS LISTING /tmp/ccY2fCPR.s 			page 16


     /tmp/ccY2fCPR.s:327    .text:0000000000000178 .L0 
     /tmp/ccY2fCPR.s:328    .text:0000000000000178 .L0 
     /tmp/ccY2fCPR.s:329    .text:0000000000000178 .L0 
     /tmp/ccY2fCPR.s:331    .text:000000000000017c .L0 
     /tmp/ccY2fCPR.s:334    .text:0000000000000180 .L0 
     /tmp/ccY2fCPR.s:335    .text:0000000000000180 .L0 
     /tmp/ccY2fCPR.s:342    .text:000000000000018c .L0 
     /tmp/ccY2fCPR.s:349    .text:0000000000000198 .L0 
     /tmp/ccY2fCPR.s:357    .text:00000000000001a0 .L0 
     /tmp/ccY2fCPR.s:358    .text:00000000000001a0 .L0 
     /tmp/ccY2fCPR.s:359    .text:00000000000001a4 .L0 
     /tmp/ccY2fCPR.s:361    .text:00000000000001a8 .L0 
     /tmp/ccY2fCPR.s:362    .text:00000000000001a8 .L0 
     /tmp/ccY2fCPR.s:364    .text:00000000000001ac .L0 
     /tmp/ccY2fCPR.s:366    .text:00000000000001b0 .L0 
     /tmp/ccY2fCPR.s:368    .text:00000000000001b4 .L0 
     /tmp/ccY2fCPR.s:374    .text:00000000000001b4 _ZN4_sem9setClosedEb
     /tmp/ccY2fCPR.s:377    .text:00000000000001b4 .L0 
     /tmp/ccY2fCPR.s:379    .text:00000000000001b4 .L0 
     /tmp/ccY2fCPR.s:380    .text:00000000000001b8 .L0 
     /tmp/ccY2fCPR.s:382    .text:00000000000001bc .L0 
     /tmp/ccY2fCPR.s:384    .text:00000000000001c0 .L0 
     /tmp/ccY2fCPR.s:386    .text:00000000000001c0 .L0 
     /tmp/ccY2fCPR.s:387    .text:00000000000001c0 .L0 
     /tmp/ccY2fCPR.s:389    .text:00000000000001c4 .L0 
     /tmp/ccY2fCPR.s:390    .text:00000000000001c8 .L0 
     /tmp/ccY2fCPR.s:391    .text:00000000000001c8 .L0 
     /tmp/ccY2fCPR.s:393    .text:00000000000001cc .L0 
     /tmp/ccY2fCPR.s:395    .text:00000000000001d0 .L0 
     /tmp/ccY2fCPR.s:401    .text:00000000000001d0 _ZN4_sem5closeEv
     /tmp/ccY2fCPR.s:404    .text:00000000000001d0 .L0 
     /tmp/ccY2fCPR.s:406    .text:00000000000001d0 .L0 
     /tmp/ccY2fCPR.s:407    .text:00000000000001d4 .L0 
     /tmp/ccY2fCPR.s:412    .text:00000000000001e4 .L0 
     /tmp/ccY2fCPR.s:413    .text:00000000000001e4 .L0 
     /tmp/ccY2fCPR.s:414    .text:00000000000001e4 .L0 
     /tmp/ccY2fCPR.s:415    .text:00000000000001e4 .L0 
     /tmp/ccY2fCPR.s:417    .text:00000000000001e8 .L0 
     /tmp/ccY2fCPR.s:420    .text:00000000000001ec .L0 
     /tmp/ccY2fCPR.s:421    .text:00000000000001ec .L0 
     /tmp/ccY2fCPR.s:427    .text:00000000000001f8 .L0 
     /tmp/ccY2fCPR.s:428    .text:00000000000001f8 .L0 
     /tmp/ccY2fCPR.s:429    .text:00000000000001f8 .L0 
     /tmp/ccY2fCPR.s:432    .text:0000000000000200 .L0 
     /tmp/ccY2fCPR.s:441    .text:0000000000000204 .L0 
     /tmp/ccY2fCPR.s:444    .text:0000000000000208 .L0 
     /tmp/ccY2fCPR.s:447    .text:000000000000020c .L0 
     /tmp/ccY2fCPR.s:452    .text:0000000000000214 .L0 
     /tmp/ccY2fCPR.s:454    .text:0000000000000218 .L0 
     /tmp/ccY2fCPR.s:455    .text:0000000000000218 .L0 
     /tmp/ccY2fCPR.s:460    .text:0000000000000228 .L0 
     /tmp/ccY2fCPR.s:461    .text:0000000000000228 .L0 
     /tmp/ccY2fCPR.s:467    .text:0000000000000234 .L0 
     /tmp/ccY2fCPR.s:471    .text:0000000000000234 .L0 
     /tmp/ccY2fCPR.s:472    .text:0000000000000234 .L0 
     /tmp/ccY2fCPR.s:474    .text:0000000000000238 .L0 
     /tmp/ccY2fCPR.s:477    .text:000000000000023c .L0 
GAS LISTING /tmp/ccY2fCPR.s 			page 17


     /tmp/ccY2fCPR.s:479    .text:0000000000000240 .L0 
     /tmp/ccY2fCPR.s:481    .text:0000000000000244 .L0 
     /tmp/ccY2fCPR.s:489    .text:000000000000024c .L0 
     /tmp/ccY2fCPR.s:490    .text:000000000000024c .L0 
     /tmp/ccY2fCPR.s:492    .text:0000000000000254 .L0 
     /tmp/ccY2fCPR.s:494    .text:0000000000000258 .L0 
     /tmp/ccY2fCPR.s:495    .text:0000000000000258 .L0 
     /tmp/ccY2fCPR.s:497    .text:000000000000025c .L0 
     /tmp/ccY2fCPR.s:499    .text:0000000000000260 .L0 
     /tmp/ccY2fCPR.s:502    .text:0000000000000264 .L0 
     /tmp/ccY2fCPR.s:504    .text:0000000000000268 .L0 
     /tmp/ccY2fCPR.s:512    .text:0000000000000268 .L0 
     /tmp/ccY2fCPR.s:86     .text:0000000000000054 .L0 
     /tmp/ccY2fCPR.s:139    .text:00000000000000ac .L6
     /tmp/ccY2fCPR.s:80     .text:0000000000000054 .L11
     /tmp/ccY2fCPR.s:130    .text:00000000000000a0 .L4
     /tmp/ccY2fCPR.s:53     .text:0000000000000038 .L3
     /tmp/ccY2fCPR.s:119    .text:0000000000000094 .L5
     /tmp/ccY2fCPR.s:282    .text:0000000000000150 .L15
     /tmp/ccY2fCPR.s:194    .text:00000000000000dc .L23
     /tmp/ccY2fCPR.s:296    .text:0000000000000158 .L17
     /tmp/ccY2fCPR.s:272    .text:0000000000000148 .L24
     /tmp/ccY2fCPR.s:303    .text:0000000000000160 .L18
     /tmp/ccY2fCPR.s:231    .text:0000000000000104 .L14
     /tmp/ccY2fCPR.s:257    .text:0000000000000134 .L13
     /tmp/ccY2fCPR.s:466    .text:0000000000000234 .L32
     /tmp/ccY2fCPR.s:484    .text:000000000000024c .L30
     /tmp/ccY2fCPR.s:442    .text:0000000000000208 .L31
     /tmp/ccY2fCPR.s:434    .text:0000000000000204 .L34
     /tmp/ccY2fCPR.s:1903   .debug_abbrev:0000000000000000 .Ldebug_abbrev0
     /tmp/ccY2fCPR.s:3523   .debug_str:00000000000005d5 .LASF107
     /tmp/ccY2fCPR.s:3341   .debug_str:000000000000007e .LASF108
     /tmp/ccY2fCPR.s:3387   .debug_str:00000000000001ac .LASF109
     /tmp/ccY2fCPR.s:5      .text:0000000000000000 .Ltext0
     /tmp/ccY2fCPR.s:507    .text:0000000000000268 .Letext0
     /tmp/ccY2fCPR.s:3323   .debug_line:0000000000000000 .Ldebug_line0
     /tmp/ccY2fCPR.s:3455   .debug_str:00000000000003cd .LASF0
     /tmp/ccY2fCPR.s:3469   .debug_str:000000000000043b .LASF1
     /tmp/ccY2fCPR.s:3441   .debug_str:0000000000000371 .LASF2
     /tmp/ccY2fCPR.s:3505   .debug_str:0000000000000538 .LASF3
     /tmp/ccY2fCPR.s:3407   .debug_str:000000000000026d .LASF4
     /tmp/ccY2fCPR.s:3509   .debug_str:000000000000055b .LASF5
     /tmp/ccY2fCPR.s:3347   .debug_str:00000000000000ad .LASF6
     /tmp/ccY2fCPR.s:3471   .debug_str:000000000000044e .LASF7
     /tmp/ccY2fCPR.s:3453   .debug_str:00000000000003ba .LASF8
     /tmp/ccY2fCPR.s:3541   .debug_str:0000000000000728 .LASF9
     /tmp/ccY2fCPR.s:3395   .debug_str:0000000000000202 .LASF10
     /tmp/ccY2fCPR.s:3481   .debug_str:000000000000048d .LASF11
     /tmp/ccY2fCPR.s:3527   .debug_str:00000000000006b4 .LASF12
     /tmp/ccY2fCPR.s:3349   .debug_str:00000000000000b4 .LASF13
     /tmp/ccY2fCPR.s:3329   .debug_str:0000000000000023 .LASF14
     /tmp/ccY2fCPR.s:3361   .debug_str:00000000000000fb .LASF15
     /tmp/ccY2fCPR.s:3499   .debug_str:00000000000004fb .LASF16
     /tmp/ccY2fCPR.s:3369   .debug_str:000000000000012b .LASF17
     /tmp/ccY2fCPR.s:3479   .debug_str:0000000000000483 .LASF18
     /tmp/ccY2fCPR.s:3389   .debug_str:00000000000001ca .LASF110
     /tmp/ccY2fCPR.s:3401   .debug_str:0000000000000236 .LASF111
GAS LISTING /tmp/ccY2fCPR.s 			page 18


     /tmp/ccY2fCPR.s:3537   .debug_str:00000000000006f5 .LASF112
     /tmp/ccY2fCPR.s:3411   .debug_str:000000000000027d .LASF19
     /tmp/ccY2fCPR.s:3529   .debug_str:00000000000006c3 .LASF22
     /tmp/ccY2fCPR.s:3495   .debug_str:00000000000004e6 .LASF20
     /tmp/ccY2fCPR.s:3563   .debug_str:00000000000007f2 .LASF21
     /tmp/ccY2fCPR.s:3333   .debug_str:0000000000000040 .LASF67
     /tmp/ccY2fCPR.s:3373   .debug_str:0000000000000147 .LASF23
     /tmp/ccY2fCPR.s:3433   .debug_str:000000000000032f .LASF24
     /tmp/ccY2fCPR.s:3405   .debug_str:0000000000000268 .LASF25
     /tmp/ccY2fCPR.s:3459   .debug_str:00000000000003e3 .LASF27
     /tmp/ccY2fCPR.s:3435   .debug_str:0000000000000334 .LASF32
     /tmp/ccY2fCPR.s:3449   .debug_str:00000000000003a2 .LASF113
     /tmp/ccY2fCPR.s:3525   .debug_str:0000000000000699 .LASF114
     /tmp/ccY2fCPR.s:3521   .debug_str:00000000000005cc .LASF26
     /tmp/ccY2fCPR.s:3565   .debug_str:00000000000007f7 .LASF28
     /tmp/ccY2fCPR.s:3393   .debug_str:00000000000001fa .LASF29
     /tmp/ccY2fCPR.s:3461   .debug_str:00000000000003fa .LASF30
     /tmp/ccY2fCPR.s:3445   .debug_str:000000000000038b .LASF31
     /tmp/ccY2fCPR.s:3549   .debug_str:000000000000076b .LASF33
     /tmp/ccY2fCPR.s:3357   .debug_str:00000000000000e7 .LASF34
     /tmp/ccY2fCPR.s:3391   .debug_str:00000000000001db .LASF35
     /tmp/ccY2fCPR.s:3463   .debug_str:000000000000041a .LASF36
     /tmp/ccY2fCPR.s:3503   .debug_str:0000000000000517 .LASF37
     /tmp/ccY2fCPR.s:3419   .debug_str:00000000000002b7 .LASF38
     /tmp/ccY2fCPR.s:3403   .debug_str:000000000000024a .LASF39
     /tmp/ccY2fCPR.s:3345   .debug_str:00000000000000a5 .LASF40
     /tmp/ccY2fCPR.s:3339   .debug_str:0000000000000076 .LASF41
     /tmp/ccY2fCPR.s:3533   .debug_str:00000000000006da .LASF42
     /tmp/ccY2fCPR.s:3475   .debug_str:000000000000046c .LASF43
     /tmp/ccY2fCPR.s:3473   .debug_str:0000000000000461 .LASF44
     /tmp/ccY2fCPR.s:3437   .debug_str:000000000000034f .LASF45
     /tmp/ccY2fCPR.s:3443   .debug_str:000000000000037f .LASF46
     /tmp/ccY2fCPR.s:3327   .debug_str:0000000000000008 .LASF47
     /tmp/ccY2fCPR.s:3417   .debug_str:00000000000002aa .LASF48
     /tmp/ccY2fCPR.s:3553   .debug_str:000000000000079a .LASF49
     /tmp/ccY2fCPR.s:3493   .debug_str:00000000000004e1 .LASF115
     /tmp/ccY2fCPR.s:3501   .debug_str:0000000000000511 .LASF116
     /tmp/ccY2fCPR.s:3519   .debug_str:00000000000005b8 .LASF117
     /tmp/ccY2fCPR.s:3381   .debug_str:000000000000019a .LASF118
     /tmp/ccY2fCPR.s:3483   .debug_str:000000000000049c .LASF50
     /tmp/ccY2fCPR.s:3379   .debug_str:0000000000000180 .LASF119
     /tmp/ccY2fCPR.s:3335   .debug_str:0000000000000063 .LASF51
     /tmp/ccY2fCPR.s:3539   .debug_str:0000000000000711 .LASF52
     /tmp/ccY2fCPR.s:3359   .debug_str:00000000000000f1 .LASF53
     /tmp/ccY2fCPR.s:3423   .debug_str:00000000000002ce .LASF54
     /tmp/ccY2fCPR.s:3399   .debug_str:000000000000022d .LASF55
     /tmp/ccY2fCPR.s:3413   .debug_str:000000000000028b .LASF56
     /tmp/ccY2fCPR.s:3337   .debug_str:000000000000006c .LASF57
     /tmp/ccY2fCPR.s:3355   .debug_str:00000000000000ce .LASF58
     /tmp/ccY2fCPR.s:3543   .debug_str:0000000000000738 .LASF120
     /tmp/ccY2fCPR.s:3353   .debug_str:00000000000000c9 .LASF59
     /tmp/ccY2fCPR.s:3351   .debug_str:00000000000000c4 .LASF60
     /tmp/ccY2fCPR.s:3363   .debug_str:0000000000000107 .LASF61
     /tmp/ccY2fCPR.s:3415   .debug_str:00000000000002a2 .LASF62
     /tmp/ccY2fCPR.s:3409   .debug_str:0000000000000274 .LASF63
     /tmp/ccY2fCPR.s:3467   .debug_str:0000000000000433 .LASF64
     /tmp/ccY2fCPR.s:3325   .debug_str:0000000000000000 .LASF65
GAS LISTING /tmp/ccY2fCPR.s 			page 19


     /tmp/ccY2fCPR.s:3421   .debug_str:00000000000002c0 .LASF69
     /tmp/ccY2fCPR.s:3397   .debug_str:0000000000000210 .LASF71
     /tmp/ccY2fCPR.s:3367   .debug_str:000000000000011d .LASF66
     /tmp/ccY2fCPR.s:3429   .debug_str:00000000000002f6 .LASF68
     /tmp/ccY2fCPR.s:3457   .debug_str:00000000000003da .LASF70
     /tmp/ccY2fCPR.s:3517   .debug_str:00000000000005a1 .LASF72
     /tmp/ccY2fCPR.s:3385   .debug_str:00000000000001a7 .LASF73
     /tmp/ccY2fCPR.s:3555   .debug_str:00000000000007be .LASF74
     /tmp/ccY2fCPR.s:3515   .debug_str:0000000000000594 .LASF75
     /tmp/ccY2fCPR.s:3559   .debug_str:00000000000007d8 .LASF76
     /tmp/ccY2fCPR.s:3507   .debug_str:000000000000053f .LASF77
     /tmp/ccY2fCPR.s:3383   .debug_str:00000000000001a2 .LASF78
     /tmp/ccY2fCPR.s:3497   .debug_str:00000000000004eb .LASF79
     /tmp/ccY2fCPR.s:3477   .debug_str:000000000000047c .LASF80
     /tmp/ccY2fCPR.s:3535   .debug_str:00000000000006e3 .LASF81
     /tmp/ccY2fCPR.s:3547   .debug_str:0000000000000765 .LASF82
     /tmp/ccY2fCPR.s:3377   .debug_str:000000000000016f .LASF83
     /tmp/ccY2fCPR.s:3371   .debug_str:0000000000000141 .LASF84
     /tmp/ccY2fCPR.s:3531   .debug_str:00000000000006c8 .LASF85
     /tmp/ccY2fCPR.s:3451   .debug_str:00000000000003ac .LASF86
     /tmp/ccY2fCPR.s:3343   .debug_str:000000000000008b .LASF87
     /tmp/ccY2fCPR.s:3465   .debug_str:0000000000000425 .LASF88
     /tmp/ccY2fCPR.s:3485   .debug_str:00000000000004a7 .LASF89
     /tmp/ccY2fCPR.s:3561   .debug_str:00000000000007e8 .LASF90
     /tmp/ccY2fCPR.s:3557   .debug_str:00000000000007c3 .LASF91
     /tmp/ccY2fCPR.s:3425   .debug_str:00000000000002e7 .LASF92
     /tmp/ccY2fCPR.s:3545   .debug_str:0000000000000750 .LASF93
     /tmp/ccY2fCPR.s:3447   .debug_str:0000000000000397 .LASF94
     /tmp/ccY2fCPR.s:3439   .debug_str:000000000000036a .LASF95
     /tmp/ccY2fCPR.s:3489   .debug_str:00000000000004d7 .LASF96
     /tmp/ccY2fCPR.s:3375   .debug_str:000000000000014c .LASF98
     /tmp/ccY2fCPR.s:3491   .debug_str:00000000000004dc .LASF97
     /tmp/ccY2fCPR.s:3513   .debug_str:000000000000057d .LASF99
     /tmp/ccY2fCPR.s:375    .text:00000000000001b4 .LFB29
     /tmp/ccY2fCPR.s:396    .text:00000000000001d0 .LFE29
     /tmp/ccY2fCPR.s:318    .text:0000000000000168 .LFB28
     /tmp/ccY2fCPR.s:369    .text:00000000000001b4 .LFE28
     /tmp/ccY2fCPR.s:3567   .debug_str:0000000000000818 .LASF100
     /tmp/ccY2fCPR.s:2920   .debug_loc:0000000000000000 .LLST16
     /tmp/ccY2fCPR.s:3431   .debug_str:0000000000000322 .LASF101
     /tmp/ccY2fCPR.s:339    .text:000000000000018c .LBB66
     /tmp/ccY2fCPR.s:355    .text:00000000000001a0 .LBE66
     /tmp/ccY2fCPR.s:2934   .debug_loc:0000000000000039 .LLST17
     /tmp/ccY2fCPR.s:2941   .debug_loc:000000000000005c .LLST18
     /tmp/ccY2fCPR.s:346    .text:0000000000000198 .LBB68
     /tmp/ccY2fCPR.s:353    .text:00000000000001a0 .LBE68
     /tmp/ccY2fCPR.s:2948   .debug_loc:000000000000007f .LLST19
     /tmp/ccY2fCPR.s:338    .text:000000000000018c .LVL34
     /tmp/ccY2fCPR.s:402    .text:00000000000001d0 .LFB27
     /tmp/ccY2fCPR.s:505    .text:0000000000000268 .LFE27
     /tmp/ccY2fCPR.s:2957   .debug_loc:00000000000000a4 .LLST20
     /tmp/ccY2fCPR.s:3281   .debug_ranges:0000000000000000 .Ldebug_ranges0
     /tmp/ccY2fCPR.s:2975   .debug_loc:00000000000000f0 .LLST23
     /tmp/ccY2fCPR.s:438    .text:0000000000000204 .LBB73
     /tmp/ccY2fCPR.s:2982   .debug_loc:0000000000000113 .LLST24
     /tmp/ccY2fCPR.s:2997   .debug_loc:000000000000014d .LLST25
     /tmp/ccY2fCPR.s:3008   .debug_loc:0000000000000183 .LLST26
GAS LISTING /tmp/ccY2fCPR.s 			page 20


     /tmp/ccY2fCPR.s:448    .text:0000000000000214 .LVL42
     /tmp/ccY2fCPR.s:458    .text:0000000000000228 .LVL43
     /tmp/ccY2fCPR.s:463    .text:0000000000000234 .LVL44
     /tmp/ccY2fCPR.s:425    .text:00000000000001f8 .LBB70
     /tmp/ccY2fCPR.s:436    .text:0000000000000204 .LBE70
     /tmp/ccY2fCPR.s:3015   .debug_loc:00000000000001a6 .LLST21
     /tmp/ccY2fCPR.s:3024   .debug_loc:00000000000001cb .LLST22
     /tmp/ccY2fCPR.s:423    .text:00000000000001f8 .LVL39
     /tmp/ccY2fCPR.s:161    .text:00000000000000b4 .LFB26
     /tmp/ccY2fCPR.s:312    .text:0000000000000168 .LFE26
     /tmp/ccY2fCPR.s:3031   .debug_loc:00000000000001ee .LLST10
     /tmp/ccY2fCPR.s:3083   .debug_loc:00000000000002c5 .LLST12
     /tmp/ccY2fCPR.s:198    .text:00000000000000dc .LBB55
     /tmp/ccY2fCPR.s:3094   .debug_loc:00000000000002fb .LLST13
     /tmp/ccY2fCPR.s:3130   .debug_loc:0000000000000377 .LLST14
     /tmp/ccY2fCPR.s:3141   .debug_loc:00000000000003ad .LLST15
     /tmp/ccY2fCPR.s:237    .text:0000000000000110 .LVL22
     /tmp/ccY2fCPR.s:247    .text:0000000000000124 .LVL23
     /tmp/ccY2fCPR.s:252    .text:0000000000000130 .LVL24
     /tmp/ccY2fCPR.s:166    .text:00000000000000b4 .LBB51
     /tmp/ccY2fCPR.s:173    .text:00000000000000b8 .LBE51
     /tmp/ccY2fCPR.s:3148   .debug_loc:00000000000003d0 .LLST11
     /tmp/ccY2fCPR.s:10     .text:0000000000000000 .LFB25
     /tmp/ccY2fCPR.s:155    .text:00000000000000b4 .LFE25
     /tmp/ccY2fCPR.s:3155   .debug_loc:00000000000003f3 .LLST0
     /tmp/ccY2fCPR.s:3188   .debug_loc:000000000000047b .LLST2
     /tmp/ccY2fCPR.s:96     .text:0000000000000070 .LBB41
     /tmp/ccY2fCPR.s:3195   .debug_loc:000000000000049e .LLST3
     /tmp/ccY2fCPR.s:3206   .debug_loc:00000000000004d4 .LLST4
     /tmp/ccY2fCPR.s:3221   .debug_loc:000000000000050e .LLST5
     /tmp/ccY2fCPR.s:103    .text:000000000000007c .LBB43
     /tmp/ccY2fCPR.s:110    .text:0000000000000084 .LBE43
     /tmp/ccY2fCPR.s:3232   .debug_loc:0000000000000544 .LLST6
     /tmp/ccY2fCPR.s:3240   .debug_loc:0000000000000568 .LLST7
     /tmp/ccY2fCPR.s:3247   .debug_loc:000000000000058b .LLST8
     /tmp/ccY2fCPR.s:102    .text:000000000000007c .LVL8
     /tmp/ccY2fCPR.s:94     .text:0000000000000070 .LVL7
     /tmp/ccY2fCPR.s:126    .text:000000000000009c .LVL11
     /tmp/ccY2fCPR.s:16     .text:0000000000000000 .LBB37
     /tmp/ccY2fCPR.s:24     .text:0000000000000004 .LBE37
     /tmp/ccY2fCPR.s:3254   .debug_loc:00000000000005ae .LLST1
     /tmp/ccY2fCPR.s:56     .text:0000000000000038 .LBB48
     /tmp/ccY2fCPR.s:63     .text:000000000000003c .LBE48
     /tmp/ccY2fCPR.s:3261   .debug_loc:00000000000005d1 .LLST9
     /tmp/ccY2fCPR.s:3331   .debug_str:0000000000000033 .LASF102
     /tmp/ccY2fCPR.s:3427   .debug_str:00000000000002f0 .LASF103
     /tmp/ccY2fCPR.s:3551   .debug_str:000000000000078d .LASF105
     /tmp/ccY2fCPR.s:3569   .debug_str:000000000000081d .LASF104
     /tmp/ccY2fCPR.s:3511   .debug_str:000000000000056d .LASF106
     /tmp/ccY2fCPR.s:3487   .debug_str:00000000000004c2 .LASF121
     /tmp/ccY2fCPR.s:3365   .debug_str:000000000000010d .LASF122
     /tmp/ccY2fCPR.s:321    .text:0000000000000168 .LVL32
     /tmp/ccY2fCPR.s:336    .text:0000000000000184 .LVL33
     /tmp/ccY2fCPR.s:351    .text:00000000000001a0 .LVL36
     /tmp/ccY2fCPR.s:345    .text:0000000000000198 .LVL35
     /tmp/ccY2fCPR.s:405    .text:00000000000001d0 .LVL38
     /tmp/ccY2fCPR.s:500    .text:0000000000000260 .LVL47
GAS LISTING /tmp/ccY2fCPR.s 			page 21


     /tmp/ccY2fCPR.s:433    .text:0000000000000204 .LVL40
     /tmp/ccY2fCPR.s:483    .text:000000000000024c .LVL46
     /tmp/ccY2fCPR.s:475    .text:000000000000023c .LVL45
     /tmp/ccY2fCPR.s:445    .text:000000000000020c .LVL41
     /tmp/ccY2fCPR.s:164    .text:00000000000000b4 .LVL15
     /tmp/ccY2fCPR.s:191    .text:00000000000000d8 .LVL17
     /tmp/ccY2fCPR.s:193    .text:00000000000000dc .LVL18
     /tmp/ccY2fCPR.s:202    .text:00000000000000e0 .LVL19
     /tmp/ccY2fCPR.s:271    .text:0000000000000148 .LVL26
     /tmp/ccY2fCPR.s:281    .text:0000000000000150 .LVL27
     /tmp/ccY2fCPR.s:293    .text:0000000000000154 .LVL28
     /tmp/ccY2fCPR.s:295    .text:0000000000000158 .LVL29
     /tmp/ccY2fCPR.s:302    .text:0000000000000160 .LVL31
     /tmp/ccY2fCPR.s:258    .text:0000000000000134 .LVL25
     /tmp/ccY2fCPR.s:299    .text:000000000000015c .LVL30
     /tmp/ccY2fCPR.s:220    .text:00000000000000f8 .LVL20
     /tmp/ccY2fCPR.s:234    .text:0000000000000108 .LVL21
     /tmp/ccY2fCPR.s:171    .text:00000000000000b8 .LVL16
     /tmp/ccY2fCPR.s:14     .text:0000000000000000 .LVL0
     /tmp/ccY2fCPR.s:52     .text:0000000000000038 .LVL2
     /tmp/ccY2fCPR.s:73     .text:0000000000000048 .LVL4
     /tmp/ccY2fCPR.s:79     .text:0000000000000054 .LVL5
     /tmp/ccY2fCPR.s:138    .text:00000000000000ac .LVL13
     /tmp/ccY2fCPR.s:151    .text:00000000000000b0 .LVL14
     /tmp/ccY2fCPR.s:88     .text:0000000000000060 .LVL6
     /tmp/ccY2fCPR.s:120    .text:0000000000000094 .LVL10
     /tmp/ccY2fCPR.s:129    .text:00000000000000a0 .LVL12
     /tmp/ccY2fCPR.s:108    .text:0000000000000084 .LVL9
     /tmp/ccY2fCPR.s:22     .text:0000000000000004 .LVL1
     /tmp/ccY2fCPR.s:61     .text:000000000000003c .LVL3
     /tmp/ccY2fCPR.s:513    .debug_info:0000000000000000 .Ldebug_info0
     /tmp/ccY2fCPR.s:83     .text:0000000000000054 .LBB40
     /tmp/ccY2fCPR.s:127    .text:000000000000009c .LBE40
     /tmp/ccY2fCPR.s:131    .text:00000000000000a0 .LBB47
     /tmp/ccY2fCPR.s:147    .text:00000000000000ac .LBE47
     /tmp/ccY2fCPR.s:122    .text:0000000000000094 .LBE41
     /tmp/ccY2fCPR.s:132    .text:00000000000000a0 .LBB46
     /tmp/ccY2fCPR.s:146    .text:00000000000000ac .LBE46
     /tmp/ccY2fCPR.s:197    .text:00000000000000dc .LBB54
     /tmp/ccY2fCPR.s:207    .text:00000000000000e4 .LBE54
     /tmp/ccY2fCPR.s:222    .text:00000000000000f8 .LBB61
     /tmp/ccY2fCPR.s:253    .text:0000000000000130 .LBE61
     /tmp/ccY2fCPR.s:275    .text:0000000000000148 .LBB62
     /tmp/ccY2fCPR.s:289    .text:0000000000000150 .LBE62
     /tmp/ccY2fCPR.s:206    .text:00000000000000e4 .LBE55
     /tmp/ccY2fCPR.s:223    .text:00000000000000f8 .LBB59
     /tmp/ccY2fCPR.s:239    .text:0000000000000110 .LBE59
     /tmp/ccY2fCPR.s:276    .text:0000000000000148 .LBB60
     /tmp/ccY2fCPR.s:288    .text:0000000000000150 .LBE60
     /tmp/ccY2fCPR.s:437    .text:0000000000000204 .LBB72
     /tmp/ccY2fCPR.s:464    .text:0000000000000234 .LBE72
     /tmp/ccY2fCPR.s:468    .text:0000000000000234 .LBB77
     /tmp/ccY2fCPR.s:487    .text:000000000000024c .LBE77
     /tmp/ccY2fCPR.s:450    .text:0000000000000214 .LBE73
     /tmp/ccY2fCPR.s:469    .text:0000000000000234 .LBB76
     /tmp/ccY2fCPR.s:486    .text:000000000000024c .LBE76

GAS LISTING /tmp/ccY2fCPR.s 			page 22


UNDEFINED SYMBOLS
_ZN7_thread7runningE
_ZN7_thread8setBlockEb
_Znwm
_Z15thread_dispatchv
_ZdlPv
_ZN9Scheduler3putEP7_thread
