GAS LISTING /tmp/ccbtMG19.s 			page 1


   1              		.file	"_sem.cpp"
   2              		.option pic
   3              		.option norelax
   4              		.text
   5              	.Ltext0:
   6              		.align	2
   7              		.globl	_ZN4_sem4waitEv
   9              	_ZN4_sem4waitEv:
  10              	.LFB25:
  11              		.file 1 "src/_sem.cpp"
   1:src/_sem.cpp  **** //
   2:src/_sem.cpp  **** // Created by os on 10/11/25.
   3:src/_sem.cpp  **** //
   4:src/_sem.cpp  **** 
   5:src/_sem.cpp  **** #include "../h/_sem.hpp"
   6:src/_sem.cpp  **** #include "../h/syscall_c.hpp"
   7:src/_sem.cpp  **** 
   8:src/_sem.cpp  **** int _sem::wait() {
  12              		.loc 1 8 18
  13              		.cfi_startproc
  14              	.LVL0:
   9:src/_sem.cpp  ****     if (isClosed()) return -1;
  15              		.loc 1 9 5
  16              	.LBB39:
  17              	.LBB40:
  18              		.file 2 "src/../h/_sem.hpp"
   1:src/../h/_sem.hpp **** //
   2:src/../h/_sem.hpp **** // Created by os on 10/11/25.
   3:src/../h/_sem.hpp **** //
   4:src/../h/_sem.hpp **** 
   5:src/../h/_sem.hpp **** 
   6:src/../h/_sem.hpp **** #ifndef PROJECT_BASE__SEM_HPP
   7:src/../h/_sem.hpp **** #define PROJECT_BASE__SEM_HPP
   8:src/../h/_sem.hpp **** 
   9:src/../h/_sem.hpp **** #include "../h/list.hpp"
  10:src/../h/_sem.hpp **** #include "../h/_thread.hpp"
  11:src/../h/_sem.hpp **** #include "../lib/hw.h"
  12:src/../h/_sem.hpp **** #include "../h/syscall_c.hpp"
  13:src/../h/_sem.hpp **** 
  14:src/../h/_sem.hpp **** 
  15:src/../h/_sem.hpp **** typedef _sem* sem_t;
  16:src/../h/_sem.hpp **** 
  17:src/../h/_sem.hpp **** class _sem {
  18:src/../h/_sem.hpp **** 
  19:src/../h/_sem.hpp **** public:
  20:src/../h/_sem.hpp ****     _sem(uint32 init = 1) : val(init), closed(false) {}
  21:src/../h/_sem.hpp ****     static _sem* createSemaphore(uint32 init);
  22:src/../h/_sem.hpp **** 
  23:src/../h/_sem.hpp ****     int wait();
  24:src/../h/_sem.hpp ****     int signal();
  25:src/../h/_sem.hpp ****     int close();
  26:src/../h/_sem.hpp **** 
  27:src/../h/_sem.hpp ****     int value() const { return val; }
  28:src/../h/_sem.hpp **** 
  29:src/../h/_sem.hpp **** 
  30:src/../h/_sem.hpp ****     void setClosed(bool b);
  31:src/../h/_sem.hpp ****     bool isClosed() const {return closed;}
GAS LISTING /tmp/ccbtMG19.s 			page 2


  19              		.loc 2 31 28
  20              		.loc 2 31 35 is_stmt 0
  21 0000 83474500 		lbu	a5,4(a0)
  22              	.LVL1:
  23              	.LBE40:
  24              	.LBE39:
  25              		.loc 1 9 5
  26 0004 639C070A 		bnez	a5,.L6
   8:src/_sem.cpp  ****     if (isClosed()) return -1;
  27              		.loc 1 8 18
  28 0008 130101FE 		addi	sp,sp,-32
  29              		.cfi_def_cfa_offset 32
  30 000c 233C1100 		sd	ra,24(sp)
  31 0010 23388100 		sd	s0,16(sp)
  32 0014 23349100 		sd	s1,8(sp)
  33 0018 23302101 		sd	s2,0(sp)
  34              		.cfi_offset 1, -8
  35              		.cfi_offset 8, -16
  36              		.cfi_offset 9, -24
  37              		.cfi_offset 18, -32
  38 001c 13040102 		addi	s0,sp,32
  39              		.cfi_def_cfa 8, 0
  40 0020 93040500 		mv	s1,a0
  10:src/_sem.cpp  ****     if (--val < 0){
  41              		.loc 1 10 5 is_stmt 1
  42              	.LBB41:
  43              		.loc 1 10 11 is_stmt 0
  44 0024 83270500 		lw	a5,0(a0)
  45              		.loc 1 10 9
  46 0028 9B87F7FF 		addiw	a5,a5,-1
  47              		.loc 1 10 15
  48 002c 2320F500 		sw	a5,0(a0)
  49              		.loc 1 10 5
  50 0030 13970702 		slli	a4,a5,32
  51 0034 63460702 		bltz	a4,.L11
  52              	.LVL2:
  53              	.L3:
  54              	.LBE41:
  11:src/_sem.cpp  ****         _thread* cur = _thread::running;
  12:src/_sem.cpp  ****         cur->setBlock(true);
  13:src/_sem.cpp  ****         cur->setSemStatus(0);
  14:src/_sem.cpp  ****         blocked.addLast(cur);
  15:src/_sem.cpp  ****         thread_dispatch();
  16:src/_sem.cpp  ****     }
  17:src/_sem.cpp  **** 
  18:src/_sem.cpp  ****     return _thread::running->getSemStatus();
  55              		.loc 1 18 5 is_stmt 1
  56              		.loc 1 18 42 is_stmt 0
  57 0038 97070000 		la	a5,_ZN7_thread7runningE
  57      83B70700 
  58 0040 83B70700 		ld	a5,0(a5)
  59              	.LVL3:
  60              	.LBB52:
  61              	.LBB53:
  62              		.file 3 "src/../h/../h/_thread.hpp"
   1:src/../h/../h/_thread.hpp **** 
   2:src/../h/../h/_thread.hpp **** 
GAS LISTING /tmp/ccbtMG19.s 			page 3


   3:src/../h/../h/_thread.hpp **** #ifndef OS1_VEZBE07_RISCV_CONTEXT_SWITCH_2_INTERRUPT_TCB_HPP
   4:src/../h/../h/_thread.hpp **** #define OS1_VEZBE07_RISCV_CONTEXT_SWITCH_2_INTERRUPT_TCB_HPP
   5:src/../h/../h/_thread.hpp **** 
   6:src/../h/../h/_thread.hpp **** #include "../lib/hw.h"
   7:src/../h/../h/_thread.hpp **** #include "scheduler.hpp"
   8:src/../h/../h/_thread.hpp **** #include "syscall_c.hpp"
   9:src/../h/../h/_thread.hpp **** 
  10:src/../h/../h/_thread.hpp **** typedef _thread* thread_t;
  11:src/../h/../h/_thread.hpp **** 
  12:src/../h/../h/_thread.hpp **** // Thread Control Block
  13:src/../h/../h/_thread.hpp **** class _thread
  14:src/../h/../h/_thread.hpp **** {
  15:src/../h/../h/_thread.hpp **** public:
  16:src/../h/../h/_thread.hpp ****     ~_thread() { delete[] stack; }
  17:src/../h/../h/_thread.hpp **** 
  18:src/../h/../h/_thread.hpp ****     using Body = void (*)(void*);
  19:src/../h/../h/_thread.hpp **** 
  20:src/../h/../h/_thread.hpp ****     static _thread *createThread(Body body, void* args);
  21:src/../h/../h/_thread.hpp **** 
  22:src/../h/../h/_thread.hpp ****     static void yield();
  23:src/../h/../h/_thread.hpp **** 
  24:src/../h/../h/_thread.hpp ****     static _thread *running;
  25:src/../h/../h/_thread.hpp ****     static sem_t semMaxThreads;
  26:src/../h/../h/_thread.hpp ****     static int ID;
  27:src/../h/../h/_thread.hpp ****     static int exitThread();
  28:src/../h/../h/_thread.hpp **** 
  29:src/../h/../h/_thread.hpp ****     bool isFinished() const { return finished; }
  30:src/../h/../h/_thread.hpp ****     void setFinished(bool value) { finished = value; }
  31:src/../h/../h/_thread.hpp ****     void setStart(bool b);
  32:src/../h/../h/_thread.hpp ****     bool isStarted() const { return started; }
  33:src/../h/../h/_thread.hpp ****     void setBlock(bool b);
  34:src/../h/../h/_thread.hpp ****     bool isBlocked() const { return blocked; }
  35:src/../h/../h/_thread.hpp ****     void setSemStatus(int s) { semStatus = s; }
  36:src/../h/../h/_thread.hpp ****     int getSemStatus() const { return semStatus; }
  63              		.loc 3 36 32 is_stmt 1
  64              		.loc 3 36 39 is_stmt 0
  65 0044 03A5C702 		lw	a0,44(a5)
  66              	.LVL4:
  67              	.LBE53:
  68              	.LBE52:
  19:src/_sem.cpp  **** }
  69              		.loc 1 19 1
  70 0048 83308101 		ld	ra,24(sp)
  71              		.cfi_remember_state
  72              		.cfi_restore 1
  73 004c 03340101 		ld	s0,16(sp)
  74              		.cfi_restore 8
  75              		.cfi_def_cfa 2, 32
  76 0050 83348100 		ld	s1,8(sp)
  77              		.cfi_restore 9
  78              	.LVL5:
  79 0054 03390100 		ld	s2,0(sp)
  80              		.cfi_restore 18
  81 0058 13010102 		addi	sp,sp,32
  82              		.cfi_def_cfa_offset 0
  83 005c 67800000 		jr	ra
  84              	.LVL6:
GAS LISTING /tmp/ccbtMG19.s 			page 4


  85              	.L11:
  86              		.cfi_restore_state
  87              	.LBB54:
  88              	.LBB42:
  11:src/_sem.cpp  ****         _thread* cur = _thread::running;
  89              		.loc 1 11 9 is_stmt 1
  11:src/_sem.cpp  ****         _thread* cur = _thread::running;
  90              		.loc 1 11 18 is_stmt 0
  91 0060 97070000 		la	a5,_ZN7_thread7runningE
  91      83B70700 
  92 0068 03B90700 		ld	s2,0(a5)
  93              	.LVL7:
  12:src/_sem.cpp  ****         cur->setSemStatus(0);
  94              		.loc 1 12 9 is_stmt 1
  12:src/_sem.cpp  ****         cur->setSemStatus(0);
  95              		.loc 1 12 22 is_stmt 0
  96 006c 93051000 		li	a1,1
  97 0070 13050900 		mv	a0,s2
  98 0074 97000000 		call	_ZN7_thread8setBlockEb@plt
  98      E7800000 
  99              	.LVL8:
  13:src/_sem.cpp  ****         blocked.addLast(cur);
 100              		.loc 1 13 9 is_stmt 1
 101              	.LBB43:
 102              	.LBB44:
  35:src/../h/../h/_thread.hpp ****     int getSemStatus() const { return semStatus; }
 103              		.loc 3 35 32
  35:src/../h/../h/_thread.hpp ****     int getSemStatus() const { return semStatus; }
 104              		.loc 3 35 42 is_stmt 0
 105 007c 23260902 		sw	zero,44(s2)
 106              	.LVL9:
 107              	.LBE44:
 108              	.LBE43:
  14:src/_sem.cpp  ****         thread_dispatch();
 109              		.loc 1 14 9 is_stmt 1
 110              	.LBB45:
 111              	.LBB46:
 112              		.file 4 "src/../h/../h/list.hpp"
   1:src/../h/../h/list.hpp **** 
   2:src/../h/../h/list.hpp **** #ifndef OS1_VEZBE07_RISCV_CONTEXT_SWITCH_2_INTERRUPT_LIST_HPP
   3:src/../h/../h/list.hpp **** #define OS1_VEZBE07_RISCV_CONTEXT_SWITCH_2_INTERRUPT_LIST_HPP
   4:src/../h/../h/list.hpp **** 
   5:src/../h/../h/list.hpp **** template<typename T>
   6:src/../h/../h/list.hpp **** class List
   7:src/../h/../h/list.hpp **** {
   8:src/../h/../h/list.hpp **** private:
   9:src/../h/../h/list.hpp ****     struct Elem
  10:src/../h/../h/list.hpp ****     {
  11:src/../h/../h/list.hpp ****         T *data;
  12:src/../h/../h/list.hpp ****         Elem *next;
  13:src/../h/../h/list.hpp **** 
  14:src/../h/../h/list.hpp ****         Elem(T *data, Elem *next) : data(data), next(next) {}
  15:src/../h/../h/list.hpp ****     };
  16:src/../h/../h/list.hpp **** 
  17:src/../h/../h/list.hpp ****     Elem *head, *tail;
  18:src/../h/../h/list.hpp **** 
  19:src/../h/../h/list.hpp **** public:
GAS LISTING /tmp/ccbtMG19.s 			page 5


  20:src/../h/../h/list.hpp ****     List() : head(0), tail(0) {}
  21:src/../h/../h/list.hpp **** 
  22:src/../h/../h/list.hpp ****     List(const List<T> &) = delete;
  23:src/../h/../h/list.hpp **** 
  24:src/../h/../h/list.hpp ****     List<T> &operator=(const List<T> &) = delete;
  25:src/../h/../h/list.hpp **** 
  26:src/../h/../h/list.hpp ****     void addFirst(T *data)
  27:src/../h/../h/list.hpp ****     {
  28:src/../h/../h/list.hpp ****         Elem *elem = new Elem(data, head);
  29:src/../h/../h/list.hpp ****         head = elem;
  30:src/../h/../h/list.hpp ****         if (!tail) { tail = head; }
  31:src/../h/../h/list.hpp ****     }
  32:src/../h/../h/list.hpp **** 
  33:src/../h/../h/list.hpp ****     void addLast(T *data)
  34:src/../h/../h/list.hpp ****     {
  35:src/../h/../h/list.hpp ****         Elem *elem = new Elem(data, 0);
 113              		.loc 4 35 22 is_stmt 0
 114 0080 13050001 		li	a0,16
 115 0084 97000000 		call	_Znwm@plt
 115      E7800000 
 116              	.LVL10:
 117              	.LBB47:
 118              	.LBB48:
  14:src/../h/../h/list.hpp ****     };
 119              		.loc 4 14 58
 120 008c 23302501 		sd	s2,0(a0)
 121 0090 23340500 		sd	zero,8(a0)
 122              	.LVL11:
 123              	.LBE48:
 124              	.LBE47:
  36:src/../h/../h/list.hpp ****         if (tail)
 125              		.loc 4 36 13
 126 0094 83B70401 		ld	a5,16(s1)
 127              		.loc 4 36 9
 128 0098 638C0700 		beqz	a5,.L4
  37:src/../h/../h/list.hpp ****         {
  38:src/../h/../h/list.hpp ****             tail->next = elem;
 129              		.loc 4 38 13
 130 009c 23B4A700 		sd	a0,8(a5)
  39:src/../h/../h/list.hpp ****             tail = elem;
 131              		.loc 4 39 13
 132 00a0 23B8A400 		sd	a0,16(s1)
 133              	.L5:
 134              	.LVL12:
 135              	.LBE46:
 136              	.LBE45:
  15:src/_sem.cpp  ****     }
 137              		.loc 1 15 9 is_stmt 1
  15:src/_sem.cpp  ****     }
 138              		.loc 1 15 24 is_stmt 0
 139 00a4 97000000 		call	_Z15thread_dispatchv@plt
 139      E7800000 
 140              	.LVL13:
 141              	.LBE42:
 142 00ac 6FF0DFF8 		j	.L3
 143              	.LVL14:
 144              	.L4:
GAS LISTING /tmp/ccbtMG19.s 			page 6


 145              	.LBB51:
 146              	.LBB50:
 147              	.LBB49:
  40:src/../h/../h/list.hpp ****         } else
  41:src/../h/../h/list.hpp ****         {
  42:src/../h/../h/list.hpp ****             head = tail = elem;
 148              		.loc 4 42 13
 149 00b0 23B8A400 		sd	a0,16(s1)
 150 00b4 23B4A400 		sd	a0,8(s1)
 151 00b8 6FF0DFFE 		j	.L5
 152              	.LVL15:
 153              	.L6:
 154              		.cfi_def_cfa_register 2
 155              		.cfi_restore 1
 156              		.cfi_restore 8
 157              		.cfi_restore 9
 158              		.cfi_restore 18
 159              	.LBE49:
 160              	.LBE50:
 161              	.LBE51:
 162              	.LBE54:
   9:src/_sem.cpp  ****     if (--val < 0){
 163              		.loc 1 9 29
 164 00bc 1305F0FF 		li	a0,-1
 165              	.LVL16:
 166              		.loc 1 19 1
 167 00c0 67800000 		ret
 168              		.cfi_endproc
 169              	.LFE25:
 171              		.align	2
 172              		.globl	_ZN4_sem6signalEv
 174              	_ZN4_sem6signalEv:
 175              	.LFB26:
  20:src/_sem.cpp  **** 
  21:src/_sem.cpp  **** int _sem::signal() {
 176              		.loc 1 21 20 is_stmt 1
 177              		.cfi_startproc
 178              	.LVL17:
  22:src/_sem.cpp  ****     if (isClosed()) return -1;
 179              		.loc 1 22 5
 180              	.LBB55:
 181              	.LBB56:
 182              		.loc 2 31 28
 183              		.loc 2 31 35 is_stmt 0
 184 00c4 03474500 		lbu	a4,4(a0)
 185              	.LVL18:
 186              	.LBE56:
 187              	.LBE55:
 188              		.loc 1 22 5
 189 00c8 631C0708 		bnez	a4,.L15
 190 00cc 93070500 		mv	a5,a0
  23:src/_sem.cpp  ****     if(++val <= 0){
 191              		.loc 1 23 5 is_stmt 1
 192              	.LBB57:
 193              		.loc 1 23 10 is_stmt 0
 194 00d0 03270500 		lw	a4,0(a0)
 195              		.loc 1 23 8
GAS LISTING /tmp/ccbtMG19.s 			page 7


 196 00d4 1B071700 		addiw	a4,a4,1
 197 00d8 9B060700 		sext.w	a3,a4
 198              		.loc 1 23 14
 199 00dc 2320E500 		sw	a4,0(a0)
 200              		.loc 1 23 5
 201 00e0 6356D000 		blez	a3,.L23
 202              	.LBE57:
  24:src/_sem.cpp  ****         if(_thread* cur = blocked.removeFirst()){
  25:src/_sem.cpp  ****             cur->setBlock(false);
  26:src/_sem.cpp  ****             Scheduler::put(cur);
  27:src/_sem.cpp  ****         }
  28:src/_sem.cpp  ****     }
  29:src/_sem.cpp  ****     return 0;
 203              		.loc 1 29 12
 204 00e4 13050000 		li	a0,0
 205              	.LVL19:
 206 00e8 67800000 		ret
 207              	.LVL20:
 208              	.L23:
  24:src/_sem.cpp  ****         if(_thread* cur = blocked.removeFirst()){
 209              		.loc 1 24 9 is_stmt 1
 210              	.LBB67:
 211              	.LBB58:
 212              	.LBB59:
 213              	.LBB60:
  43:src/../h/../h/list.hpp ****         }
  44:src/../h/../h/list.hpp ****     }
  45:src/../h/../h/list.hpp **** 
  46:src/../h/../h/list.hpp ****     T *removeFirst()
  47:src/../h/../h/list.hpp ****     {
  48:src/../h/../h/list.hpp ****         if (!head) { return 0; }
 214              		.loc 4 48 14 is_stmt 0
 215 00ec 03358500 		ld	a0,8(a0)
 216              	.LVL21:
 217              		.loc 4 48 9
 218 00f0 630C0506 		beqz	a0,.L17
 219              	.LBE60:
 220              	.LBE59:
 221              	.LBE58:
 222              	.LBE67:
  21:src/_sem.cpp  ****     if (isClosed()) return -1;
 223              		.loc 1 21 20
 224 00f4 130101FE 		addi	sp,sp,-32
 225              		.cfi_def_cfa_offset 32
 226 00f8 233C1100 		sd	ra,24(sp)
 227 00fc 23388100 		sd	s0,16(sp)
 228 0100 23349100 		sd	s1,8(sp)
 229              		.cfi_offset 1, -8
 230              		.cfi_offset 8, -16
 231              		.cfi_offset 9, -24
 232 0104 13040102 		addi	s0,sp,32
 233              		.cfi_def_cfa 8, 0
 234              	.LVL22:
 235              	.LBB68:
 236              	.LBB65:
 237              	.LBB63:
 238              	.LBB61:
GAS LISTING /tmp/ccbtMG19.s 			page 8


  49:src/../h/../h/list.hpp **** 
  50:src/../h/../h/list.hpp ****         Elem *elem = head;
  51:src/../h/../h/list.hpp ****         head = head->next;
 239              		.loc 4 51 22
 240 0108 03378500 		ld	a4,8(a0)
 241              		.loc 4 51 9
 242 010c 23B4E700 		sd	a4,8(a5)
  52:src/../h/../h/list.hpp ****         if (!head) { tail = 0; }
 243              		.loc 4 52 9
 244 0110 63040704 		beqz	a4,.L24
 245              	.L14:
  53:src/../h/../h/list.hpp **** 
  54:src/../h/../h/list.hpp ****         T *ret = elem->data;
 246              		.loc 4 54 12
 247 0114 83340500 		ld	s1,0(a0)
 248              	.LVL23:
  55:src/../h/../h/list.hpp ****         delete elem;
 249              		.loc 4 55 9
 250 0118 97000000 		call	_ZdlPv@plt
 250      E7800000 
 251              	.LVL24:
 252              	.LBE61:
 253              	.LBE63:
  24:src/_sem.cpp  ****             cur->setBlock(false);
 254              		.loc 1 24 9
 255 0120 63880404 		beqz	s1,.L18
  25:src/_sem.cpp  ****             Scheduler::put(cur);
 256              		.loc 1 25 13 is_stmt 1
  25:src/_sem.cpp  ****             Scheduler::put(cur);
 257              		.loc 1 25 26 is_stmt 0
 258 0124 93050000 		li	a1,0
 259 0128 13850400 		mv	a0,s1
 260 012c 97000000 		call	_ZN7_thread8setBlockEb@plt
 260      E7800000 
 261              	.LVL25:
  26:src/_sem.cpp  ****         }
 262              		.loc 1 26 13 is_stmt 1
  26:src/_sem.cpp  ****         }
 263              		.loc 1 26 27 is_stmt 0
 264 0134 13850400 		mv	a0,s1
 265 0138 97000000 		call	_ZN9Scheduler3putEP7_thread@plt
 265      E7800000 
 266              	.LVL26:
 267              	.LBE65:
 268              	.LBE68:
 269              		.loc 1 29 12
 270 0140 13050000 		li	a0,0
 271              	.L13:
 272              	.LVL27:
  30:src/_sem.cpp  **** }
 273              		.loc 1 30 1
 274 0144 83308101 		ld	ra,24(sp)
 275              		.cfi_remember_state
 276              		.cfi_restore 1
 277 0148 03340101 		ld	s0,16(sp)
 278              		.cfi_restore 8
 279              		.cfi_def_cfa 2, 32
GAS LISTING /tmp/ccbtMG19.s 			page 9


 280 014c 83348100 		ld	s1,8(sp)
 281              		.cfi_restore 9
 282 0150 13010102 		addi	sp,sp,32
 283              		.cfi_def_cfa_offset 0
 284 0154 67800000 		jr	ra
 285              	.LVL28:
 286              	.L24:
 287              		.cfi_restore_state
 288              	.LBB69:
 289              	.LBB66:
 290              	.LBB64:
 291              	.LBB62:
  52:src/../h/../h/list.hpp **** 
 292              		.loc 4 52 22
 293 0158 23B80700 		sd	zero,16(a5)
 294 015c 6FF09FFB 		j	.L14
 295              	.LVL29:
 296              	.L15:
 297              		.cfi_def_cfa_register 2
 298              		.cfi_restore 1
 299              		.cfi_restore 8
 300              		.cfi_restore 9
 301              	.LBE62:
 302              	.LBE64:
 303              	.LBE66:
 304              	.LBE69:
  22:src/_sem.cpp  ****     if(++val <= 0){
 305              		.loc 1 22 29
 306 0160 1305F0FF 		li	a0,-1
 307              	.LVL30:
 308 0164 67800000 		ret
 309              	.LVL31:
 310              	.L17:
  29:src/_sem.cpp  **** }
 311              		.loc 1 29 12
 312 0168 13050000 		li	a0,0
 313              	.LVL32:
 314              		.loc 1 30 1
 315 016c 67800000 		ret
 316              	.LVL33:
 317              	.L18:
 318              		.cfi_def_cfa_register 8
 319              		.cfi_offset 1, -8
 320              		.cfi_offset 8, -16
 321              		.cfi_offset 9, -24
  29:src/_sem.cpp  **** }
 322              		.loc 1 29 12
 323 0170 13050000 		li	a0,0
 324 0174 6FF01FFD 		j	.L13
 325              		.cfi_endproc
 326              	.LFE26:
 328              		.align	2
 329              		.globl	_ZN4_sem15createSemaphoreEj
 331              	_ZN4_sem15createSemaphoreEj:
 332              	.LFB28:
  31:src/_sem.cpp  **** 
  32:src/_sem.cpp  **** int _sem::close() {
GAS LISTING /tmp/ccbtMG19.s 			page 10


  33:src/_sem.cpp  ****     setClosed(true);
  34:src/_sem.cpp  ****     while(_thread* cur = blocked.removeFirst()){
  35:src/_sem.cpp  ****         cur->setSemStatus(-1);
  36:src/_sem.cpp  ****         cur->setBlock(false);
  37:src/_sem.cpp  ****         Scheduler::put(cur);
  38:src/_sem.cpp  ****     }
  39:src/_sem.cpp  **** 
  40:src/_sem.cpp  ****     return 0;
  41:src/_sem.cpp  **** }
  42:src/_sem.cpp  **** 
  43:src/_sem.cpp  **** _sem* _sem::createSemaphore(uint32 init) {
 333              		.loc 1 43 42 is_stmt 1
 334              		.cfi_startproc
 335              	.LVL34:
 336 0178 130101FE 		addi	sp,sp,-32
 337              		.cfi_def_cfa_offset 32
 338 017c 233C1100 		sd	ra,24(sp)
 339 0180 23388100 		sd	s0,16(sp)
 340 0184 23349100 		sd	s1,8(sp)
 341              		.cfi_offset 1, -8
 342              		.cfi_offset 8, -16
 343              		.cfi_offset 9, -24
 344 0188 13040102 		addi	s0,sp,32
 345              		.cfi_def_cfa 8, 0
 346 018c 93040500 		mv	s1,a0
  44:src/_sem.cpp  ****     _sem* newSemaphore = new _sem(init);
 347              		.loc 1 44 5
 348              		.loc 1 44 39 is_stmt 0
 349 0190 13058001 		li	a0,24
 350              	.LVL35:
 351 0194 97000000 		call	_Znwm@plt
 351      E7800000 
 352              	.LVL36:
 353              	.LBB70:
 354              	.LBB71:
  20:src/../h/_sem.hpp ****     static _sem* createSemaphore(uint32 init);
 355              		.loc 2 20 52
 356 019c 23209500 		sw	s1,0(a0)
 357 01a0 23020500 		sb	zero,4(a0)
 358              	.LVL37:
 359              	.LBB72:
 360              	.LBB73:
  20:src/../h/../h/list.hpp **** 
 361              		.loc 4 20 29
 362 01a4 23340500 		sd	zero,8(a0)
 363 01a8 23380500 		sd	zero,16(a0)
 364              	.LVL38:
 365              	.LBE73:
 366              	.LBE72:
 367              	.LBE71:
 368              	.LBE70:
  45:src/_sem.cpp  ****     return newSemaphore;
 369              		.loc 1 45 5 is_stmt 1
  46:src/_sem.cpp  **** }
 370              		.loc 1 46 1 is_stmt 0
 371 01ac 83308101 		ld	ra,24(sp)
 372              		.cfi_restore 1
GAS LISTING /tmp/ccbtMG19.s 			page 11


 373 01b0 03340101 		ld	s0,16(sp)
 374              		.cfi_restore 8
 375              		.cfi_def_cfa 2, 32
 376 01b4 83348100 		ld	s1,8(sp)
 377              		.cfi_restore 9
 378 01b8 13010102 		addi	sp,sp,32
 379              		.cfi_def_cfa_offset 0
 380 01bc 67800000 		jr	ra
 381              		.cfi_endproc
 382              	.LFE28:
 384              		.align	2
 385              		.globl	_ZN4_sem9setClosedEb
 387              	_ZN4_sem9setClosedEb:
 388              	.LFB29:
  47:src/_sem.cpp  **** 
  48:src/_sem.cpp  **** void _sem::setClosed(bool b) {
 389              		.loc 1 48 30 is_stmt 1
 390              		.cfi_startproc
 391              	.LVL39:
 392 01c0 130101FF 		addi	sp,sp,-16
 393              		.cfi_def_cfa_offset 16
 394 01c4 23348100 		sd	s0,8(sp)
 395              		.cfi_offset 8, -8
 396 01c8 13040101 		addi	s0,sp,16
 397              		.cfi_def_cfa 8, 0
  49:src/_sem.cpp  ****     closed = b;
 398              		.loc 1 49 5
 399              		.loc 1 49 12 is_stmt 0
 400 01cc 2302B500 		sb	a1,4(a0)
  50:src/_sem.cpp  **** }
 401              		.loc 1 50 1
 402 01d0 03348100 		ld	s0,8(sp)
 403              		.cfi_restore 8
 404              		.cfi_def_cfa 2, 16
 405 01d4 13010101 		addi	sp,sp,16
 406              		.cfi_def_cfa_offset 0
 407 01d8 67800000 		jr	ra
 408              		.cfi_endproc
 409              	.LFE29:
 411              		.align	2
 412              		.globl	_ZN4_sem5closeEv
 414              	_ZN4_sem5closeEv:
 415              	.LFB27:
  32:src/_sem.cpp  ****     setClosed(true);
 416              		.loc 1 32 19 is_stmt 1
 417              		.cfi_startproc
 418              	.LVL40:
 419 01dc 130101FE 		addi	sp,sp,-32
 420              		.cfi_def_cfa_offset 32
 421 01e0 233C1100 		sd	ra,24(sp)
 422 01e4 23388100 		sd	s0,16(sp)
 423 01e8 23349100 		sd	s1,8(sp)
 424 01ec 23302101 		sd	s2,0(sp)
 425              		.cfi_offset 1, -8
 426              		.cfi_offset 8, -16
 427              		.cfi_offset 9, -24
 428              		.cfi_offset 18, -32
GAS LISTING /tmp/ccbtMG19.s 			page 12


 429 01f0 13040102 		addi	s0,sp,32
 430              		.cfi_def_cfa 8, 0
 431 01f4 13090500 		mv	s2,a0
  33:src/_sem.cpp  ****     while(_thread* cur = blocked.removeFirst()){
 432              		.loc 1 33 5
  33:src/_sem.cpp  ****     while(_thread* cur = blocked.removeFirst()){
 433              		.loc 1 33 14 is_stmt 0
 434 01f8 93051000 		li	a1,1
 435 01fc 97000000 		call	_ZN4_sem9setClosedEb
 435      E7800000 
 436              	.LVL41:
 437 0204 6F00C003 		j	.L32
 438              	.LVL42:
 439              	.L34:
 440              	.LBB74:
 441              	.LBB75:
 442              	.LBB76:
  52:src/../h/../h/list.hpp **** 
 443              		.loc 4 52 22
 444 0208 23380900 		sd	zero,16(s2)
 445              	.L31:
  54:src/../h/../h/list.hpp ****         delete elem;
 446              		.loc 4 54 12
 447 020c 83340500 		ld	s1,0(a0)
 448              	.LVL43:
 449              		.loc 4 55 9
 450 0210 97000000 		call	_ZdlPv@plt
 450      E7800000 
 451              	.LVL44:
 452              	.LBE76:
 453              	.LBE75:
  34:src/_sem.cpp  ****         cur->setSemStatus(-1);
 454              		.loc 1 34 46
 455 0218 63800404 		beqz	s1,.L30
  35:src/_sem.cpp  ****         cur->setBlock(false);
 456              		.loc 1 35 9 is_stmt 1
 457              	.LVL45:
 458              	.LBB78:
 459              	.LBB79:
  35:src/../h/../h/_thread.hpp ****     int getSemStatus() const { return semStatus; }
 460              		.loc 3 35 32
  35:src/../h/../h/_thread.hpp ****     int getSemStatus() const { return semStatus; }
 461              		.loc 3 35 42 is_stmt 0
 462 021c 9307F0FF 		li	a5,-1
 463 0220 23A6F402 		sw	a5,44(s1)
 464              	.LVL46:
 465              	.LBE79:
 466              	.LBE78:
  36:src/_sem.cpp  ****         Scheduler::put(cur);
 467              		.loc 1 36 9 is_stmt 1
  36:src/_sem.cpp  ****         Scheduler::put(cur);
 468              		.loc 1 36 22 is_stmt 0
 469 0224 93050000 		li	a1,0
 470 0228 13850400 		mv	a0,s1
 471 022c 97000000 		call	_ZN7_thread8setBlockEb@plt
 471      E7800000 
 472              	.LVL47:
GAS LISTING /tmp/ccbtMG19.s 			page 13


  37:src/_sem.cpp  ****     }
 473              		.loc 1 37 9 is_stmt 1
  37:src/_sem.cpp  ****     }
 474              		.loc 1 37 23 is_stmt 0
 475 0234 13850400 		mv	a0,s1
 476 0238 97000000 		call	_ZN9Scheduler3putEP7_thread@plt
 476      E7800000 
 477              	.LVL48:
 478              	.LBE74:
  34:src/_sem.cpp  ****         cur->setSemStatus(-1);
 479              		.loc 1 34 5 is_stmt 1
 480              	.L32:
  34:src/_sem.cpp  ****         cur->setSemStatus(-1);
 481              		.loc 1 34 5
 482              	.LBB81:
 483              	.LBB80:
 484              	.LBB77:
  48:src/../h/../h/list.hpp **** 
 485              		.loc 4 48 14 is_stmt 0
 486 0240 03358900 		ld	a0,8(s2)
  48:src/../h/../h/list.hpp **** 
 487              		.loc 4 48 9
 488 0244 630A0500 		beqz	a0,.L30
 489              	.LVL49:
  51:src/../h/../h/list.hpp ****         if (!head) { tail = 0; }
 490              		.loc 4 51 22
 491 0248 83378500 		ld	a5,8(a0)
  51:src/../h/../h/list.hpp ****         if (!head) { tail = 0; }
 492              		.loc 4 51 9
 493 024c 2334F900 		sd	a5,8(s2)
  52:src/../h/../h/list.hpp **** 
 494              		.loc 4 52 9
 495 0250 E39E07FA 		bnez	a5,.L31
 496 0254 6FF05FFB 		j	.L34
 497              	.LVL50:
 498              	.L30:
 499              	.LBE77:
 500              	.LBE80:
 501              	.LBE81:
  40:src/_sem.cpp  **** }
 502              		.loc 1 40 5 is_stmt 1
  41:src/_sem.cpp  **** 
 503              		.loc 1 41 1 is_stmt 0
 504 0258 13050000 		li	a0,0
 505 025c 83308101 		ld	ra,24(sp)
 506              		.cfi_restore 1
 507 0260 03340101 		ld	s0,16(sp)
 508              		.cfi_restore 8
 509              		.cfi_def_cfa 2, 32
 510 0264 83348100 		ld	s1,8(sp)
 511              		.cfi_restore 9
 512 0268 03390100 		ld	s2,0(sp)
 513              		.cfi_restore 18
 514              	.LVL51:
 515 026c 13010102 		addi	sp,sp,32
 516              		.cfi_def_cfa_offset 0
 517 0270 67800000 		jr	ra
GAS LISTING /tmp/ccbtMG19.s 			page 14


 518              		.cfi_endproc
 519              	.LFE27:
 521              	.Letext0:
 522              		.file 5 "src/../h/../h/../lib/hw.h"
 523              		.file 6 "src/../h/../h/scheduler.hpp"
 524              		.file 7 "src/../h/../h/syscall_c.hpp"
GAS LISTING /tmp/ccbtMG19.s 			page 15


DEFINED SYMBOLS
                            *ABS*:0000000000000000 _sem.cpp
     /tmp/ccbtMG19.s:9      .text:0000000000000000 _ZN4_sem4waitEv
     /tmp/ccbtMG19.s:13     .text:0000000000000000 .L0 
     /tmp/ccbtMG19.s:15     .text:0000000000000000 .L0 
     /tmp/ccbtMG19.s:19     .text:0000000000000000 .L0 
     /tmp/ccbtMG19.s:20     .text:0000000000000000 .L0 
     /tmp/ccbtMG19.s:21     .text:0000000000000000 .L0 
     /tmp/ccbtMG19.s:26     .text:0000000000000004 .L0 
     /tmp/ccbtMG19.s:28     .text:0000000000000008 .L0 
     /tmp/ccbtMG19.s:29     .text:000000000000000c .L0 
     /tmp/ccbtMG19.s:34     .text:000000000000001c .L0 
     /tmp/ccbtMG19.s:35     .text:000000000000001c .L0 
     /tmp/ccbtMG19.s:36     .text:000000000000001c .L0 
     /tmp/ccbtMG19.s:37     .text:000000000000001c .L0 
     /tmp/ccbtMG19.s:39     .text:0000000000000020 .L0 
     /tmp/ccbtMG19.s:43     .text:0000000000000024 .L0 
     /tmp/ccbtMG19.s:44     .text:0000000000000024 .L0 
     /tmp/ccbtMG19.s:46     .text:0000000000000028 .L0 
     /tmp/ccbtMG19.s:48     .text:000000000000002c .L0 
     /tmp/ccbtMG19.s:50     .text:0000000000000030 .L0 
     /tmp/ccbtMG19.s:56     .text:0000000000000038 .L0 
     /tmp/ccbtMG19.s:57     .text:0000000000000038 .L0 
     /tmp/ccbtMG19.s:64     .text:0000000000000044 .L0 
     /tmp/ccbtMG19.s:65     .text:0000000000000044 .L0 
     /tmp/ccbtMG19.s:70     .text:0000000000000048 .L0 
     /tmp/ccbtMG19.s:71     .text:000000000000004c .L0 
     /tmp/ccbtMG19.s:72     .text:000000000000004c .L0 
     /tmp/ccbtMG19.s:74     .text:0000000000000050 .L0 
     /tmp/ccbtMG19.s:75     .text:0000000000000050 .L0 
     /tmp/ccbtMG19.s:77     .text:0000000000000054 .L0 
     /tmp/ccbtMG19.s:80     .text:0000000000000058 .L0 
     /tmp/ccbtMG19.s:82     .text:000000000000005c .L0 
     /tmp/ccbtMG19.s:86     .text:0000000000000060 .L0 
     /tmp/ccbtMG19.s:90     .text:0000000000000060 .L0 
     /tmp/ccbtMG19.s:91     .text:0000000000000060 .L0 
     /tmp/ccbtMG19.s:95     .text:000000000000006c .L0 
     /tmp/ccbtMG19.s:96     .text:000000000000006c .L0 
     /tmp/ccbtMG19.s:103    .text:000000000000007c .L0 
     /tmp/ccbtMG19.s:104    .text:000000000000007c .L0 
     /tmp/ccbtMG19.s:105    .text:000000000000007c .L0 
     /tmp/ccbtMG19.s:113    .text:0000000000000080 .L0 
     /tmp/ccbtMG19.s:114    .text:0000000000000080 .L0 
     /tmp/ccbtMG19.s:120    .text:000000000000008c .L0 
     /tmp/ccbtMG19.s:126    .text:0000000000000094 .L0 
     /tmp/ccbtMG19.s:128    .text:0000000000000098 .L0 
     /tmp/ccbtMG19.s:130    .text:000000000000009c .L0 
     /tmp/ccbtMG19.s:132    .text:00000000000000a0 .L0 
     /tmp/ccbtMG19.s:138    .text:00000000000000a4 .L0 
     /tmp/ccbtMG19.s:139    .text:00000000000000a4 .L0 
     /tmp/ccbtMG19.s:149    .text:00000000000000b0 .L0 
     /tmp/ccbtMG19.s:154    .text:00000000000000bc .L0 
     /tmp/ccbtMG19.s:155    .text:00000000000000bc .L0 
     /tmp/ccbtMG19.s:156    .text:00000000000000bc .L0 
     /tmp/ccbtMG19.s:157    .text:00000000000000bc .L0 
     /tmp/ccbtMG19.s:158    .text:00000000000000bc .L0 
     /tmp/ccbtMG19.s:164    .text:00000000000000bc .L0 
GAS LISTING /tmp/ccbtMG19.s 			page 16


     /tmp/ccbtMG19.s:167    .text:00000000000000c0 .L0 
     /tmp/ccbtMG19.s:168    .text:00000000000000c4 .L0 
     /tmp/ccbtMG19.s:174    .text:00000000000000c4 _ZN4_sem6signalEv
     /tmp/ccbtMG19.s:177    .text:00000000000000c4 .L0 
     /tmp/ccbtMG19.s:179    .text:00000000000000c4 .L0 
     /tmp/ccbtMG19.s:182    .text:00000000000000c4 .L0 
     /tmp/ccbtMG19.s:183    .text:00000000000000c4 .L0 
     /tmp/ccbtMG19.s:184    .text:00000000000000c4 .L0 
     /tmp/ccbtMG19.s:189    .text:00000000000000c8 .L0 
     /tmp/ccbtMG19.s:193    .text:00000000000000d0 .L0 
     /tmp/ccbtMG19.s:194    .text:00000000000000d0 .L0 
     /tmp/ccbtMG19.s:196    .text:00000000000000d4 .L0 
     /tmp/ccbtMG19.s:199    .text:00000000000000dc .L0 
     /tmp/ccbtMG19.s:201    .text:00000000000000e0 .L0 
     /tmp/ccbtMG19.s:204    .text:00000000000000e4 .L0 
     /tmp/ccbtMG19.s:214    .text:00000000000000ec .L0 
     /tmp/ccbtMG19.s:215    .text:00000000000000ec .L0 
     /tmp/ccbtMG19.s:218    .text:00000000000000f0 .L0 
     /tmp/ccbtMG19.s:224    .text:00000000000000f4 .L0 
     /tmp/ccbtMG19.s:225    .text:00000000000000f8 .L0 
     /tmp/ccbtMG19.s:229    .text:0000000000000104 .L0 
     /tmp/ccbtMG19.s:230    .text:0000000000000104 .L0 
     /tmp/ccbtMG19.s:231    .text:0000000000000104 .L0 
     /tmp/ccbtMG19.s:233    .text:0000000000000108 .L0 
     /tmp/ccbtMG19.s:240    .text:0000000000000108 .L0 
     /tmp/ccbtMG19.s:242    .text:000000000000010c .L0 
     /tmp/ccbtMG19.s:244    .text:0000000000000110 .L0 
     /tmp/ccbtMG19.s:247    .text:0000000000000114 .L0 
     /tmp/ccbtMG19.s:250    .text:0000000000000118 .L0 
     /tmp/ccbtMG19.s:255    .text:0000000000000120 .L0 
     /tmp/ccbtMG19.s:257    .text:0000000000000124 .L0 
     /tmp/ccbtMG19.s:258    .text:0000000000000124 .L0 
     /tmp/ccbtMG19.s:263    .text:0000000000000134 .L0 
     /tmp/ccbtMG19.s:264    .text:0000000000000134 .L0 
     /tmp/ccbtMG19.s:270    .text:0000000000000140 .L0 
     /tmp/ccbtMG19.s:274    .text:0000000000000144 .L0 
     /tmp/ccbtMG19.s:275    .text:0000000000000148 .L0 
     /tmp/ccbtMG19.s:276    .text:0000000000000148 .L0 
     /tmp/ccbtMG19.s:278    .text:000000000000014c .L0 
     /tmp/ccbtMG19.s:279    .text:000000000000014c .L0 
     /tmp/ccbtMG19.s:281    .text:0000000000000150 .L0 
     /tmp/ccbtMG19.s:283    .text:0000000000000154 .L0 
     /tmp/ccbtMG19.s:287    .text:0000000000000158 .L0 
     /tmp/ccbtMG19.s:293    .text:0000000000000158 .L0 
     /tmp/ccbtMG19.s:297    .text:0000000000000160 .L0 
     /tmp/ccbtMG19.s:298    .text:0000000000000160 .L0 
     /tmp/ccbtMG19.s:299    .text:0000000000000160 .L0 
     /tmp/ccbtMG19.s:300    .text:0000000000000160 .L0 
     /tmp/ccbtMG19.s:306    .text:0000000000000160 .L0 
     /tmp/ccbtMG19.s:312    .text:0000000000000168 .L0 
     /tmp/ccbtMG19.s:315    .text:000000000000016c .L0 
     /tmp/ccbtMG19.s:318    .text:0000000000000170 .L0 
     /tmp/ccbtMG19.s:319    .text:0000000000000170 .L0 
     /tmp/ccbtMG19.s:320    .text:0000000000000170 .L0 
     /tmp/ccbtMG19.s:321    .text:0000000000000170 .L0 
     /tmp/ccbtMG19.s:323    .text:0000000000000170 .L0 
     /tmp/ccbtMG19.s:325    .text:0000000000000178 .L0 
GAS LISTING /tmp/ccbtMG19.s 			page 17


     /tmp/ccbtMG19.s:331    .text:0000000000000178 _ZN4_sem15createSemaphoreEj
     /tmp/ccbtMG19.s:334    .text:0000000000000178 .L0 
     /tmp/ccbtMG19.s:336    .text:0000000000000178 .L0 
     /tmp/ccbtMG19.s:337    .text:000000000000017c .L0 
     /tmp/ccbtMG19.s:341    .text:0000000000000188 .L0 
     /tmp/ccbtMG19.s:342    .text:0000000000000188 .L0 
     /tmp/ccbtMG19.s:343    .text:0000000000000188 .L0 
     /tmp/ccbtMG19.s:345    .text:000000000000018c .L0 
     /tmp/ccbtMG19.s:348    .text:0000000000000190 .L0 
     /tmp/ccbtMG19.s:349    .text:0000000000000190 .L0 
     /tmp/ccbtMG19.s:356    .text:000000000000019c .L0 
     /tmp/ccbtMG19.s:362    .text:00000000000001a4 .L0 
     /tmp/ccbtMG19.s:370    .text:00000000000001ac .L0 
     /tmp/ccbtMG19.s:371    .text:00000000000001ac .L0 
     /tmp/ccbtMG19.s:372    .text:00000000000001b0 .L0 
     /tmp/ccbtMG19.s:374    .text:00000000000001b4 .L0 
     /tmp/ccbtMG19.s:375    .text:00000000000001b4 .L0 
     /tmp/ccbtMG19.s:377    .text:00000000000001b8 .L0 
     /tmp/ccbtMG19.s:379    .text:00000000000001bc .L0 
     /tmp/ccbtMG19.s:381    .text:00000000000001c0 .L0 
     /tmp/ccbtMG19.s:387    .text:00000000000001c0 _ZN4_sem9setClosedEb
     /tmp/ccbtMG19.s:390    .text:00000000000001c0 .L0 
     /tmp/ccbtMG19.s:392    .text:00000000000001c0 .L0 
     /tmp/ccbtMG19.s:393    .text:00000000000001c4 .L0 
     /tmp/ccbtMG19.s:395    .text:00000000000001c8 .L0 
     /tmp/ccbtMG19.s:397    .text:00000000000001cc .L0 
     /tmp/ccbtMG19.s:399    .text:00000000000001cc .L0 
     /tmp/ccbtMG19.s:400    .text:00000000000001cc .L0 
     /tmp/ccbtMG19.s:402    .text:00000000000001d0 .L0 
     /tmp/ccbtMG19.s:403    .text:00000000000001d4 .L0 
     /tmp/ccbtMG19.s:404    .text:00000000000001d4 .L0 
     /tmp/ccbtMG19.s:406    .text:00000000000001d8 .L0 
     /tmp/ccbtMG19.s:408    .text:00000000000001dc .L0 
     /tmp/ccbtMG19.s:414    .text:00000000000001dc _ZN4_sem5closeEv
     /tmp/ccbtMG19.s:417    .text:00000000000001dc .L0 
     /tmp/ccbtMG19.s:419    .text:00000000000001dc .L0 
     /tmp/ccbtMG19.s:420    .text:00000000000001e0 .L0 
     /tmp/ccbtMG19.s:425    .text:00000000000001f0 .L0 
     /tmp/ccbtMG19.s:426    .text:00000000000001f0 .L0 
     /tmp/ccbtMG19.s:427    .text:00000000000001f0 .L0 
     /tmp/ccbtMG19.s:428    .text:00000000000001f0 .L0 
     /tmp/ccbtMG19.s:430    .text:00000000000001f4 .L0 
     /tmp/ccbtMG19.s:433    .text:00000000000001f8 .L0 
     /tmp/ccbtMG19.s:434    .text:00000000000001f8 .L0 
     /tmp/ccbtMG19.s:444    .text:0000000000000208 .L0 
     /tmp/ccbtMG19.s:447    .text:000000000000020c .L0 
     /tmp/ccbtMG19.s:450    .text:0000000000000210 .L0 
     /tmp/ccbtMG19.s:455    .text:0000000000000218 .L0 
     /tmp/ccbtMG19.s:460    .text:000000000000021c .L0 
     /tmp/ccbtMG19.s:461    .text:000000000000021c .L0 
     /tmp/ccbtMG19.s:462    .text:000000000000021c .L0 
     /tmp/ccbtMG19.s:468    .text:0000000000000224 .L0 
     /tmp/ccbtMG19.s:469    .text:0000000000000224 .L0 
     /tmp/ccbtMG19.s:474    .text:0000000000000234 .L0 
     /tmp/ccbtMG19.s:475    .text:0000000000000234 .L0 
     /tmp/ccbtMG19.s:481    .text:0000000000000240 .L0 
     /tmp/ccbtMG19.s:485    .text:0000000000000240 .L0 
GAS LISTING /tmp/ccbtMG19.s 			page 18


     /tmp/ccbtMG19.s:486    .text:0000000000000240 .L0 
     /tmp/ccbtMG19.s:488    .text:0000000000000244 .L0 
     /tmp/ccbtMG19.s:491    .text:0000000000000248 .L0 
     /tmp/ccbtMG19.s:493    .text:000000000000024c .L0 
     /tmp/ccbtMG19.s:495    .text:0000000000000250 .L0 
     /tmp/ccbtMG19.s:503    .text:0000000000000258 .L0 
     /tmp/ccbtMG19.s:504    .text:0000000000000258 .L0 
     /tmp/ccbtMG19.s:506    .text:0000000000000260 .L0 
     /tmp/ccbtMG19.s:508    .text:0000000000000264 .L0 
     /tmp/ccbtMG19.s:509    .text:0000000000000264 .L0 
     /tmp/ccbtMG19.s:511    .text:0000000000000268 .L0 
     /tmp/ccbtMG19.s:513    .text:000000000000026c .L0 
     /tmp/ccbtMG19.s:516    .text:0000000000000270 .L0 
     /tmp/ccbtMG19.s:518    .text:0000000000000274 .L0 
     /tmp/ccbtMG19.s:525    .text:0000000000000274 .L0 
     /tmp/ccbtMG19.s:57     .text:0000000000000038 .L0 
     /tmp/ccbtMG19.s:91     .text:0000000000000060 .L0 
     /tmp/ccbtMG19.s:153    .text:00000000000000bc .L6
     /tmp/ccbtMG19.s:85     .text:0000000000000060 .L11
     /tmp/ccbtMG19.s:144    .text:00000000000000b0 .L4
     /tmp/ccbtMG19.s:53     .text:0000000000000038 .L3
     /tmp/ccbtMG19.s:133    .text:00000000000000a4 .L5
     /tmp/ccbtMG19.s:296    .text:0000000000000160 .L15
     /tmp/ccbtMG19.s:208    .text:00000000000000ec .L23
     /tmp/ccbtMG19.s:310    .text:0000000000000168 .L17
     /tmp/ccbtMG19.s:286    .text:0000000000000158 .L24
     /tmp/ccbtMG19.s:317    .text:0000000000000170 .L18
     /tmp/ccbtMG19.s:245    .text:0000000000000114 .L14
     /tmp/ccbtMG19.s:271    .text:0000000000000144 .L13
     /tmp/ccbtMG19.s:480    .text:0000000000000240 .L32
     /tmp/ccbtMG19.s:498    .text:0000000000000258 .L30
     /tmp/ccbtMG19.s:445    .text:000000000000020c .L31
     /tmp/ccbtMG19.s:439    .text:0000000000000208 .L34
     /tmp/ccbtMG19.s:2010   .debug_abbrev:0000000000000000 .Ldebug_abbrev0
     /tmp/ccbtMG19.s:3684   .debug_str:000000000000063f .LASF119
     /tmp/ccbtMG19.s:3490   .debug_str:000000000000009a .LASF120
     /tmp/ccbtMG19.s:3548   .debug_str:0000000000000215 .LASF121
     /tmp/ccbtMG19.s:5      .text:0000000000000000 .Ltext0
     /tmp/ccbtMG19.s:521    .text:0000000000000274 .Letext0
     /tmp/ccbtMG19.s:3466   .debug_line:0000000000000000 .Ldebug_line0
     /tmp/ccbtMG19.s:3616   .debug_str:0000000000000440 .LASF0
     /tmp/ccbtMG19.s:3630   .debug_str:00000000000004bb .LASF1
     /tmp/ccbtMG19.s:3606   .debug_str:00000000000003fd .LASF2
     /tmp/ccbtMG19.s:3664   .debug_str:000000000000059d .LASF3
     /tmp/ccbtMG19.s:3570   .debug_str:00000000000002ec .LASF4
     /tmp/ccbtMG19.s:3668   .debug_str:00000000000005c0 .LASF5
     /tmp/ccbtMG19.s:3498   .debug_str:00000000000000bd .LASF6
     /tmp/ccbtMG19.s:3632   .debug_str:00000000000004ce .LASF7
     /tmp/ccbtMG19.s:3614   .debug_str:000000000000042d .LASF8
     /tmp/ccbtMG19.s:3704   .debug_str:00000000000007af .LASF9
     /tmp/ccbtMG19.s:3558   .debug_str:0000000000000281 .LASF10
     /tmp/ccbtMG19.s:3642   .debug_str:000000000000050d .LASF11
     /tmp/ccbtMG19.s:3688   .debug_str:000000000000071e .LASF12
     /tmp/ccbtMG19.s:3502   .debug_str:00000000000000ca .LASF13
     /tmp/ccbtMG19.s:3478   .debug_str:000000000000003f .LASF14
     /tmp/ccbtMG19.s:3516   .debug_str:0000000000000127 .LASF15
     /tmp/ccbtMG19.s:3658   .debug_str:0000000000000560 .LASF16
GAS LISTING /tmp/ccbtMG19.s 			page 19


     /tmp/ccbtMG19.s:3526   .debug_str:0000000000000163 .LASF17
     /tmp/ccbtMG19.s:3640   .debug_str:0000000000000503 .LASF18
     /tmp/ccbtMG19.s:3550   .debug_str:0000000000000233 .LASF122
     /tmp/ccbtMG19.s:3564   .debug_str:00000000000002b5 .LASF123
     /tmp/ccbtMG19.s:3700   .debug_str:000000000000077c .LASF124
     /tmp/ccbtMG19.s:3574   .debug_str:00000000000002fc .LASF19
     /tmp/ccbtMG19.s:3690   .debug_str:000000000000072d .LASF22
     /tmp/ccbtMG19.s:3654   .debug_str:000000000000054b .LASF20
     /tmp/ccbtMG19.s:3728   .debug_str:000000000000087e .LASF21
     /tmp/ccbtMG19.s:3482   .debug_str:000000000000005c .LASF78
     /tmp/ccbtMG19.s:3534   .debug_str:00000000000001b0 .LASF23
     /tmp/ccbtMG19.s:3598   .debug_str:00000000000003bb .LASF24
     /tmp/ccbtMG19.s:3568   .debug_str:00000000000002e7 .LASF25
     /tmp/ccbtMG19.s:3620   .debug_str:0000000000000456 .LASF27
     /tmp/ccbtMG19.s:3600   .debug_str:00000000000003c0 .LASF32
     /tmp/ccbtMG19.s:3612   .debug_str:0000000000000423 .LASF125
     /tmp/ccbtMG19.s:3686   .debug_str:0000000000000703 .LASF126
     /tmp/ccbtMG19.s:3682   .debug_str:0000000000000636 .LASF26
     /tmp/ccbtMG19.s:3730   .debug_str:0000000000000883 .LASF28
     /tmp/ccbtMG19.s:3556   .debug_str:0000000000000279 .LASF29
     /tmp/ccbtMG19.s:3622   .debug_str:000000000000046d .LASF30
     /tmp/ccbtMG19.s:3610   .debug_str:0000000000000417 .LASF31
     /tmp/ccbtMG19.s:3712   .debug_str:00000000000007ea .LASF33
     /tmp/ccbtMG19.s:3512   .debug_str:0000000000000113 .LASF34
     /tmp/ccbtMG19.s:3552   .debug_str:0000000000000244 .LASF35
     /tmp/ccbtMG19.s:3624   .debug_str:000000000000048d .LASF36
     /tmp/ccbtMG19.s:3662   .debug_str:000000000000057c .LASF37
     /tmp/ccbtMG19.s:3582   .debug_str:0000000000000336 .LASF38
     /tmp/ccbtMG19.s:3566   .debug_str:00000000000002c9 .LASF39
     /tmp/ccbtMG19.s:3496   .debug_str:00000000000000b5 .LASF40
     /tmp/ccbtMG19.s:3488   .debug_str:0000000000000092 .LASF41
     /tmp/ccbtMG19.s:3694   .debug_str:0000000000000744 .LASF42
     /tmp/ccbtMG19.s:3636   .debug_str:00000000000004ec .LASF43
     /tmp/ccbtMG19.s:3580   .debug_str:0000000000000329 .LASF44
     /tmp/ccbtMG19.s:3716   .debug_str:0000000000000819 .LASF45
     /tmp/ccbtMG19.s:3652   .debug_str:0000000000000546 .LASF127
     /tmp/ccbtMG19.s:3660   .debug_str:0000000000000576 .LASF128
     /tmp/ccbtMG19.s:3680   .debug_str:0000000000000622 .LASF129
     /tmp/ccbtMG19.s:3542   .debug_str:0000000000000203 .LASF46
     /tmp/ccbtMG19.s:3588   .debug_str:0000000000000366 .LASF47
     /tmp/ccbtMG19.s:3644   .debug_str:000000000000051c .LASF48
     /tmp/ccbtMG19.s:3540   .debug_str:00000000000001e9 .LASF130
     /tmp/ccbtMG19.s:3634   .debug_str:00000000000004e1 .LASF49
     /tmp/ccbtMG19.s:3602   .debug_str:00000000000003db .LASF50
     /tmp/ccbtMG19.s:3608   .debug_str:000000000000040b .LASF51
     /tmp/ccbtMG19.s:3474   .debug_str:000000000000001a .LASF52
     /tmp/ccbtMG19.s:3484   .debug_str:000000000000007f .LASF53
     /tmp/ccbtMG19.s:3702   .debug_str:0000000000000798 .LASF54
     /tmp/ccbtMG19.s:3514   .debug_str:000000000000011d .LASF55
     /tmp/ccbtMG19.s:3586   .debug_str:000000000000034d .LASF56
     /tmp/ccbtMG19.s:3562   .debug_str:00000000000002ac .LASF57
     /tmp/ccbtMG19.s:3576   .debug_str:000000000000030a .LASF58
     /tmp/ccbtMG19.s:3486   .debug_str:0000000000000088 .LASF59
     /tmp/ccbtMG19.s:3510   .debug_str:00000000000000fa .LASF60
     /tmp/ccbtMG19.s:3708   .debug_str:00000000000007d7 .LASF61
     /tmp/ccbtMG19.s:3530   .debug_str:000000000000017f .LASF62
     /tmp/ccbtMG19.s:3726   .debug_str:0000000000000871 .LASF63
GAS LISTING /tmp/ccbtMG19.s 			page 20


     /tmp/ccbtMG19.s:3698   .debug_str:000000000000075f .LASF64
     /tmp/ccbtMG19.s:3524   .debug_str:0000000000000157 .LASF65
     /tmp/ccbtMG19.s:3626   .debug_str:0000000000000498 .LASF66
     /tmp/ccbtMG19.s:3706   .debug_str:00000000000007bf .LASF131
     /tmp/ccbtMG19.s:3508   .debug_str:00000000000000f5 .LASF67
     /tmp/ccbtMG19.s:3504   .debug_str:00000000000000da .LASF68
     /tmp/ccbtMG19.s:3518   .debug_str:0000000000000133 .LASF69
     /tmp/ccbtMG19.s:3578   .debug_str:0000000000000321 .LASF70
     /tmp/ccbtMG19.s:3572   .debug_str:00000000000002f3 .LASF71
     /tmp/ccbtMG19.s:3592   .debug_str:000000000000037a .LASF72
     /tmp/ccbtMG19.s:3470   .debug_str:0000000000000009 .LASF73
     /tmp/ccbtMG19.s:3476   .debug_str:0000000000000035 .LASF74
     /tmp/ccbtMG19.s:3492   .debug_str:00000000000000a7 .LASF75
     /tmp/ccbtMG19.s:3494   .debug_str:00000000000000ac .LASF76
     /tmp/ccbtMG19.s:3584   .debug_str:000000000000033f .LASF80
     /tmp/ccbtMG19.s:3560   .debug_str:000000000000028f .LASF82
     /tmp/ccbtMG19.s:3522   .debug_str:0000000000000149 .LASF77
     /tmp/ccbtMG19.s:3594   .debug_str:0000000000000382 .LASF79
     /tmp/ccbtMG19.s:3618   .debug_str:000000000000044d .LASF81
     /tmp/ccbtMG19.s:3678   .debug_str:000000000000060b .LASF83
     /tmp/ccbtMG19.s:3670   .debug_str:00000000000005d2 .LASF84
     /tmp/ccbtMG19.s:3506   .debug_str:00000000000000df .LASF85
     /tmp/ccbtMG19.s:3628   .debug_str:00000000000004b3 .LASF86
     /tmp/ccbtMG19.s:3554   .debug_str:0000000000000263 .LASF87
     /tmp/ccbtMG19.s:3468   .debug_str:0000000000000000 .LASF88
     /tmp/ccbtMG19.s:3500   .debug_str:00000000000000c4 .LASF89
     /tmp/ccbtMG19.s:3718   .debug_str:000000000000083d .LASF90
     /tmp/ccbtMG19.s:3676   .debug_str:00000000000005fe .LASF91
     /tmp/ccbtMG19.s:3722   .debug_str:0000000000000857 .LASF92
     /tmp/ccbtMG19.s:3666   .debug_str:00000000000005a4 .LASF93
     /tmp/ccbtMG19.s:3544   .debug_str:000000000000020b .LASF94
     /tmp/ccbtMG19.s:3656   .debug_str:0000000000000550 .LASF95
     /tmp/ccbtMG19.s:3638   .debug_str:00000000000004fc .LASF96
     /tmp/ccbtMG19.s:3696   .debug_str:000000000000074d .LASF97
     /tmp/ccbtMG19.s:3710   .debug_str:00000000000007e4 .LASF98
     /tmp/ccbtMG19.s:3538   .debug_str:00000000000001d8 .LASF99
     /tmp/ccbtMG19.s:3528   .debug_str:0000000000000179 .LASF100
     /tmp/ccbtMG19.s:3692   .debug_str:0000000000000732 .LASF101
     /tmp/ccbtMG19.s:3724   .debug_str:0000000000000867 .LASF102
     /tmp/ccbtMG19.s:3720   .debug_str:0000000000000842 .LASF103
     /tmp/ccbtMG19.s:3472   .debug_str:0000000000000011 .LASF104
     /tmp/ccbtMG19.s:3532   .debug_str:000000000000019b .LASF105
     /tmp/ccbtMG19.s:3604   .debug_str:00000000000003f6 .LASF106
     /tmp/ccbtMG19.s:3546   .debug_str:0000000000000210 .LASF107
     /tmp/ccbtMG19.s:3648   .debug_str:000000000000053c .LASF108
     /tmp/ccbtMG19.s:3536   .debug_str:00000000000001b5 .LASF110
     /tmp/ccbtMG19.s:3650   .debug_str:0000000000000541 .LASF109
     /tmp/ccbtMG19.s:3674   .debug_str:00000000000005e7 .LASF111
     /tmp/ccbtMG19.s:388    .text:00000000000001c0 .LFB29
     /tmp/ccbtMG19.s:409    .text:00000000000001dc .LFE29
     /tmp/ccbtMG19.s:332    .text:0000000000000178 .LFB28
     /tmp/ccbtMG19.s:382    .text:00000000000001c0 .LFE28
     /tmp/ccbtMG19.s:3732   .debug_str:00000000000008a4 .LASF112
     /tmp/ccbtMG19.s:3048   .debug_loc:0000000000000000 .LLST18
     /tmp/ccbtMG19.s:3596   .debug_str:00000000000003ae .LASF113
     /tmp/ccbtMG19.s:353    .text:000000000000019c .LBB70
     /tmp/ccbtMG19.s:368    .text:00000000000001ac .LBE70
GAS LISTING /tmp/ccbtMG19.s 			page 21


     /tmp/ccbtMG19.s:3062   .debug_loc:0000000000000039 .LLST19
     /tmp/ccbtMG19.s:3069   .debug_loc:000000000000005c .LLST20
     /tmp/ccbtMG19.s:359    .text:00000000000001a4 .LBB72
     /tmp/ccbtMG19.s:366    .text:00000000000001ac .LBE72
     /tmp/ccbtMG19.s:3076   .debug_loc:000000000000007f .LLST21
     /tmp/ccbtMG19.s:352    .text:000000000000019c .LVL36
     /tmp/ccbtMG19.s:415    .text:00000000000001dc .LFB27
     /tmp/ccbtMG19.s:519    .text:0000000000000274 .LFE27
     /tmp/ccbtMG19.s:3085   .debug_loc:00000000000000a4 .LLST22
     /tmp/ccbtMG19.s:3424   .debug_ranges:0000000000000000 .Ldebug_ranges0
     /tmp/ccbtMG19.s:3103   .debug_loc:00000000000000f0 .LLST23
     /tmp/ccbtMG19.s:441    .text:0000000000000208 .LBB75
     /tmp/ccbtMG19.s:3110   .debug_loc:0000000000000113 .LLST24
     /tmp/ccbtMG19.s:3125   .debug_loc:000000000000014d .LLST25
     /tmp/ccbtMG19.s:3136   .debug_loc:0000000000000183 .LLST26
     /tmp/ccbtMG19.s:451    .text:0000000000000218 .LVL44
     /tmp/ccbtMG19.s:458    .text:000000000000021c .LBB78
     /tmp/ccbtMG19.s:466    .text:0000000000000224 .LBE78
     /tmp/ccbtMG19.s:3143   .debug_loc:00000000000001a6 .LLST27
     /tmp/ccbtMG19.s:3152   .debug_loc:00000000000001cb .LLST28
     /tmp/ccbtMG19.s:472    .text:0000000000000234 .LVL47
     /tmp/ccbtMG19.s:477    .text:0000000000000240 .LVL48
     /tmp/ccbtMG19.s:436    .text:0000000000000204 .LVL41
     /tmp/ccbtMG19.s:175    .text:00000000000000c4 .LFB26
     /tmp/ccbtMG19.s:326    .text:0000000000000178 .LFE26
     /tmp/ccbtMG19.s:3159   .debug_loc:00000000000001ee .LLST12
     /tmp/ccbtMG19.s:3211   .debug_loc:00000000000002c5 .LLST14
     /tmp/ccbtMG19.s:212    .text:00000000000000ec .LBB59
     /tmp/ccbtMG19.s:3222   .debug_loc:00000000000002fb .LLST15
     /tmp/ccbtMG19.s:3258   .debug_loc:0000000000000377 .LLST16
     /tmp/ccbtMG19.s:3269   .debug_loc:00000000000003ad .LLST17
     /tmp/ccbtMG19.s:251    .text:0000000000000120 .LVL24
     /tmp/ccbtMG19.s:261    .text:0000000000000134 .LVL25
     /tmp/ccbtMG19.s:266    .text:0000000000000140 .LVL26
     /tmp/ccbtMG19.s:180    .text:00000000000000c4 .LBB55
     /tmp/ccbtMG19.s:187    .text:00000000000000c8 .LBE55
     /tmp/ccbtMG19.s:3276   .debug_loc:00000000000003d0 .LLST13
     /tmp/ccbtMG19.s:10     .text:0000000000000000 .LFB25
     /tmp/ccbtMG19.s:169    .text:00000000000000c4 .LFE25
     /tmp/ccbtMG19.s:3283   .debug_loc:00000000000003f3 .LLST0
     /tmp/ccbtMG19.s:3316   .debug_loc:000000000000047b .LLST2
     /tmp/ccbtMG19.s:101    .text:000000000000007c .LBB43
     /tmp/ccbtMG19.s:108    .text:0000000000000080 .LBE43
     /tmp/ccbtMG19.s:3323   .debug_loc:000000000000049e .LLST3
     /tmp/ccbtMG19.s:3331   .debug_loc:00000000000004c2 .LLST4
     /tmp/ccbtMG19.s:110    .text:0000000000000080 .LBB45
     /tmp/ccbtMG19.s:3338   .debug_loc:00000000000004e5 .LLST5
     /tmp/ccbtMG19.s:3349   .debug_loc:000000000000051b .LLST6
     /tmp/ccbtMG19.s:3364   .debug_loc:0000000000000555 .LLST7
     /tmp/ccbtMG19.s:117    .text:000000000000008c .LBB47
     /tmp/ccbtMG19.s:124    .text:0000000000000094 .LBE47
     /tmp/ccbtMG19.s:3375   .debug_loc:000000000000058b .LLST8
     /tmp/ccbtMG19.s:3383   .debug_loc:00000000000005af .LLST9
     /tmp/ccbtMG19.s:3390   .debug_loc:00000000000005d2 .LLST10
     /tmp/ccbtMG19.s:116    .text:000000000000008c .LVL10
     /tmp/ccbtMG19.s:99     .text:000000000000007c .LVL8
     /tmp/ccbtMG19.s:140    .text:00000000000000ac .LVL13
GAS LISTING /tmp/ccbtMG19.s 			page 22


     /tmp/ccbtMG19.s:16     .text:0000000000000000 .LBB39
     /tmp/ccbtMG19.s:24     .text:0000000000000004 .LBE39
     /tmp/ccbtMG19.s:3397   .debug_loc:00000000000005f5 .LLST1
     /tmp/ccbtMG19.s:60     .text:0000000000000044 .LBB52
     /tmp/ccbtMG19.s:68     .text:0000000000000048 .LBE52
     /tmp/ccbtMG19.s:3404   .debug_loc:0000000000000618 .LLST11
     /tmp/ccbtMG19.s:3480   .debug_str:000000000000004f .LASF114
     /tmp/ccbtMG19.s:3590   .debug_str:0000000000000374 .LASF115
     /tmp/ccbtMG19.s:3714   .debug_str:000000000000080c .LASF117
     /tmp/ccbtMG19.s:3734   .debug_str:00000000000008a9 .LASF116
     /tmp/ccbtMG19.s:3672   .debug_str:00000000000005d7 .LASF118
     /tmp/ccbtMG19.s:3646   .debug_str:0000000000000527 .LASF132
     /tmp/ccbtMG19.s:3520   .debug_str:0000000000000139 .LASF133
     /tmp/ccbtMG19.s:335    .text:0000000000000178 .LVL34
     /tmp/ccbtMG19.s:350    .text:0000000000000194 .LVL35
     /tmp/ccbtMG19.s:364    .text:00000000000001ac .LVL38
     /tmp/ccbtMG19.s:358    .text:00000000000001a4 .LVL37
     /tmp/ccbtMG19.s:418    .text:00000000000001dc .LVL40
     /tmp/ccbtMG19.s:514    .text:000000000000026c .LVL51
     /tmp/ccbtMG19.s:438    .text:0000000000000208 .LVL42
     /tmp/ccbtMG19.s:497    .text:0000000000000258 .LVL50
     /tmp/ccbtMG19.s:489    .text:0000000000000248 .LVL49
     /tmp/ccbtMG19.s:448    .text:0000000000000210 .LVL43
     /tmp/ccbtMG19.s:457    .text:000000000000021c .LVL45
     /tmp/ccbtMG19.s:464    .text:0000000000000224 .LVL46
     /tmp/ccbtMG19.s:178    .text:00000000000000c4 .LVL17
     /tmp/ccbtMG19.s:205    .text:00000000000000e8 .LVL19
     /tmp/ccbtMG19.s:207    .text:00000000000000ec .LVL20
     /tmp/ccbtMG19.s:216    .text:00000000000000f0 .LVL21
     /tmp/ccbtMG19.s:285    .text:0000000000000158 .LVL28
     /tmp/ccbtMG19.s:295    .text:0000000000000160 .LVL29
     /tmp/ccbtMG19.s:307    .text:0000000000000164 .LVL30
     /tmp/ccbtMG19.s:309    .text:0000000000000168 .LVL31
     /tmp/ccbtMG19.s:316    .text:0000000000000170 .LVL33
     /tmp/ccbtMG19.s:272    .text:0000000000000144 .LVL27
     /tmp/ccbtMG19.s:313    .text:000000000000016c .LVL32
     /tmp/ccbtMG19.s:234    .text:0000000000000108 .LVL22
     /tmp/ccbtMG19.s:248    .text:0000000000000118 .LVL23
     /tmp/ccbtMG19.s:185    .text:00000000000000c8 .LVL18
     /tmp/ccbtMG19.s:14     .text:0000000000000000 .LVL0
     /tmp/ccbtMG19.s:52     .text:0000000000000038 .LVL2
     /tmp/ccbtMG19.s:78     .text:0000000000000054 .LVL5
     /tmp/ccbtMG19.s:84     .text:0000000000000060 .LVL6
     /tmp/ccbtMG19.s:152    .text:00000000000000bc .LVL15
     /tmp/ccbtMG19.s:165    .text:00000000000000c0 .LVL16
     /tmp/ccbtMG19.s:93     .text:000000000000006c .LVL7
     /tmp/ccbtMG19.s:106    .text:0000000000000080 .LVL9
     /tmp/ccbtMG19.s:134    .text:00000000000000a4 .LVL12
     /tmp/ccbtMG19.s:143    .text:00000000000000b0 .LVL14
     /tmp/ccbtMG19.s:122    .text:0000000000000094 .LVL11
     /tmp/ccbtMG19.s:22     .text:0000000000000004 .LVL1
     /tmp/ccbtMG19.s:59     .text:0000000000000044 .LVL3
     /tmp/ccbtMG19.s:66     .text:0000000000000048 .LVL4
     /tmp/ccbtMG19.s:526    .debug_info:0000000000000000 .Ldebug_info0
     /tmp/ccbtMG19.s:88     .text:0000000000000060 .LBB42
     /tmp/ccbtMG19.s:141    .text:00000000000000ac .LBE42
     /tmp/ccbtMG19.s:145    .text:00000000000000b0 .LBB51
GAS LISTING /tmp/ccbtMG19.s 			page 23


     /tmp/ccbtMG19.s:161    .text:00000000000000bc .LBE51
     /tmp/ccbtMG19.s:136    .text:00000000000000a4 .LBE45
     /tmp/ccbtMG19.s:146    .text:00000000000000b0 .LBB50
     /tmp/ccbtMG19.s:160    .text:00000000000000bc .LBE50
     /tmp/ccbtMG19.s:211    .text:00000000000000ec .LBB58
     /tmp/ccbtMG19.s:221    .text:00000000000000f4 .LBE58
     /tmp/ccbtMG19.s:236    .text:0000000000000108 .LBB65
     /tmp/ccbtMG19.s:267    .text:0000000000000140 .LBE65
     /tmp/ccbtMG19.s:289    .text:0000000000000158 .LBB66
     /tmp/ccbtMG19.s:303    .text:0000000000000160 .LBE66
     /tmp/ccbtMG19.s:220    .text:00000000000000f4 .LBE59
     /tmp/ccbtMG19.s:237    .text:0000000000000108 .LBB63
     /tmp/ccbtMG19.s:253    .text:0000000000000120 .LBE63
     /tmp/ccbtMG19.s:290    .text:0000000000000158 .LBB64
     /tmp/ccbtMG19.s:302    .text:0000000000000160 .LBE64
     /tmp/ccbtMG19.s:440    .text:0000000000000208 .LBB74
     /tmp/ccbtMG19.s:478    .text:0000000000000240 .LBE74
     /tmp/ccbtMG19.s:482    .text:0000000000000240 .LBB81
     /tmp/ccbtMG19.s:501    .text:0000000000000258 .LBE81
     /tmp/ccbtMG19.s:453    .text:0000000000000218 .LBE75
     /tmp/ccbtMG19.s:483    .text:0000000000000240 .LBB80
     /tmp/ccbtMG19.s:500    .text:0000000000000258 .LBE80

UNDEFINED SYMBOLS
_ZN7_thread7runningE
_ZN7_thread8setBlockEb
_Znwm
_Z15thread_dispatchv
_ZdlPv
_ZN9Scheduler3putEP7_thread
