GAS LISTING /tmp/cclvgQiy.s 			page 1


   1              		.file	"_sem.cpp"
   2              		.option pic
   3              		.option norelax
   4              		.text
   5              	.Ltext0:
   6              		.align	2
   7              		.globl	_ZN4_sem4waitEv
   9              	_ZN4_sem4waitEv:
  10              	.LFB24:
  11              		.file 1 "src/_sem.cpp"
   1:src/_sem.cpp  **** //
   2:src/_sem.cpp  **** // Created by os on 10/11/25.
   3:src/_sem.cpp  **** //
   4:src/_sem.cpp  **** 
   5:src/_sem.cpp  **** #include "../h/_sem.hpp"
   6:src/_sem.cpp  **** #include "../h/syscall_c.hpp"
   7:src/_sem.cpp  **** 
   8:src/_sem.cpp  **** int _sem::wait() {
  12              		.loc 1 8 18
  13              		.cfi_startproc
  14              	.LVL0:
  15 0000 130101FE 		addi	sp,sp,-32
  16              		.cfi_def_cfa_offset 32
  17 0004 233C1100 		sd	ra,24(sp)
  18 0008 23388100 		sd	s0,16(sp)
  19 000c 23349100 		sd	s1,8(sp)
  20 0010 23302101 		sd	s2,0(sp)
  21              		.cfi_offset 1, -8
  22              		.cfi_offset 8, -16
  23              		.cfi_offset 9, -24
  24              		.cfi_offset 18, -32
  25 0014 13040102 		addi	s0,sp,32
  26              		.cfi_def_cfa 8, 0
  27 0018 93040500 		mv	s1,a0
   9:src/_sem.cpp  ****     if (--val < 0){
  28              		.loc 1 9 5
  29              	.LBB33:
  30              		.loc 1 9 11 is_stmt 0
  31 001c 83270500 		lw	a5,0(a0)
  32              		.loc 1 9 9
  33 0020 9B87F7FF 		addiw	a5,a5,-1
  34              		.loc 1 9 15
  35 0024 2320F500 		sw	a5,0(a0)
  36              		.loc 1 9 5
  37 0028 13970702 		slli	a4,a5,32
  38 002c 63400702 		bltz	a4,.L6
  39              	.LVL1:
  40              	.L2:
  41              	.LBE33:
  10:src/_sem.cpp  ****         _thread* cur = _thread::running;
  11:src/_sem.cpp  ****         cur->setBlock(true);
  12:src/_sem.cpp  ****         blocked.addLast(cur);
  13:src/_sem.cpp  ****         thread_dispatch();
  14:src/_sem.cpp  ****     }
  15:src/_sem.cpp  **** 
  16:src/_sem.cpp  ****     return this->getWaitStatus();
  42              		.loc 1 16 5 is_stmt 1
GAS LISTING /tmp/cclvgQiy.s 			page 2


  43              	.LBB42:
  44              	.LBB43:
  45              		.file 2 "src/../h/_sem.hpp"
   1:src/../h/_sem.hpp **** //
   2:src/../h/_sem.hpp **** // Created by os on 10/11/25.
   3:src/../h/_sem.hpp **** //
   4:src/../h/_sem.hpp **** 
   5:src/../h/_sem.hpp **** 
   6:src/../h/_sem.hpp **** #ifndef PROJECT_BASE__SEM_HPP
   7:src/../h/_sem.hpp **** #define PROJECT_BASE__SEM_HPP
   8:src/../h/_sem.hpp **** 
   9:src/../h/_sem.hpp **** #include "../h/list.hpp"
  10:src/../h/_sem.hpp **** #include "../h/_thread.hpp"
  11:src/../h/_sem.hpp **** #include "../lib/hw.h"
  12:src/../h/_sem.hpp **** #include "../h/syscall_c.hpp"
  13:src/../h/_sem.hpp **** 
  14:src/../h/_sem.hpp **** 
  15:src/../h/_sem.hpp **** typedef _sem* sem_t;
  16:src/../h/_sem.hpp **** 
  17:src/../h/_sem.hpp **** class _sem {
  18:src/../h/_sem.hpp **** 
  19:src/../h/_sem.hpp **** public:
  20:src/../h/_sem.hpp ****     _sem(uint32 init = 1) : val(init), waitStatus(0) {}
  21:src/../h/_sem.hpp ****     static _sem* createSemaphore(uint32 init);
  22:src/../h/_sem.hpp **** 
  23:src/../h/_sem.hpp ****     int wait();
  24:src/../h/_sem.hpp ****     int signal();
  25:src/../h/_sem.hpp ****     int close();
  26:src/../h/_sem.hpp **** 
  27:src/../h/_sem.hpp ****     int value() const { return val; }
  28:src/../h/_sem.hpp ****     void setWaitStatus(int s) { waitStatus = s;}
  29:src/../h/_sem.hpp ****     int getWaitStatus() { return waitStatus;}
  46              		.loc 2 29 27
  47              	.LBE43:
  48              	.LBE42:
  17:src/_sem.cpp  **** }
  49              		.loc 1 17 1 is_stmt 0
  50 0030 03A54400 		lw	a0,4(s1)
  51 0034 83308101 		ld	ra,24(sp)
  52              		.cfi_remember_state
  53              		.cfi_restore 1
  54 0038 03340101 		ld	s0,16(sp)
  55              		.cfi_restore 8
  56              		.cfi_def_cfa 2, 32
  57 003c 83348100 		ld	s1,8(sp)
  58              		.cfi_restore 9
  59              	.LVL2:
  60 0040 03390100 		ld	s2,0(sp)
  61              		.cfi_restore 18
  62 0044 13010102 		addi	sp,sp,32
  63              		.cfi_def_cfa_offset 0
  64 0048 67800000 		jr	ra
  65              	.LVL3:
  66              	.L6:
  67              		.cfi_restore_state
  68              	.LBB44:
  69              	.LBB34:
GAS LISTING /tmp/cclvgQiy.s 			page 3


  10:src/_sem.cpp  ****         _thread* cur = _thread::running;
  70              		.loc 1 10 9 is_stmt 1
  10:src/_sem.cpp  ****         _thread* cur = _thread::running;
  71              		.loc 1 10 18 is_stmt 0
  72 004c 97070000 		la	a5,_ZN7_thread7runningE
  72      83B70700 
  73 0054 03B90700 		ld	s2,0(a5)
  74              	.LVL4:
  11:src/_sem.cpp  ****         blocked.addLast(cur);
  75              		.loc 1 11 9 is_stmt 1
  11:src/_sem.cpp  ****         blocked.addLast(cur);
  76              		.loc 1 11 22 is_stmt 0
  77 0058 93051000 		li	a1,1
  78 005c 13050900 		mv	a0,s2
  79 0060 97000000 		call	_ZN7_thread8setBlockEb@plt
  79      E7800000 
  80              	.LVL5:
  12:src/_sem.cpp  ****         thread_dispatch();
  81              		.loc 1 12 9 is_stmt 1
  82              	.LBB35:
  83              	.LBB36:
  84              		.file 3 "src/../h/../h/list.hpp"
   1:src/../h/../h/list.hpp **** 
   2:src/../h/../h/list.hpp **** #ifndef OS1_VEZBE07_RISCV_CONTEXT_SWITCH_2_INTERRUPT_LIST_HPP
   3:src/../h/../h/list.hpp **** #define OS1_VEZBE07_RISCV_CONTEXT_SWITCH_2_INTERRUPT_LIST_HPP
   4:src/../h/../h/list.hpp **** 
   5:src/../h/../h/list.hpp **** template<typename T>
   6:src/../h/../h/list.hpp **** class List
   7:src/../h/../h/list.hpp **** {
   8:src/../h/../h/list.hpp **** private:
   9:src/../h/../h/list.hpp ****     struct Elem
  10:src/../h/../h/list.hpp ****     {
  11:src/../h/../h/list.hpp ****         T *data;
  12:src/../h/../h/list.hpp ****         Elem *next;
  13:src/../h/../h/list.hpp **** 
  14:src/../h/../h/list.hpp ****         Elem(T *data, Elem *next) : data(data), next(next) {}
  15:src/../h/../h/list.hpp ****     };
  16:src/../h/../h/list.hpp **** 
  17:src/../h/../h/list.hpp ****     Elem *head, *tail;
  18:src/../h/../h/list.hpp **** 
  19:src/../h/../h/list.hpp **** public:
  20:src/../h/../h/list.hpp ****     List() : head(0), tail(0) {}
  21:src/../h/../h/list.hpp **** 
  22:src/../h/../h/list.hpp ****     List(const List<T> &) = delete;
  23:src/../h/../h/list.hpp **** 
  24:src/../h/../h/list.hpp ****     List<T> &operator=(const List<T> &) = delete;
  25:src/../h/../h/list.hpp **** 
  26:src/../h/../h/list.hpp ****     void addFirst(T *data)
  27:src/../h/../h/list.hpp ****     {
  28:src/../h/../h/list.hpp ****         Elem *elem = new Elem(data, head);
  29:src/../h/../h/list.hpp ****         head = elem;
  30:src/../h/../h/list.hpp ****         if (!tail) { tail = head; }
  31:src/../h/../h/list.hpp ****     }
  32:src/../h/../h/list.hpp **** 
  33:src/../h/../h/list.hpp ****     void addLast(T *data)
  34:src/../h/../h/list.hpp ****     {
  35:src/../h/../h/list.hpp ****         Elem *elem = new Elem(data, 0);
GAS LISTING /tmp/cclvgQiy.s 			page 4


  85              		.loc 3 35 22 is_stmt 0
  86 0068 13050001 		li	a0,16
  87 006c 97000000 		call	_Znwm@plt
  87      E7800000 
  88              	.LVL6:
  89              	.LBB37:
  90              	.LBB38:
  14:src/../h/../h/list.hpp ****     };
  91              		.loc 3 14 58
  92 0074 23302501 		sd	s2,0(a0)
  93 0078 23340500 		sd	zero,8(a0)
  94              	.LVL7:
  95              	.LBE38:
  96              	.LBE37:
  36:src/../h/../h/list.hpp ****         if (tail)
  97              		.loc 3 36 13
  98 007c 83B70401 		ld	a5,16(s1)
  99              		.loc 3 36 9
 100 0080 638C0700 		beqz	a5,.L3
  37:src/../h/../h/list.hpp ****         {
  38:src/../h/../h/list.hpp ****             tail->next = elem;
 101              		.loc 3 38 13
 102 0084 23B4A700 		sd	a0,8(a5)
  39:src/../h/../h/list.hpp ****             tail = elem;
 103              		.loc 3 39 13
 104 0088 23B8A400 		sd	a0,16(s1)
 105              	.L4:
 106              	.LVL8:
 107              	.LBE36:
 108              	.LBE35:
  13:src/_sem.cpp  ****     }
 109              		.loc 1 13 9 is_stmt 1
  13:src/_sem.cpp  ****     }
 110              		.loc 1 13 24 is_stmt 0
 111 008c 97000000 		call	_Z15thread_dispatchv@plt
 111      E7800000 
 112              	.LVL9:
 113              	.LBE34:
 114 0094 6FF0DFF9 		j	.L2
 115              	.LVL10:
 116              	.L3:
 117              	.LBB41:
 118              	.LBB40:
 119              	.LBB39:
  40:src/../h/../h/list.hpp ****         } else
  41:src/../h/../h/list.hpp ****         {
  42:src/../h/../h/list.hpp ****             head = tail = elem;
 120              		.loc 3 42 13
 121 0098 23B8A400 		sd	a0,16(s1)
 122 009c 23B4A400 		sd	a0,8(s1)
 123 00a0 6FF0DFFE 		j	.L4
 124              	.LBE39:
 125              	.LBE40:
 126              	.LBE41:
 127              	.LBE44:
 128              		.cfi_endproc
 129              	.LFE24:
GAS LISTING /tmp/cclvgQiy.s 			page 5


 131              		.align	2
 132              		.globl	_ZN4_sem6signalEv
 134              	_ZN4_sem6signalEv:
 135              	.LFB25:
  18:src/_sem.cpp  **** 
  19:src/_sem.cpp  **** int _sem::signal() {
 136              		.loc 1 19 20 is_stmt 1
 137              		.cfi_startproc
 138              	.LVL11:
  20:src/_sem.cpp  ****     if(++val <= 0){
 139              		.loc 1 20 5
 140              	.LBB45:
 141              		.loc 1 20 10 is_stmt 0
 142 00a4 03270500 		lw	a4,0(a0)
 143              		.loc 1 20 8
 144 00a8 1B071700 		addiw	a4,a4,1
 145 00ac 9B060700 		sext.w	a3,a4
 146              		.loc 1 20 14
 147 00b0 2320E500 		sw	a4,0(a0)
 148              		.loc 1 20 5
 149 00b4 6356D000 		blez	a3,.L14
 150              	.LVL12:
 151              	.L11:
 152              	.LBE45:
  21:src/_sem.cpp  ****         if(_thread* cur = blocked.removeFirst()){
  22:src/_sem.cpp  ****             cur->setBlock(false);
  23:src/_sem.cpp  ****             Scheduler::put(cur);
  24:src/_sem.cpp  ****         }
  25:src/_sem.cpp  ****     }
  26:src/_sem.cpp  ****     return 0;
 153              		.loc 1 26 5 is_stmt 1
  27:src/_sem.cpp  **** }
 154              		.loc 1 27 1 is_stmt 0
 155 00b8 13050000 		li	a0,0
 156 00bc 67800000 		ret
 157              	.LVL13:
 158              	.L14:
 159 00c0 93070500 		mv	a5,a0
  21:src/_sem.cpp  ****         if(_thread* cur = blocked.removeFirst()){
 160              		.loc 1 21 9 is_stmt 1
 161              	.LVL14:
 162              	.LBB55:
 163              	.LBB46:
 164              	.LBB47:
 165              	.LBB48:
  43:src/../h/../h/list.hpp ****         }
  44:src/../h/../h/list.hpp ****     }
  45:src/../h/../h/list.hpp **** 
  46:src/../h/../h/list.hpp ****     T *removeFirst()
  47:src/../h/../h/list.hpp ****     {
  48:src/../h/../h/list.hpp ****         if (!head) { return 0; }
 166              		.loc 3 48 14 is_stmt 0
 167 00c4 03358500 		ld	a0,8(a0)
 168              	.LVL15:
 169              		.loc 3 48 9
 170 00c8 E30805FE 		beqz	a0,.L11
 171              	.LBE48:
GAS LISTING /tmp/cclvgQiy.s 			page 6


 172              	.LBE47:
 173              	.LBE46:
 174              	.LBE55:
  19:src/_sem.cpp  ****     if(++val <= 0){
 175              		.loc 1 19 20
 176 00cc 130101FE 		addi	sp,sp,-32
 177              		.cfi_def_cfa_offset 32
 178 00d0 233C1100 		sd	ra,24(sp)
 179 00d4 23388100 		sd	s0,16(sp)
 180 00d8 23349100 		sd	s1,8(sp)
 181              		.cfi_offset 1, -8
 182              		.cfi_offset 8, -16
 183              		.cfi_offset 9, -24
 184 00dc 13040102 		addi	s0,sp,32
 185              		.cfi_def_cfa 8, 0
 186              	.LVL16:
 187              	.LBB56:
 188              	.LBB53:
 189              	.LBB51:
 190              	.LBB49:
  49:src/../h/../h/list.hpp **** 
  50:src/../h/../h/list.hpp ****         Elem *elem = head;
  51:src/../h/../h/list.hpp ****         head = head->next;
 191              		.loc 3 51 22
 192 00e0 03378500 		ld	a4,8(a0)
 193              		.loc 3 51 9
 194 00e4 23B4E700 		sd	a4,8(a5)
  52:src/../h/../h/list.hpp ****         if (!head) { tail = 0; }
 195              		.loc 3 52 9
 196 00e8 63040704 		beqz	a4,.L15
 197              	.L9:
  53:src/../h/../h/list.hpp **** 
  54:src/../h/../h/list.hpp ****         T *ret = elem->data;
 198              		.loc 3 54 12
 199 00ec 83340500 		ld	s1,0(a0)
 200              	.LVL17:
  55:src/../h/../h/list.hpp ****         delete elem;
 201              		.loc 3 55 9
 202 00f0 97000000 		call	_ZdlPv@plt
 202      E7800000 
 203              	.LVL18:
 204              	.LBE49:
 205              	.LBE51:
  21:src/_sem.cpp  ****             cur->setBlock(false);
 206              		.loc 1 21 9
 207 00f8 63800402 		beqz	s1,.L8
  22:src/_sem.cpp  ****             Scheduler::put(cur);
 208              		.loc 1 22 13 is_stmt 1
  22:src/_sem.cpp  ****             Scheduler::put(cur);
 209              		.loc 1 22 26 is_stmt 0
 210 00fc 93050000 		li	a1,0
 211 0100 13850400 		mv	a0,s1
 212 0104 97000000 		call	_ZN7_thread8setBlockEb@plt
 212      E7800000 
 213              	.LVL19:
  23:src/_sem.cpp  ****         }
 214              		.loc 1 23 13 is_stmt 1
GAS LISTING /tmp/cclvgQiy.s 			page 7


  23:src/_sem.cpp  ****         }
 215              		.loc 1 23 27 is_stmt 0
 216 010c 13850400 		mv	a0,s1
 217 0110 97000000 		call	_ZN9Scheduler3putEP7_thread@plt
 217      E7800000 
 218              	.LVL20:
 219              	.L8:
 220              	.LBE53:
 221              	.LBE56:
  26:src/_sem.cpp  **** }
 222              		.loc 1 26 5 is_stmt 1
 223              		.loc 1 27 1 is_stmt 0
 224 0118 13050000 		li	a0,0
 225 011c 83308101 		ld	ra,24(sp)
 226              		.cfi_remember_state
 227              		.cfi_restore 1
 228 0120 03340101 		ld	s0,16(sp)
 229              		.cfi_restore 8
 230              		.cfi_def_cfa 2, 32
 231 0124 83348100 		ld	s1,8(sp)
 232              		.cfi_restore 9
 233 0128 13010102 		addi	sp,sp,32
 234              		.cfi_def_cfa_offset 0
 235 012c 67800000 		jr	ra
 236              	.LVL21:
 237              	.L15:
 238              		.cfi_restore_state
 239              	.LBB57:
 240              	.LBB54:
 241              	.LBB52:
 242              	.LBB50:
  52:src/../h/../h/list.hpp **** 
 243              		.loc 3 52 22
 244 0130 23B80700 		sd	zero,16(a5)
 245 0134 6FF09FFB 		j	.L9
 246              	.LBE50:
 247              	.LBE52:
 248              	.LBE54:
 249              	.LBE57:
 250              		.cfi_endproc
 251              	.LFE25:
 253              		.align	2
 254              		.globl	_ZN4_sem5closeEv
 256              	_ZN4_sem5closeEv:
 257              	.LFB26:
  28:src/_sem.cpp  **** 
  29:src/_sem.cpp  **** int _sem::close() {
 258              		.loc 1 29 19 is_stmt 1
 259              		.cfi_startproc
 260              	.LVL22:
 261 0138 130101FE 		addi	sp,sp,-32
 262              		.cfi_def_cfa_offset 32
 263 013c 233C1100 		sd	ra,24(sp)
 264 0140 23388100 		sd	s0,16(sp)
 265 0144 23349100 		sd	s1,8(sp)
 266 0148 23302101 		sd	s2,0(sp)
 267              		.cfi_offset 1, -8
GAS LISTING /tmp/cclvgQiy.s 			page 8


 268              		.cfi_offset 8, -16
 269              		.cfi_offset 9, -24
 270              		.cfi_offset 18, -32
 271 014c 13040102 		addi	s0,sp,32
 272              		.cfi_def_cfa 8, 0
 273 0150 13090500 		mv	s2,a0
  30:src/_sem.cpp  ****     this->setWaitStatus(-1);
 274              		.loc 1 30 5
 275              	.LVL23:
 276              	.LBB58:
 277              	.LBB59:
  28:src/../h/_sem.hpp ****     int getWaitStatus() { return waitStatus;}
 278              		.loc 2 28 33
  28:src/../h/_sem.hpp ****     int getWaitStatus() { return waitStatus;}
 279              		.loc 2 28 44 is_stmt 0
 280 0154 9307F0FF 		li	a5,-1
 281 0158 2322F500 		sw	a5,4(a0)
  28:src/../h/_sem.hpp ****     int getWaitStatus() { return waitStatus;}
 282              		.loc 2 28 48
 283 015c 6F004003 		j	.L19
 284              	.LVL24:
 285              	.L21:
 286              	.LBE59:
 287              	.LBE58:
 288              	.LBB60:
 289              	.LBB61:
 290              	.LBB62:
  52:src/../h/../h/list.hpp **** 
 291              		.loc 3 52 22
 292 0160 23380900 		sd	zero,16(s2)
 293              	.L18:
  54:src/../h/../h/list.hpp ****         delete elem;
 294              		.loc 3 54 12
 295 0164 83340500 		ld	s1,0(a0)
 296              	.LVL25:
 297              		.loc 3 55 9
 298 0168 97000000 		call	_ZdlPv@plt
 298      E7800000 
 299              	.LVL26:
 300              	.LBE62:
 301              	.LBE61:
  31:src/_sem.cpp  ****     while(_thread* cur = blocked.removeFirst()){
 302              		.loc 1 31 46
 303 0170 638C0402 		beqz	s1,.L17
  32:src/_sem.cpp  ****         cur->setBlock(false);
 304              		.loc 1 32 9 is_stmt 1
 305              		.loc 1 32 22 is_stmt 0
 306 0174 93050000 		li	a1,0
 307 0178 13850400 		mv	a0,s1
 308 017c 97000000 		call	_ZN7_thread8setBlockEb@plt
 308      E7800000 
 309              	.LVL27:
  33:src/_sem.cpp  ****         Scheduler::put(cur);
 310              		.loc 1 33 9 is_stmt 1
 311              		.loc 1 33 23 is_stmt 0
 312 0184 13850400 		mv	a0,s1
 313 0188 97000000 		call	_ZN9Scheduler3putEP7_thread@plt
GAS LISTING /tmp/cclvgQiy.s 			page 9


 313      E7800000 
 314              	.LVL28:
 315              	.LBE60:
  31:src/_sem.cpp  ****     while(_thread* cur = blocked.removeFirst()){
 316              		.loc 1 31 5 is_stmt 1
 317              	.L19:
  31:src/_sem.cpp  ****     while(_thread* cur = blocked.removeFirst()){
 318              		.loc 1 31 5
 319              	.LBB65:
 320              	.LBB64:
 321              	.LBB63:
  48:src/../h/../h/list.hpp **** 
 322              		.loc 3 48 14 is_stmt 0
 323 0190 03358900 		ld	a0,8(s2)
  48:src/../h/../h/list.hpp **** 
 324              		.loc 3 48 9
 325 0194 630A0500 		beqz	a0,.L17
 326              	.LVL29:
  51:src/../h/../h/list.hpp ****         if (!head) { tail = 0; }
 327              		.loc 3 51 22
 328 0198 83378500 		ld	a5,8(a0)
  51:src/../h/../h/list.hpp ****         if (!head) { tail = 0; }
 329              		.loc 3 51 9
 330 019c 2334F900 		sd	a5,8(s2)
  52:src/../h/../h/list.hpp **** 
 331              		.loc 3 52 9
 332 01a0 E39207FC 		bnez	a5,.L18
 333 01a4 6FF0DFFB 		j	.L21
 334              	.LVL30:
 335              	.L17:
 336              	.LBE63:
 337              	.LBE64:
 338              	.LBE65:
  34:src/_sem.cpp  ****     }
  35:src/_sem.cpp  ****     delete this;
 339              		.loc 1 35 5 is_stmt 1
 340              		.loc 1 35 12 is_stmt 0
 341 01a8 13050900 		mv	a0,s2
 342 01ac 97000000 		call	_ZdlPv@plt
 342      E7800000 
 343              	.LVL31:
  36:src/_sem.cpp  ****     return 0;
 344              		.loc 1 36 5 is_stmt 1
  37:src/_sem.cpp  **** }
 345              		.loc 1 37 1 is_stmt 0
 346 01b4 13050000 		li	a0,0
 347 01b8 83308101 		ld	ra,24(sp)
 348              		.cfi_restore 1
 349 01bc 03340101 		ld	s0,16(sp)
 350              		.cfi_restore 8
 351              		.cfi_def_cfa 2, 32
 352 01c0 83348100 		ld	s1,8(sp)
 353              		.cfi_restore 9
 354 01c4 03390100 		ld	s2,0(sp)
 355              		.cfi_restore 18
 356              	.LVL32:
 357 01c8 13010102 		addi	sp,sp,32
GAS LISTING /tmp/cclvgQiy.s 			page 10


 358              		.cfi_def_cfa_offset 0
 359 01cc 67800000 		jr	ra
 360              		.cfi_endproc
 361              	.LFE26:
 363              		.align	2
 364              		.globl	_ZN4_sem15createSemaphoreEj
 366              	_ZN4_sem15createSemaphoreEj:
 367              	.LFB27:
  38:src/_sem.cpp  **** 
  39:src/_sem.cpp  **** _sem* _sem::createSemaphore(uint32 init) {
 368              		.loc 1 39 42 is_stmt 1
 369              		.cfi_startproc
 370              	.LVL33:
 371 01d0 130101FE 		addi	sp,sp,-32
 372              		.cfi_def_cfa_offset 32
 373 01d4 233C1100 		sd	ra,24(sp)
 374 01d8 23388100 		sd	s0,16(sp)
 375 01dc 23349100 		sd	s1,8(sp)
 376              		.cfi_offset 1, -8
 377              		.cfi_offset 8, -16
 378              		.cfi_offset 9, -24
 379 01e0 13040102 		addi	s0,sp,32
 380              		.cfi_def_cfa 8, 0
 381 01e4 93040500 		mv	s1,a0
  40:src/_sem.cpp  ****     _sem* newSemaphore = new _sem(init);
 382              		.loc 1 40 5
 383              		.loc 1 40 39 is_stmt 0
 384 01e8 13058001 		li	a0,24
 385              	.LVL34:
 386 01ec 97000000 		call	_Znwm@plt
 386      E7800000 
 387              	.LVL35:
 388              	.LBB66:
 389              	.LBB67:
  20:src/../h/_sem.hpp ****     static _sem* createSemaphore(uint32 init);
 390              		.loc 2 20 52
 391 01f4 23209500 		sw	s1,0(a0)
 392 01f8 23220500 		sw	zero,4(a0)
 393              	.LVL36:
 394              	.LBB68:
 395              	.LBB69:
  20:src/../h/../h/list.hpp **** 
 396              		.loc 3 20 29
 397 01fc 23340500 		sd	zero,8(a0)
 398 0200 23380500 		sd	zero,16(a0)
 399              	.LVL37:
 400              	.LBE69:
 401              	.LBE68:
 402              	.LBE67:
 403              	.LBE66:
  41:src/_sem.cpp  ****     return newSemaphore;
 404              		.loc 1 41 5 is_stmt 1
  42:src/_sem.cpp  **** }
 405              		.loc 1 42 1 is_stmt 0
 406 0204 83308101 		ld	ra,24(sp)
 407              		.cfi_restore 1
 408 0208 03340101 		ld	s0,16(sp)
GAS LISTING /tmp/cclvgQiy.s 			page 11


 409              		.cfi_restore 8
 410              		.cfi_def_cfa 2, 32
 411 020c 83348100 		ld	s1,8(sp)
 412              		.cfi_restore 9
 413 0210 13010102 		addi	sp,sp,32
 414              		.cfi_def_cfa_offset 0
 415 0214 67800000 		jr	ra
 416              		.cfi_endproc
 417              	.LFE27:
 419              	.Letext0:
 420              		.file 4 "src/../h/../h/../lib/hw.h"
 421              		.file 5 "src/../h/../h/scheduler.hpp"
 422              		.file 6 "src/../h/../h/_thread.hpp"
 423              		.file 7 "src/../h/../h/syscall_c.hpp"
GAS LISTING /tmp/cclvgQiy.s 			page 12


DEFINED SYMBOLS
                            *ABS*:0000000000000000 _sem.cpp
     /tmp/cclvgQiy.s:9      .text:0000000000000000 _ZN4_sem4waitEv
     /tmp/cclvgQiy.s:13     .text:0000000000000000 .L0 
     /tmp/cclvgQiy.s:15     .text:0000000000000000 .L0 
     /tmp/cclvgQiy.s:16     .text:0000000000000004 .L0 
     /tmp/cclvgQiy.s:21     .text:0000000000000014 .L0 
     /tmp/cclvgQiy.s:22     .text:0000000000000014 .L0 
     /tmp/cclvgQiy.s:23     .text:0000000000000014 .L0 
     /tmp/cclvgQiy.s:24     .text:0000000000000014 .L0 
     /tmp/cclvgQiy.s:26     .text:0000000000000018 .L0 
     /tmp/cclvgQiy.s:30     .text:000000000000001c .L0 
     /tmp/cclvgQiy.s:31     .text:000000000000001c .L0 
     /tmp/cclvgQiy.s:33     .text:0000000000000020 .L0 
     /tmp/cclvgQiy.s:35     .text:0000000000000024 .L0 
     /tmp/cclvgQiy.s:37     .text:0000000000000028 .L0 
     /tmp/cclvgQiy.s:46     .text:0000000000000030 .L0 
     /tmp/cclvgQiy.s:49     .text:0000000000000030 .L0 
     /tmp/cclvgQiy.s:50     .text:0000000000000030 .L0 
     /tmp/cclvgQiy.s:52     .text:0000000000000038 .L0 
     /tmp/cclvgQiy.s:53     .text:0000000000000038 .L0 
     /tmp/cclvgQiy.s:55     .text:000000000000003c .L0 
     /tmp/cclvgQiy.s:56     .text:000000000000003c .L0 
     /tmp/cclvgQiy.s:58     .text:0000000000000040 .L0 
     /tmp/cclvgQiy.s:61     .text:0000000000000044 .L0 
     /tmp/cclvgQiy.s:63     .text:0000000000000048 .L0 
     /tmp/cclvgQiy.s:67     .text:000000000000004c .L0 
     /tmp/cclvgQiy.s:71     .text:000000000000004c .L0 
     /tmp/cclvgQiy.s:72     .text:000000000000004c .L0 
     /tmp/cclvgQiy.s:76     .text:0000000000000058 .L0 
     /tmp/cclvgQiy.s:77     .text:0000000000000058 .L0 
     /tmp/cclvgQiy.s:85     .text:0000000000000068 .L0 
     /tmp/cclvgQiy.s:86     .text:0000000000000068 .L0 
     /tmp/cclvgQiy.s:92     .text:0000000000000074 .L0 
     /tmp/cclvgQiy.s:98     .text:000000000000007c .L0 
     /tmp/cclvgQiy.s:100    .text:0000000000000080 .L0 
     /tmp/cclvgQiy.s:102    .text:0000000000000084 .L0 
     /tmp/cclvgQiy.s:104    .text:0000000000000088 .L0 
     /tmp/cclvgQiy.s:110    .text:000000000000008c .L0 
     /tmp/cclvgQiy.s:111    .text:000000000000008c .L0 
     /tmp/cclvgQiy.s:121    .text:0000000000000098 .L0 
     /tmp/cclvgQiy.s:128    .text:00000000000000a4 .L0 
     /tmp/cclvgQiy.s:134    .text:00000000000000a4 _ZN4_sem6signalEv
     /tmp/cclvgQiy.s:137    .text:00000000000000a4 .L0 
     /tmp/cclvgQiy.s:139    .text:00000000000000a4 .L0 
     /tmp/cclvgQiy.s:141    .text:00000000000000a4 .L0 
     /tmp/cclvgQiy.s:142    .text:00000000000000a4 .L0 
     /tmp/cclvgQiy.s:144    .text:00000000000000a8 .L0 
     /tmp/cclvgQiy.s:147    .text:00000000000000b0 .L0 
     /tmp/cclvgQiy.s:149    .text:00000000000000b4 .L0 
     /tmp/cclvgQiy.s:154    .text:00000000000000b8 .L0 
     /tmp/cclvgQiy.s:155    .text:00000000000000b8 .L0 
     /tmp/cclvgQiy.s:166    .text:00000000000000c4 .L0 
     /tmp/cclvgQiy.s:167    .text:00000000000000c4 .L0 
     /tmp/cclvgQiy.s:170    .text:00000000000000c8 .L0 
     /tmp/cclvgQiy.s:176    .text:00000000000000cc .L0 
     /tmp/cclvgQiy.s:177    .text:00000000000000d0 .L0 
GAS LISTING /tmp/cclvgQiy.s 			page 13


     /tmp/cclvgQiy.s:181    .text:00000000000000dc .L0 
     /tmp/cclvgQiy.s:182    .text:00000000000000dc .L0 
     /tmp/cclvgQiy.s:183    .text:00000000000000dc .L0 
     /tmp/cclvgQiy.s:185    .text:00000000000000e0 .L0 
     /tmp/cclvgQiy.s:192    .text:00000000000000e0 .L0 
     /tmp/cclvgQiy.s:194    .text:00000000000000e4 .L0 
     /tmp/cclvgQiy.s:196    .text:00000000000000e8 .L0 
     /tmp/cclvgQiy.s:199    .text:00000000000000ec .L0 
     /tmp/cclvgQiy.s:202    .text:00000000000000f0 .L0 
     /tmp/cclvgQiy.s:207    .text:00000000000000f8 .L0 
     /tmp/cclvgQiy.s:209    .text:00000000000000fc .L0 
     /tmp/cclvgQiy.s:210    .text:00000000000000fc .L0 
     /tmp/cclvgQiy.s:215    .text:000000000000010c .L0 
     /tmp/cclvgQiy.s:216    .text:000000000000010c .L0 
     /tmp/cclvgQiy.s:223    .text:0000000000000118 .L0 
     /tmp/cclvgQiy.s:224    .text:0000000000000118 .L0 
     /tmp/cclvgQiy.s:226    .text:0000000000000120 .L0 
     /tmp/cclvgQiy.s:227    .text:0000000000000120 .L0 
     /tmp/cclvgQiy.s:229    .text:0000000000000124 .L0 
     /tmp/cclvgQiy.s:230    .text:0000000000000124 .L0 
     /tmp/cclvgQiy.s:232    .text:0000000000000128 .L0 
     /tmp/cclvgQiy.s:234    .text:000000000000012c .L0 
     /tmp/cclvgQiy.s:238    .text:0000000000000130 .L0 
     /tmp/cclvgQiy.s:244    .text:0000000000000130 .L0 
     /tmp/cclvgQiy.s:250    .text:0000000000000138 .L0 
     /tmp/cclvgQiy.s:256    .text:0000000000000138 _ZN4_sem5closeEv
     /tmp/cclvgQiy.s:259    .text:0000000000000138 .L0 
     /tmp/cclvgQiy.s:261    .text:0000000000000138 .L0 
     /tmp/cclvgQiy.s:262    .text:000000000000013c .L0 
     /tmp/cclvgQiy.s:267    .text:000000000000014c .L0 
     /tmp/cclvgQiy.s:268    .text:000000000000014c .L0 
     /tmp/cclvgQiy.s:269    .text:000000000000014c .L0 
     /tmp/cclvgQiy.s:270    .text:000000000000014c .L0 
     /tmp/cclvgQiy.s:272    .text:0000000000000150 .L0 
     /tmp/cclvgQiy.s:278    .text:0000000000000154 .L0 
     /tmp/cclvgQiy.s:279    .text:0000000000000154 .L0 
     /tmp/cclvgQiy.s:280    .text:0000000000000154 .L0 
     /tmp/cclvgQiy.s:283    .text:000000000000015c .L0 
     /tmp/cclvgQiy.s:292    .text:0000000000000160 .L0 
     /tmp/cclvgQiy.s:295    .text:0000000000000164 .L0 
     /tmp/cclvgQiy.s:298    .text:0000000000000168 .L0 
     /tmp/cclvgQiy.s:303    .text:0000000000000170 .L0 
     /tmp/cclvgQiy.s:305    .text:0000000000000174 .L0 
     /tmp/cclvgQiy.s:306    .text:0000000000000174 .L0 
     /tmp/cclvgQiy.s:311    .text:0000000000000184 .L0 
     /tmp/cclvgQiy.s:312    .text:0000000000000184 .L0 
     /tmp/cclvgQiy.s:318    .text:0000000000000190 .L0 
     /tmp/cclvgQiy.s:322    .text:0000000000000190 .L0 
     /tmp/cclvgQiy.s:323    .text:0000000000000190 .L0 
     /tmp/cclvgQiy.s:325    .text:0000000000000194 .L0 
     /tmp/cclvgQiy.s:328    .text:0000000000000198 .L0 
     /tmp/cclvgQiy.s:330    .text:000000000000019c .L0 
     /tmp/cclvgQiy.s:332    .text:00000000000001a0 .L0 
     /tmp/cclvgQiy.s:340    .text:00000000000001a8 .L0 
     /tmp/cclvgQiy.s:341    .text:00000000000001a8 .L0 
     /tmp/cclvgQiy.s:345    .text:00000000000001b4 .L0 
     /tmp/cclvgQiy.s:346    .text:00000000000001b4 .L0 
GAS LISTING /tmp/cclvgQiy.s 			page 14


     /tmp/cclvgQiy.s:348    .text:00000000000001bc .L0 
     /tmp/cclvgQiy.s:350    .text:00000000000001c0 .L0 
     /tmp/cclvgQiy.s:351    .text:00000000000001c0 .L0 
     /tmp/cclvgQiy.s:353    .text:00000000000001c4 .L0 
     /tmp/cclvgQiy.s:355    .text:00000000000001c8 .L0 
     /tmp/cclvgQiy.s:358    .text:00000000000001cc .L0 
     /tmp/cclvgQiy.s:360    .text:00000000000001d0 .L0 
     /tmp/cclvgQiy.s:366    .text:00000000000001d0 _ZN4_sem15createSemaphoreEj
     /tmp/cclvgQiy.s:369    .text:00000000000001d0 .L0 
     /tmp/cclvgQiy.s:371    .text:00000000000001d0 .L0 
     /tmp/cclvgQiy.s:372    .text:00000000000001d4 .L0 
     /tmp/cclvgQiy.s:376    .text:00000000000001e0 .L0 
     /tmp/cclvgQiy.s:377    .text:00000000000001e0 .L0 
     /tmp/cclvgQiy.s:378    .text:00000000000001e0 .L0 
     /tmp/cclvgQiy.s:380    .text:00000000000001e4 .L0 
     /tmp/cclvgQiy.s:383    .text:00000000000001e8 .L0 
     /tmp/cclvgQiy.s:384    .text:00000000000001e8 .L0 
     /tmp/cclvgQiy.s:391    .text:00000000000001f4 .L0 
     /tmp/cclvgQiy.s:397    .text:00000000000001fc .L0 
     /tmp/cclvgQiy.s:405    .text:0000000000000204 .L0 
     /tmp/cclvgQiy.s:406    .text:0000000000000204 .L0 
     /tmp/cclvgQiy.s:407    .text:0000000000000208 .L0 
     /tmp/cclvgQiy.s:409    .text:000000000000020c .L0 
     /tmp/cclvgQiy.s:410    .text:000000000000020c .L0 
     /tmp/cclvgQiy.s:412    .text:0000000000000210 .L0 
     /tmp/cclvgQiy.s:414    .text:0000000000000214 .L0 
     /tmp/cclvgQiy.s:416    .text:0000000000000218 .L0 
     /tmp/cclvgQiy.s:424    .text:0000000000000218 .L0 
     /tmp/cclvgQiy.s:72     .text:000000000000004c .L0 
     /tmp/cclvgQiy.s:66     .text:000000000000004c .L6
     /tmp/cclvgQiy.s:116    .text:0000000000000098 .L3
     /tmp/cclvgQiy.s:40     .text:0000000000000030 .L2
     /tmp/cclvgQiy.s:105    .text:000000000000008c .L4
     /tmp/cclvgQiy.s:158    .text:00000000000000c0 .L14
     /tmp/cclvgQiy.s:151    .text:00000000000000b8 .L11
     /tmp/cclvgQiy.s:237    .text:0000000000000130 .L15
     /tmp/cclvgQiy.s:219    .text:0000000000000118 .L8
     /tmp/cclvgQiy.s:197    .text:00000000000000ec .L9
     /tmp/cclvgQiy.s:317    .text:0000000000000190 .L19
     /tmp/cclvgQiy.s:335    .text:00000000000001a8 .L17
     /tmp/cclvgQiy.s:293    .text:0000000000000164 .L18
     /tmp/cclvgQiy.s:285    .text:0000000000000160 .L21
     /tmp/cclvgQiy.s:1722   .debug_abbrev:0000000000000000 .Ldebug_abbrev0
     /tmp/cclvgQiy.s:3253   .debug_str:00000000000005ce .LASF103
     /tmp/cclvgQiy.s:3073   .debug_str:000000000000007e .LASF104
     /tmp/cclvgQiy.s:3119   .debug_str:00000000000001ac .LASF105
     /tmp/cclvgQiy.s:5      .text:0000000000000000 .Ltext0
     /tmp/cclvgQiy.s:419    .text:0000000000000218 .Letext0
     /tmp/cclvgQiy.s:3055   .debug_line:0000000000000000 .Ldebug_line0
     /tmp/cclvgQiy.s:3183   .debug_str:00000000000003bd .LASF0
     /tmp/cclvgQiy.s:3201   .debug_str:000000000000044f .LASF1
     /tmp/cclvgQiy.s:3169   .debug_str:0000000000000361 .LASF2
     /tmp/cclvgQiy.s:3235   .debug_str:0000000000000531 .LASF3
     /tmp/cclvgQiy.s:3139   .debug_str:000000000000026d .LASF4
     /tmp/cclvgQiy.s:3239   .debug_str:0000000000000554 .LASF5
     /tmp/cclvgQiy.s:3079   .debug_str:00000000000000ad .LASF6
     /tmp/cclvgQiy.s:3203   .debug_str:0000000000000462 .LASF7
GAS LISTING /tmp/cclvgQiy.s 			page 15


     /tmp/cclvgQiy.s:3181   .debug_str:00000000000003aa .LASF8
     /tmp/cclvgQiy.s:3271   .debug_str:0000000000000721 .LASF9
     /tmp/cclvgQiy.s:3127   .debug_str:0000000000000202 .LASF10
     /tmp/cclvgQiy.s:3213   .debug_str:00000000000004a1 .LASF11
     /tmp/cclvgQiy.s:3257   .debug_str:00000000000006ad .LASF12
     /tmp/cclvgQiy.s:3081   .debug_str:00000000000000b4 .LASF13
     /tmp/cclvgQiy.s:3061   .debug_str:0000000000000023 .LASF14
     /tmp/cclvgQiy.s:3093   .debug_str:00000000000000fb .LASF15
     /tmp/cclvgQiy.s:3229   .debug_str:00000000000004f4 .LASF16
     /tmp/cclvgQiy.s:3101   .debug_str:000000000000012b .LASF17
     /tmp/cclvgQiy.s:3211   .debug_str:0000000000000497 .LASF18
     /tmp/cclvgQiy.s:3121   .debug_str:00000000000001ca .LASF106
     /tmp/cclvgQiy.s:3133   .debug_str:0000000000000236 .LASF107
     /tmp/cclvgQiy.s:3267   .debug_str:00000000000006ee .LASF108
     /tmp/cclvgQiy.s:3143   .debug_str:000000000000027d .LASF19
     /tmp/cclvgQiy.s:3259   .debug_str:00000000000006bc .LASF22
     /tmp/cclvgQiy.s:3225   .debug_str:00000000000004df .LASF20
     /tmp/cclvgQiy.s:3287   .debug_str:00000000000007b7 .LASF21
     /tmp/cclvgQiy.s:3065   .debug_str:0000000000000040 .LASF68
     /tmp/cclvgQiy.s:3105   .debug_str:0000000000000147 .LASF23
     /tmp/cclvgQiy.s:3163   .debug_str:0000000000000326 .LASF24
     /tmp/cclvgQiy.s:3137   .debug_str:0000000000000268 .LASF25
     /tmp/cclvgQiy.s:3189   .debug_str:00000000000003ed .LASF27
     /tmp/cclvgQiy.s:3165   .debug_str:000000000000032b .LASF32
     /tmp/cclvgQiy.s:3177   .debug_str:0000000000000392 .LASF109
     /tmp/cclvgQiy.s:3255   .debug_str:0000000000000692 .LASF110
     /tmp/cclvgQiy.s:3251   .debug_str:00000000000005c5 .LASF26
     /tmp/cclvgQiy.s:3289   .debug_str:00000000000007bc .LASF28
     /tmp/cclvgQiy.s:3125   .debug_str:00000000000001fa .LASF29
     /tmp/cclvgQiy.s:3191   .debug_str:0000000000000404 .LASF30
     /tmp/cclvgQiy.s:3173   .debug_str:000000000000037b .LASF31
     /tmp/cclvgQiy.s:3277   .debug_str:000000000000074f .LASF33
     /tmp/cclvgQiy.s:3089   .debug_str:00000000000000e7 .LASF34
     /tmp/cclvgQiy.s:3123   .debug_str:00000000000001db .LASF35
     /tmp/cclvgQiy.s:3193   .debug_str:0000000000000424 .LASF36
     /tmp/cclvgQiy.s:3233   .debug_str:0000000000000510 .LASF37
     /tmp/cclvgQiy.s:3151   .debug_str:00000000000002b7 .LASF38
     /tmp/cclvgQiy.s:3135   .debug_str:000000000000024a .LASF39
     /tmp/cclvgQiy.s:3077   .debug_str:00000000000000a5 .LASF40
     /tmp/cclvgQiy.s:3071   .debug_str:0000000000000076 .LASF41
     /tmp/cclvgQiy.s:3263   .debug_str:00000000000006d3 .LASF42
     /tmp/cclvgQiy.s:3207   .debug_str:0000000000000480 .LASF43
     /tmp/cclvgQiy.s:3205   .debug_str:0000000000000475 .LASF44
     /tmp/cclvgQiy.s:3167   .debug_str:0000000000000346 .LASF45
     /tmp/cclvgQiy.s:3171   .debug_str:000000000000036f .LASF46
     /tmp/cclvgQiy.s:3059   .debug_str:0000000000000008 .LASF47
     /tmp/cclvgQiy.s:3149   .debug_str:00000000000002aa .LASF48
     /tmp/cclvgQiy.s:3281   .debug_str:000000000000077e .LASF49
     /tmp/cclvgQiy.s:3223   .debug_str:00000000000004da .LASF111
     /tmp/cclvgQiy.s:3231   .debug_str:000000000000050a .LASF112
     /tmp/cclvgQiy.s:3249   .debug_str:00000000000005b1 .LASF113
     /tmp/cclvgQiy.s:3113   .debug_str:000000000000019a .LASF114
     /tmp/cclvgQiy.s:3215   .debug_str:00000000000004b0 .LASF50
     /tmp/cclvgQiy.s:3111   .debug_str:0000000000000180 .LASF115
     /tmp/cclvgQiy.s:3067   .debug_str:0000000000000063 .LASF51
     /tmp/cclvgQiy.s:3269   .debug_str:000000000000070a .LASF52
     /tmp/cclvgQiy.s:3091   .debug_str:00000000000000f1 .LASF53
GAS LISTING /tmp/cclvgQiy.s 			page 16


     /tmp/cclvgQiy.s:3155   .debug_str:00000000000002ce .LASF54
     /tmp/cclvgQiy.s:3131   .debug_str:000000000000022d .LASF55
     /tmp/cclvgQiy.s:3145   .debug_str:000000000000028b .LASF56
     /tmp/cclvgQiy.s:3069   .debug_str:000000000000006c .LASF57
     /tmp/cclvgQiy.s:3087   .debug_str:00000000000000ce .LASF58
     /tmp/cclvgQiy.s:3273   .debug_str:0000000000000731 .LASF116
     /tmp/cclvgQiy.s:3085   .debug_str:00000000000000c9 .LASF59
     /tmp/cclvgQiy.s:3083   .debug_str:00000000000000c4 .LASF60
     /tmp/cclvgQiy.s:3095   .debug_str:0000000000000107 .LASF61
     /tmp/cclvgQiy.s:3147   .debug_str:00000000000002a2 .LASF62
     /tmp/cclvgQiy.s:3195   .debug_str:000000000000042f .LASF63
     /tmp/cclvgQiy.s:3141   .debug_str:0000000000000274 .LASF64
     /tmp/cclvgQiy.s:3199   .debug_str:0000000000000447 .LASF65
     /tmp/cclvgQiy.s:3057   .debug_str:0000000000000000 .LASF66
     /tmp/cclvgQiy.s:3153   .debug_str:00000000000002c0 .LASF70
     /tmp/cclvgQiy.s:3129   .debug_str:0000000000000210 .LASF72
     /tmp/cclvgQiy.s:3099   .debug_str:000000000000011d .LASF67
     /tmp/cclvgQiy.s:3159   .debug_str:00000000000002ed .LASF69
     /tmp/cclvgQiy.s:3185   .debug_str:00000000000003ca .LASF71
     /tmp/cclvgQiy.s:3247   .debug_str:000000000000059a .LASF73
     /tmp/cclvgQiy.s:3117   .debug_str:00000000000001a7 .LASF74
     /tmp/cclvgQiy.s:3283   .debug_str:00000000000007a2 .LASF75
     /tmp/cclvgQiy.s:3245   .debug_str:000000000000058d .LASF76
     /tmp/cclvgQiy.s:3285   .debug_str:00000000000007a7 .LASF77
     /tmp/cclvgQiy.s:3237   .debug_str:0000000000000538 .LASF78
     /tmp/cclvgQiy.s:3115   .debug_str:00000000000001a2 .LASF79
     /tmp/cclvgQiy.s:3227   .debug_str:00000000000004e4 .LASF80
     /tmp/cclvgQiy.s:3209   .debug_str:0000000000000490 .LASF81
     /tmp/cclvgQiy.s:3265   .debug_str:00000000000006dc .LASF82
     /tmp/cclvgQiy.s:3275   .debug_str:0000000000000749 .LASF83
     /tmp/cclvgQiy.s:3109   .debug_str:000000000000016f .LASF84
     /tmp/cclvgQiy.s:3103   .debug_str:0000000000000141 .LASF85
     /tmp/cclvgQiy.s:3261   .debug_str:00000000000006c1 .LASF86
     /tmp/cclvgQiy.s:3179   .debug_str:000000000000039c .LASF87
     /tmp/cclvgQiy.s:3075   .debug_str:000000000000008b .LASF88
     /tmp/cclvgQiy.s:3197   .debug_str:0000000000000439 .LASF89
     /tmp/cclvgQiy.s:3187   .debug_str:00000000000003d3 .LASF90
     /tmp/cclvgQiy.s:3175   .debug_str:0000000000000387 .LASF91
     /tmp/cclvgQiy.s:3219   .debug_str:00000000000004d0 .LASF92
     /tmp/cclvgQiy.s:3107   .debug_str:000000000000014c .LASF94
     /tmp/cclvgQiy.s:3221   .debug_str:00000000000004d5 .LASF93
     /tmp/cclvgQiy.s:3243   .debug_str:0000000000000576 .LASF95
     /tmp/cclvgQiy.s:367    .text:00000000000001d0 .LFB27
     /tmp/cclvgQiy.s:417    .text:0000000000000218 .LFE27
     /tmp/cclvgQiy.s:3291   .debug_str:00000000000007dd .LASF97
     /tmp/cclvgQiy.s:2726   .debug_loc:0000000000000000 .LLST19
     /tmp/cclvgQiy.s:3161   .debug_str:0000000000000319 .LASF96
     /tmp/cclvgQiy.s:388    .text:00000000000001f4 .LBB66
     /tmp/cclvgQiy.s:403    .text:0000000000000204 .LBE66
     /tmp/cclvgQiy.s:2740   .debug_loc:0000000000000039 .LLST20
     /tmp/cclvgQiy.s:2747   .debug_loc:000000000000005c .LLST21
     /tmp/cclvgQiy.s:394    .text:00000000000001fc .LBB68
     /tmp/cclvgQiy.s:401    .text:0000000000000204 .LBE68
     /tmp/cclvgQiy.s:2754   .debug_loc:000000000000007f .LLST22
     /tmp/cclvgQiy.s:387    .text:00000000000001f4 .LVL35
     /tmp/cclvgQiy.s:257    .text:0000000000000138 .LFB26
     /tmp/cclvgQiy.s:361    .text:00000000000001d0 .LFE26
GAS LISTING /tmp/cclvgQiy.s 			page 17


     /tmp/cclvgQiy.s:2763   .debug_loc:00000000000000a4 .LLST12
     /tmp/cclvgQiy.s:3013   .debug_ranges:0000000000000000 .Ldebug_ranges0
     /tmp/cclvgQiy.s:2781   .debug_loc:00000000000000f0 .LLST15
     /tmp/cclvgQiy.s:289    .text:0000000000000160 .LBB61
     /tmp/cclvgQiy.s:2788   .debug_loc:0000000000000113 .LLST16
     /tmp/cclvgQiy.s:2803   .debug_loc:000000000000014d .LLST17
     /tmp/cclvgQiy.s:2814   .debug_loc:0000000000000183 .LLST18
     /tmp/cclvgQiy.s:299    .text:0000000000000170 .LVL26
     /tmp/cclvgQiy.s:309    .text:0000000000000184 .LVL27
     /tmp/cclvgQiy.s:314    .text:0000000000000190 .LVL28
     /tmp/cclvgQiy.s:276    .text:0000000000000154 .LBB58
     /tmp/cclvgQiy.s:287    .text:0000000000000160 .LBE58
     /tmp/cclvgQiy.s:2821   .debug_loc:00000000000001a6 .LLST13
     /tmp/cclvgQiy.s:2830   .debug_loc:00000000000001cb .LLST14
     /tmp/cclvgQiy.s:343    .text:00000000000001b4 .LVL31
     /tmp/cclvgQiy.s:135    .text:00000000000000a4 .LFB25
     /tmp/cclvgQiy.s:251    .text:0000000000000138 .LFE25
     /tmp/cclvgQiy.s:2837   .debug_loc:00000000000001ee .LLST7
     /tmp/cclvgQiy.s:2870   .debug_loc:0000000000000276 .LLST8
     /tmp/cclvgQiy.s:164    .text:00000000000000c4 .LBB47
     /tmp/cclvgQiy.s:2877   .debug_loc:0000000000000299 .LLST9
     /tmp/cclvgQiy.s:2901   .debug_loc:00000000000002eb .LLST10
     /tmp/cclvgQiy.s:2912   .debug_loc:0000000000000321 .LLST11
     /tmp/cclvgQiy.s:203    .text:00000000000000f8 .LVL18
     /tmp/cclvgQiy.s:213    .text:000000000000010c .LVL19
     /tmp/cclvgQiy.s:218    .text:0000000000000118 .LVL20
     /tmp/cclvgQiy.s:10     .text:0000000000000000 .LFB24
     /tmp/cclvgQiy.s:129    .text:00000000000000a4 .LFE24
     /tmp/cclvgQiy.s:2919   .debug_loc:0000000000000344 .LLST0
     /tmp/cclvgQiy.s:82     .text:0000000000000068 .LBB35
     /tmp/cclvgQiy.s:2941   .debug_loc:00000000000003a3 .LLST1
     /tmp/cclvgQiy.s:2952   .debug_loc:00000000000003d9 .LLST2
     /tmp/cclvgQiy.s:2967   .debug_loc:0000000000000413 .LLST3
     /tmp/cclvgQiy.s:89     .text:0000000000000074 .LBB37
     /tmp/cclvgQiy.s:96     .text:000000000000007c .LBE37
     /tmp/cclvgQiy.s:2978   .debug_loc:0000000000000449 .LLST4
     /tmp/cclvgQiy.s:2986   .debug_loc:000000000000046d .LLST5
     /tmp/cclvgQiy.s:2993   .debug_loc:0000000000000490 .LLST6
     /tmp/cclvgQiy.s:88     .text:0000000000000074 .LVL6
     /tmp/cclvgQiy.s:80     .text:0000000000000068 .LVL5
     /tmp/cclvgQiy.s:112    .text:0000000000000094 .LVL9
     /tmp/cclvgQiy.s:43     .text:0000000000000030 .LBB42
     /tmp/cclvgQiy.s:48     .text:0000000000000030 .LBE42
     /tmp/cclvgQiy.s:3063   .debug_str:0000000000000033 .LASF98
     /tmp/cclvgQiy.s:3157   .debug_str:00000000000002e7 .LASF99
     /tmp/cclvgQiy.s:3279   .debug_str:0000000000000771 .LASF101
     /tmp/cclvgQiy.s:3293   .debug_str:00000000000007e2 .LASF100
     /tmp/cclvgQiy.s:3241   .debug_str:0000000000000566 .LASF102
     /tmp/cclvgQiy.s:3217   .debug_str:00000000000004bb .LASF117
     /tmp/cclvgQiy.s:3097   .debug_str:000000000000010d .LASF118
     /tmp/cclvgQiy.s:370    .text:00000000000001d0 .LVL33
     /tmp/cclvgQiy.s:385    .text:00000000000001ec .LVL34
     /tmp/cclvgQiy.s:399    .text:0000000000000204 .LVL37
     /tmp/cclvgQiy.s:393    .text:00000000000001fc .LVL36
     /tmp/cclvgQiy.s:260    .text:0000000000000138 .LVL22
     /tmp/cclvgQiy.s:284    .text:0000000000000160 .LVL24
     /tmp/cclvgQiy.s:356    .text:00000000000001c8 .LVL32
GAS LISTING /tmp/cclvgQiy.s 			page 18


     /tmp/cclvgQiy.s:334    .text:00000000000001a8 .LVL30
     /tmp/cclvgQiy.s:326    .text:0000000000000198 .LVL29
     /tmp/cclvgQiy.s:296    .text:0000000000000168 .LVL25
     /tmp/cclvgQiy.s:275    .text:0000000000000154 .LVL23
     /tmp/cclvgQiy.s:138    .text:00000000000000a4 .LVL11
     /tmp/cclvgQiy.s:150    .text:00000000000000b8 .LVL12
     /tmp/cclvgQiy.s:157    .text:00000000000000c0 .LVL13
     /tmp/cclvgQiy.s:168    .text:00000000000000c8 .LVL15
     /tmp/cclvgQiy.s:236    .text:0000000000000130 .LVL21
     /tmp/cclvgQiy.s:161    .text:00000000000000c4 .LVL14
     /tmp/cclvgQiy.s:186    .text:00000000000000e0 .LVL16
     /tmp/cclvgQiy.s:200    .text:00000000000000f0 .LVL17
     /tmp/cclvgQiy.s:14     .text:0000000000000000 .LVL0
     /tmp/cclvgQiy.s:39     .text:0000000000000030 .LVL1
     /tmp/cclvgQiy.s:59     .text:0000000000000040 .LVL2
     /tmp/cclvgQiy.s:65     .text:000000000000004c .LVL3
     /tmp/cclvgQiy.s:106    .text:000000000000008c .LVL8
     /tmp/cclvgQiy.s:115    .text:0000000000000098 .LVL10
     /tmp/cclvgQiy.s:94     .text:000000000000007c .LVL7
     /tmp/cclvgQiy.s:425    .debug_info:0000000000000000 .Ldebug_info0
     /tmp/cclvgQiy.s:69     .text:000000000000004c .LBB34
     /tmp/cclvgQiy.s:113    .text:0000000000000094 .LBE34
     /tmp/cclvgQiy.s:117    .text:0000000000000098 .LBB41
     /tmp/cclvgQiy.s:126    .text:00000000000000a4 .LBE41
     /tmp/cclvgQiy.s:108    .text:000000000000008c .LBE35
     /tmp/cclvgQiy.s:118    .text:0000000000000098 .LBB40
     /tmp/cclvgQiy.s:125    .text:00000000000000a4 .LBE40
     /tmp/cclvgQiy.s:163    .text:00000000000000c4 .LBB46
     /tmp/cclvgQiy.s:173    .text:00000000000000cc .LBE46
     /tmp/cclvgQiy.s:188    .text:00000000000000e0 .LBB53
     /tmp/cclvgQiy.s:220    .text:0000000000000118 .LBE53
     /tmp/cclvgQiy.s:240    .text:0000000000000130 .LBB54
     /tmp/cclvgQiy.s:248    .text:0000000000000138 .LBE54
     /tmp/cclvgQiy.s:172    .text:00000000000000cc .LBE47
     /tmp/cclvgQiy.s:189    .text:00000000000000e0 .LBB51
     /tmp/cclvgQiy.s:205    .text:00000000000000f8 .LBE51
     /tmp/cclvgQiy.s:241    .text:0000000000000130 .LBB52
     /tmp/cclvgQiy.s:247    .text:0000000000000138 .LBE52
     /tmp/cclvgQiy.s:288    .text:0000000000000160 .LBB60
     /tmp/cclvgQiy.s:315    .text:0000000000000190 .LBE60
     /tmp/cclvgQiy.s:319    .text:0000000000000190 .LBB65
     /tmp/cclvgQiy.s:338    .text:00000000000001a8 .LBE65
     /tmp/cclvgQiy.s:301    .text:0000000000000170 .LBE61
     /tmp/cclvgQiy.s:320    .text:0000000000000190 .LBB64
     /tmp/cclvgQiy.s:337    .text:00000000000001a8 .LBE64

UNDEFINED SYMBOLS
_ZN7_thread7runningE
_ZN7_thread8setBlockEb
_Znwm
_Z15thread_dispatchv
_ZdlPv
_ZN9Scheduler3putEP7_thread
