GAS LISTING /tmp/ccWLIL1M.s 			page 1


   1              		.file	"_thread.cpp"
   2              		.option pic
   3              		.option norelax
   4              		.text
   5              	.Ltext0:
   6              		.align	2
   7              		.globl	_ZN7_thread12createThreadEPFvPvES0_
   9              	_ZN7_thread12createThreadEPFvPvES0_:
  10              	.LFB32:
  11              		.file 1 "src/_thread.cpp"
   1:src/_thread.cpp **** 
   2:src/_thread.cpp **** 
   3:src/_thread.cpp **** #include "../h/_thread.hpp"
   4:src/_thread.cpp **** #include "../h/riscv.hpp"
   5:src/_thread.cpp **** 
   6:src/_thread.cpp **** _thread *_thread::running = nullptr;
   7:src/_thread.cpp **** 
   8:src/_thread.cpp **** 
   9:src/_thread.cpp **** _thread *_thread::createThread(Body body, void* args)
  10:src/_thread.cpp **** {
  12              		.loc 1 10 1
  13              		.cfi_startproc
  14              		.cfi_personality 0x9b,DW.ref.__gxx_personality_v0
  15              		.cfi_lsda 0x1b,.LLSDA32
  16              	.LVL0:
  17 0000 130101FD 		addi	sp,sp,-48
  18              		.cfi_def_cfa_offset 48
  19 0004 23341102 		sd	ra,40(sp)
  20 0008 23308102 		sd	s0,32(sp)
  21 000c 233C9100 		sd	s1,24(sp)
  22 0010 23382101 		sd	s2,16(sp)
  23 0014 23343101 		sd	s3,8(sp)
  24              		.cfi_offset 1, -8
  25              		.cfi_offset 8, -16
  26              		.cfi_offset 9, -24
  27              		.cfi_offset 18, -32
  28              		.cfi_offset 19, -40
  29 0018 13040103 		addi	s0,sp,48
  30              		.cfi_def_cfa 8, 0
  31 001c 13090500 		mv	s2,a0
  32 0020 93890500 		mv	s3,a1
  11:src/_thread.cpp ****     _thread* newThread = new _thread(body, args);
  33              		.loc 1 11 5
  34              		.loc 1 11 48 is_stmt 0
  35 0024 13058003 		li	a0,56
  36              	.LVL1:
  37              	.LEHB0:
  38 0028 97000000 		call	_Znwm@plt
  38      E7800000 
  39              	.LVL2:
  40              	.LEHE0:
  41 0030 93040500 		mv	s1,a0
  42              	.LVL3:
  43              	.LBB11:
  44              	.LBB12:
  45              		.file 2 "src/../h/_thread.hpp"
   1:src/../h/_thread.hpp **** 
GAS LISTING /tmp/ccWLIL1M.s 			page 2


   2:src/../h/_thread.hpp **** 
   3:src/../h/_thread.hpp **** #ifndef OS1_VEZBE07_RISCV_CONTEXT_SWITCH_2_INTERRUPT_TCB_HPP
   4:src/../h/_thread.hpp **** #define OS1_VEZBE07_RISCV_CONTEXT_SWITCH_2_INTERRUPT_TCB_HPP
   5:src/../h/_thread.hpp **** 
   6:src/../h/_thread.hpp **** #include "../lib/hw.h"
   7:src/../h/_thread.hpp **** #include "scheduler.hpp"
   8:src/../h/_thread.hpp **** 
   9:src/../h/_thread.hpp **** typedef _thread* thread_t;
  10:src/../h/_thread.hpp **** 
  11:src/../h/_thread.hpp **** // Thread Control Block
  12:src/../h/_thread.hpp **** class _thread
  13:src/../h/_thread.hpp **** {
  14:src/../h/_thread.hpp **** public:
  15:src/../h/_thread.hpp ****     ~_thread() { delete[] stack; }
  16:src/../h/_thread.hpp **** 
  17:src/../h/_thread.hpp ****     bool isFinished() const { return finished; }
  18:src/../h/_thread.hpp **** 
  19:src/../h/_thread.hpp ****     void setFinished(bool value) { finished = value; }
  20:src/../h/_thread.hpp **** 
  21:src/../h/_thread.hpp ****     using Body = void (*)(void*);
  22:src/../h/_thread.hpp **** 
  23:src/../h/_thread.hpp ****     static _thread *createThread(Body body, void* args);
  24:src/../h/_thread.hpp **** 
  25:src/../h/_thread.hpp ****     static void yield();
  26:src/../h/_thread.hpp **** 
  27:src/../h/_thread.hpp ****     static _thread *running;
  28:src/../h/_thread.hpp **** 
  29:src/../h/_thread.hpp ****     static int exitThread();
  30:src/../h/_thread.hpp **** 
  31:src/../h/_thread.hpp ****     void setStart(bool b);
  32:src/../h/_thread.hpp **** 
  33:src/../h/_thread.hpp **** private:
  34:src/../h/_thread.hpp ****     _thread(Body body, void* args) :
  35:src/../h/_thread.hpp ****             body(body),
  36:src/../h/_thread.hpp ****             args(args),
  37:src/../h/_thread.hpp ****             stack(body != nullptr ? new uint64[DEFAULT_STACK_SIZE] : nullptr),
  38:src/../h/_thread.hpp ****             context({
  39:src/../h/_thread.hpp ****                 (uint64) &threadWrapper,
  40:src/../h/_thread.hpp ****                 stack != nullptr ? (uint64) &stack[DEFAULT_STACK_SIZE] : 0
  41:src/../h/_thread.hpp ****             }),
  42:src/../h/_thread.hpp ****             finished(false),
  43:src/../h/_thread.hpp ****             started(true)
  46              		.loc 2 43 25
  47 0034 23302501 		sd	s2,0(a0)
  48 0038 23343501 		sd	s3,8(a0)
  37:src/../h/_thread.hpp ****             context({
  49              		.loc 2 37 35
  50 003c 630A0900 		beqz	s2,.L6
  37:src/../h/_thread.hpp ****             context({
  51              		.loc 2 37 66
  52 0040 37850000 		li	a0,32768
  53              	.LEHB1:
  54 0044 97000000 		call	_Znam@plt
  54      E7800000 
  55              	.LVL4:
  56 004c 6F008000 		j	.L2
  57              	.L6:
GAS LISTING /tmp/ccWLIL1M.s 			page 3


  37:src/../h/_thread.hpp ****             context({
  58              		.loc 2 37 35
  59 0050 13050000 		li	a0,0
  60              	.L2:
  61              		.loc 2 43 25
  62 0054 23B8A400 		sd	a0,16(s1)
  63 0058 97070000 		lla	a5,_ZN7_thread13threadWrapperEv
  63      93870700 
  64 0060 23BCF400 		sd	a5,24(s1)
  40:src/../h/_thread.hpp ****             }),
  65              		.loc 2 40 34
  66 0064 63080502 		beqz	a0,.L7
  40:src/../h/_thread.hpp ****             }),
  67              		.loc 2 40 45
  68 0068 B7870000 		li	a5,32768
  69 006c B307F500 		add	a5,a0,a5
  70              	.L3:
  71              		.loc 2 43 25
  72 0070 23B0F402 		sd	a5,32(s1)
  73 0074 23880402 		sb	zero,48(s1)
  74 0078 93071000 		li	a5,1
  75 007c A388F402 		sb	a5,49(s1)
  44:src/../h/_thread.hpp ****     {
  45:src/../h/_thread.hpp ****             if (body != nullptr) { Scheduler::put(this);}
  76              		.loc 2 45 13 is_stmt 1
  77 0080 630C0902 		beqz	s2,.L1
  78              		.loc 2 45 36
  79              		.loc 2 45 50 is_stmt 0
  80 0084 13850400 		mv	a0,s1
  81 0088 97000000 		call	_ZN9Scheduler3putEP7_thread@plt
  81      E7800000 
  82              	.LVL5:
  83              	.LEHE1:
  84 0090 6F008002 		j	.L1
  85              	.L7:
  40:src/../h/_thread.hpp ****             }),
  86              		.loc 2 40 34
  87 0094 93070000 		li	a5,0
  88 0098 6FF09FFD 		j	.L3
  89              	.L8:
  90 009c 13090500 		mv	s2,a0
  91              	.LVL6:
  92              	.LBE12:
  93              	.LBE11:
  94              		.loc 1 11 48
  95 00a0 13850400 		mv	a0,s1
  96 00a4 97000000 		call	_ZdlPv@plt
  96      E7800000 
  97              	.LVL7:
  98 00ac 13050900 		mv	a0,s2
  99              	.LEHB2:
 100 00b0 97000000 		call	_Unwind_Resume@plt
 100      E7800000 
 101              	.LVL8:
 102              	.LEHE2:
 103              	.L1:
  12:src/_thread.cpp ****     return newThread;
GAS LISTING /tmp/ccWLIL1M.s 			page 4


  13:src/_thread.cpp **** }
 104              		.loc 1 13 1
 105 00b8 13850400 		mv	a0,s1
 106 00bc 83308102 		ld	ra,40(sp)
 107              		.cfi_restore 1
 108 00c0 03340102 		ld	s0,32(sp)
 109              		.cfi_restore 8
 110              		.cfi_def_cfa 2, 48
 111 00c4 83348101 		ld	s1,24(sp)
 112              		.cfi_restore 9
 113              	.LVL9:
 114 00c8 03390101 		ld	s2,16(sp)
 115              		.cfi_restore 18
 116              	.LVL10:
 117 00cc 83398100 		ld	s3,8(sp)
 118              		.cfi_restore 19
 119              	.LVL11:
 120 00d0 13010103 		addi	sp,sp,48
 121              		.cfi_def_cfa_offset 0
 122 00d4 67800000 		jr	ra
 123              		.cfi_endproc
 124              	.LFE32:
 125              		.globl	__gxx_personality_v0
 126              		.section	.gcc_except_table,"a",@progbits
 127              	.LLSDA32:
 128 0000 FF       		.byte	0xff
 129 0001 FF       		.byte	0xff
 130 0002 03       		.byte	0x3
 131 0003 27       		.byte	0x27
 132 0004 00000000 		.4byte	.LEHB0-.LFB32
 133 0008 00000000 		.4byte	.LEHE0-.LEHB0
 134 000c 00000000 		.4byte	0
 135 0010 00       		.byte	0
 136 0011 00000000 		.4byte	.LEHB1-.LFB32
 137 0015 00000000 		.4byte	.LEHE1-.LEHB1
 138 0019 00000000 		.4byte	.L8-.LFB32
 139 001d 00       		.byte	0
 140 001e 00000000 		.4byte	.LEHB2-.LFB32
 141 0022 00000000 		.4byte	.LEHE2-.LEHB2
 142 0026 00000000 		.4byte	0
 143 002a 00       		.byte	0
 144              		.text
 146              		.align	2
 147              		.globl	_ZN7_thread8dispatchEv
 149              	_ZN7_thread8dispatchEv:
 150              	.LFB33:
  14:src/_thread.cpp **** 
  15:src/_thread.cpp **** void _thread::dispatch()
  16:src/_thread.cpp **** {
 151              		.loc 1 16 1 is_stmt 1
 152              		.cfi_startproc
 153 00d8 130101FE 		addi	sp,sp,-32
 154              		.cfi_def_cfa_offset 32
 155 00dc 233C1100 		sd	ra,24(sp)
 156 00e0 23388100 		sd	s0,16(sp)
 157 00e4 23349100 		sd	s1,8(sp)
 158              		.cfi_offset 1, -8
GAS LISTING /tmp/ccWLIL1M.s 			page 5


 159              		.cfi_offset 8, -16
 160              		.cfi_offset 9, -24
 161 00e8 13040102 		addi	s0,sp,32
 162              		.cfi_def_cfa 8, 0
  17:src/_thread.cpp ****     _thread *old = running;
 163              		.loc 1 17 5
 164              		.loc 1 17 14 is_stmt 0
 165 00ec 97040000 		ld	s1,.LANCHOR0
 165      83B40400 
 166              	.LVL12:
  18:src/_thread.cpp ****     if (!old->isFinished()) { Scheduler::put(old); }
 167              		.loc 1 18 5 is_stmt 1
 168              	.LBB13:
 169              	.LBB14:
  17:src/../h/_thread.hpp **** 
 170              		.loc 2 17 31
  17:src/../h/_thread.hpp **** 
 171              		.loc 2 17 38 is_stmt 0
 172 00f4 83C70403 		lbu	a5,48(s1)
 173              	.LVL13:
 174              	.LBE14:
 175              	.LBE13:
 176              		.loc 1 18 5
 177 00f8 638C0702 		beqz	a5,.L13
 178              	.L11:
  19:src/_thread.cpp ****     running = Scheduler::get();
 179              		.loc 1 19 5 is_stmt 1
 180              		.loc 1 19 29 is_stmt 0
 181 00fc 97000000 		call	_ZN9Scheduler3getEv@plt
 181      E7800000 
 182              	.LVL14:
 183              		.loc 1 19 13
 184 0104 97070000 		sd	a0,.LANCHOR0,a5
 184      23B0A700 
  20:src/_thread.cpp **** 
  21:src/_thread.cpp ****     _thread::contextSwitch(&old->context, &running->context);
 185              		.loc 1 21 5 is_stmt 1
 186              		.loc 1 21 27 is_stmt 0
 187 010c 93058501 		addi	a1,a0,24
 188 0110 13858401 		addi	a0,s1,24
 189 0114 97000000 		call	_ZN7_thread13contextSwitchEPNS_7ContextES1_@plt
 189      E7800000 
 190              	.LVL15:
  22:src/_thread.cpp **** }
 191              		.loc 1 22 1
 192 011c 83308101 		ld	ra,24(sp)
 193              		.cfi_remember_state
 194              		.cfi_restore 1
 195 0120 03340101 		ld	s0,16(sp)
 196              		.cfi_restore 8
 197              		.cfi_def_cfa 2, 32
 198 0124 83348100 		ld	s1,8(sp)
 199              		.cfi_restore 9
 200              	.LVL16:
 201 0128 13010102 		addi	sp,sp,32
 202              		.cfi_def_cfa_offset 0
 203 012c 67800000 		jr	ra
GAS LISTING /tmp/ccWLIL1M.s 			page 6


 204              	.LVL17:
 205              	.L13:
 206              		.cfi_restore_state
  18:src/_thread.cpp ****     running = Scheduler::get();
 207              		.loc 1 18 31 is_stmt 1 discriminator 1
  18:src/_thread.cpp ****     running = Scheduler::get();
 208              		.loc 1 18 45 is_stmt 0 discriminator 1
 209 0130 13850400 		mv	a0,s1
 210 0134 97000000 		call	_ZN9Scheduler3putEP7_thread@plt
 210      E7800000 
 211              	.LVL18:
 212 013c 6FF01FFC 		j	.L11
 213              		.cfi_endproc
 214              	.LFE33:
 216              		.align	2
 217              		.globl	_ZN7_thread13threadWrapperEv
 219              	_ZN7_thread13threadWrapperEv:
 220              	.LFB34:
  23:src/_thread.cpp **** 
  24:src/_thread.cpp **** void _thread::threadWrapper()
  25:src/_thread.cpp **** {
 221              		.loc 1 25 1 is_stmt 1
 222              		.cfi_startproc
 223 0140 130101FF 		addi	sp,sp,-16
 224              		.cfi_def_cfa_offset 16
 225 0144 23341100 		sd	ra,8(sp)
 226 0148 23308100 		sd	s0,0(sp)
 227              		.cfi_offset 1, -8
 228              		.cfi_offset 8, -16
 229 014c 13040101 		addi	s0,sp,16
 230              		.cfi_def_cfa 8, 0
  26:src/_thread.cpp ****     Riscv::popSppSpie();
 231              		.loc 1 26 5
 232              		.loc 1 26 22 is_stmt 0
 233 0150 97000000 		call	_ZN5Riscv10popSppSpieEv@plt
 233      E7800000 
 234              	.LVL19:
 235              	.L16:
  27:src/_thread.cpp ****     while(!running->started) _thread::dispatch();
 236              		.loc 1 27 5 is_stmt 1 discriminator 2
 237              		.loc 1 27 11 discriminator 2
 238              		.loc 1 27 21 is_stmt 0 discriminator 2
 239 0158 97070000 		ld	a5,.LANCHOR0
 239      83B70700 
 240 0160 03C71703 		lbu	a4,49(a5)
 241              		.loc 1 27 11 discriminator 2
 242 0164 63180700 		bnez	a4,.L15
 243              		.loc 1 27 30 is_stmt 1 discriminator 1
 244              		.loc 1 27 47 is_stmt 0 discriminator 1
 245 0168 97000000 		call	_ZN7_thread8dispatchEv
 245      E7800000 
 246              	.LVL20:
 247              		.loc 1 27 5 discriminator 1
 248 0170 6FF09FFE 		j	.L16
 249              	.L15:
  28:src/_thread.cpp ****     running->body(running->args);
 250              		.loc 1 28 5 is_stmt 1
GAS LISTING /tmp/ccWLIL1M.s 			page 7


 251              		.loc 1 28 14 is_stmt 0
 252 0174 03B70700 		ld	a4,0(a5)
 253              		.loc 1 28 18
 254 0178 03B58700 		ld	a0,8(a5)
 255 017c E7000700 		jalr	a4
 256              	.LVL21:
  29:src/_thread.cpp ****     running->setFinished(true);
 257              		.loc 1 29 5 is_stmt 1
 258              	.LBB15:
 259              	.LBB16:
  19:src/../h/_thread.hpp **** 
 260              		.loc 2 19 36
  19:src/../h/_thread.hpp **** 
 261              		.loc 2 19 45 is_stmt 0
 262 0180 97070000 		ld	a5,.LANCHOR0
 262      83B70700 
 263 0188 13071000 		li	a4,1
 264 018c 2388E702 		sb	a4,48(a5)
 265              	.LVL22:
 266              	.LBE16:
 267              	.LBE15:
  30:src/_thread.cpp ****     _thread::dispatch();
 268              		.loc 1 30 5 is_stmt 1
 269              		.loc 1 30 22 is_stmt 0
 270 0190 97000000 		call	_ZN7_thread8dispatchEv
 270      E7800000 
 271              	.LVL23:
  31:src/_thread.cpp **** }
 272              		.loc 1 31 1
 273 0198 83308100 		ld	ra,8(sp)
 274              		.cfi_restore 1
 275 019c 03340100 		ld	s0,0(sp)
 276              		.cfi_restore 8
 277              		.cfi_def_cfa 2, 16
 278 01a0 13010101 		addi	sp,sp,16
 279              		.cfi_def_cfa_offset 0
 280 01a4 67800000 		jr	ra
 281              		.cfi_endproc
 282              	.LFE34:
 284              		.align	2
 285              		.globl	_ZN7_thread10exitThreadEv
 287              	_ZN7_thread10exitThreadEv:
 288              	.LFB35:
  32:src/_thread.cpp **** 
  33:src/_thread.cpp **** int _thread::exitThread() {
 289              		.loc 1 33 27 is_stmt 1
 290              		.cfi_startproc
 291 01a8 130101FF 		addi	sp,sp,-16
 292              		.cfi_def_cfa_offset 16
 293 01ac 23341100 		sd	ra,8(sp)
 294 01b0 23308100 		sd	s0,0(sp)
 295              		.cfi_offset 1, -8
 296              		.cfi_offset 8, -16
 297 01b4 13040101 		addi	s0,sp,16
 298              		.cfi_def_cfa 8, 0
  34:src/_thread.cpp ****     _thread::running->setFinished(true);
 299              		.loc 1 34 5
GAS LISTING /tmp/ccWLIL1M.s 			page 8


 300              	.LVL24:
 301              	.LBB17:
 302              	.LBB18:
  19:src/../h/_thread.hpp **** 
 303              		.loc 2 19 36
  19:src/../h/_thread.hpp **** 
 304              		.loc 2 19 45 is_stmt 0
 305 01b8 97070000 		ld	a5,.LANCHOR0
 305      83B70700 
 306 01c0 13071000 		li	a4,1
 307 01c4 2388E702 		sb	a4,48(a5)
 308              	.LVL25:
 309              	.LBE18:
 310              	.LBE17:
  35:src/_thread.cpp ****     _thread::dispatch();
 311              		.loc 1 35 5 is_stmt 1
 312              		.loc 1 35 22 is_stmt 0
 313 01c8 97000000 		call	_ZN7_thread8dispatchEv
 313      E7800000 
 314              	.LVL26:
  36:src/_thread.cpp ****     return 0;
 315              		.loc 1 36 5 is_stmt 1
  37:src/_thread.cpp **** }
 316              		.loc 1 37 1 is_stmt 0
 317 01d0 13050000 		li	a0,0
 318 01d4 83308100 		ld	ra,8(sp)
 319              		.cfi_restore 1
 320 01d8 03340100 		ld	s0,0(sp)
 321              		.cfi_restore 8
 322              		.cfi_def_cfa 2, 16
 323 01dc 13010101 		addi	sp,sp,16
 324              		.cfi_def_cfa_offset 0
 325 01e0 67800000 		jr	ra
 326              		.cfi_endproc
 327              	.LFE35:
 329              		.align	2
 330              		.globl	_ZN7_thread8setStartEb
 332              	_ZN7_thread8setStartEb:
 333              	.LFB36:
  38:src/_thread.cpp **** 
  39:src/_thread.cpp **** void _thread::setStart(bool b) {
 334              		.loc 1 39 32 is_stmt 1
 335              		.cfi_startproc
 336              	.LVL27:
 337 01e4 130101FF 		addi	sp,sp,-16
 338              		.cfi_def_cfa_offset 16
 339 01e8 23348100 		sd	s0,8(sp)
 340              		.cfi_offset 8, -8
 341 01ec 13040101 		addi	s0,sp,16
 342              		.cfi_def_cfa 8, 0
  40:src/_thread.cpp ****     this->started = b;
 343              		.loc 1 40 5
 344              		.loc 1 40 19 is_stmt 0
 345 01f0 A308B502 		sb	a1,49(a0)
  41:src/_thread.cpp **** }
 346              		.loc 1 41 1
 347 01f4 03348100 		ld	s0,8(sp)
GAS LISTING /tmp/ccWLIL1M.s 			page 9


 348              		.cfi_restore 8
 349              		.cfi_def_cfa 2, 16
 350 01f8 13010101 		addi	sp,sp,16
 351              		.cfi_def_cfa_offset 0
 352 01fc 67800000 		jr	ra
 353              		.cfi_endproc
 354              	.LFE36:
 356              		.globl	_ZN7_thread7runningE
 357              		.bss
 358              		.align	3
 359              		.set	.LANCHOR0,. + 0
 362              	_ZN7_thread7runningE:
 363 0000 00000000 		.zero	8
 363      00000000 
 364              		.text
 365              	.Letext0:
 366              		.file 3 "src/../h/../lib/hw.h"
 367              		.file 4 "src/../h/scheduler.hpp"
 368              		.file 5 "src/../h/riscv.hpp"
 2708              		.align	3
 2711              	DW.ref.__gxx_personality_v0:
 2712 0000 00000000 		.dword	__gxx_personality_v0
 2712      00000000 
 2713              		.ident	"GCC: (Ubuntu 9.4.0-1ubuntu1~20.04) 9.4.0"
 2714              		.section	.note.GNU-stack,"",@progbits
GAS LISTING /tmp/ccWLIL1M.s 			page 10


DEFINED SYMBOLS
                            *ABS*:0000000000000000 _thread.cpp
     /tmp/ccWLIL1M.s:9      .text:0000000000000000 _ZN7_thread12createThreadEPFvPvES0_
     /tmp/ccWLIL1M.s:13     .text:0000000000000000 .L0 
     /tmp/ccWLIL1M.s:2711   .data.rel.local.DW.ref.__gxx_personality_v0:0000000000000000 DW.ref.__gxx_personality_v0
     /tmp/ccWLIL1M.s:17     .text:0000000000000000 .L0 
     /tmp/ccWLIL1M.s:18     .text:0000000000000004 .L0 
     /tmp/ccWLIL1M.s:24     .text:0000000000000018 .L0 
     /tmp/ccWLIL1M.s:25     .text:0000000000000018 .L0 
     /tmp/ccWLIL1M.s:26     .text:0000000000000018 .L0 
     /tmp/ccWLIL1M.s:27     .text:0000000000000018 .L0 
     /tmp/ccWLIL1M.s:28     .text:0000000000000018 .L0 
     /tmp/ccWLIL1M.s:30     .text:000000000000001c .L0 
     /tmp/ccWLIL1M.s:34     .text:0000000000000024 .L0 
     /tmp/ccWLIL1M.s:35     .text:0000000000000024 .L0 
     /tmp/ccWLIL1M.s:47     .text:0000000000000034 .L0 
     /tmp/ccWLIL1M.s:50     .text:000000000000003c .L0 
     /tmp/ccWLIL1M.s:52     .text:0000000000000040 .L0 
     /tmp/ccWLIL1M.s:59     .text:0000000000000050 .L0 
     /tmp/ccWLIL1M.s:62     .text:0000000000000054 .L0 
     /tmp/ccWLIL1M.s:219    .text:0000000000000140 _ZN7_thread13threadWrapperEv
     /tmp/ccWLIL1M.s:66     .text:0000000000000064 .L0 
     /tmp/ccWLIL1M.s:68     .text:0000000000000068 .L0 
     /tmp/ccWLIL1M.s:72     .text:0000000000000070 .L0 
     /tmp/ccWLIL1M.s:77     .text:0000000000000080 .L0 
     /tmp/ccWLIL1M.s:79     .text:0000000000000084 .L0 
     /tmp/ccWLIL1M.s:80     .text:0000000000000084 .L0 
     /tmp/ccWLIL1M.s:87     .text:0000000000000094 .L0 
     /tmp/ccWLIL1M.s:95     .text:00000000000000a0 .L0 
     /tmp/ccWLIL1M.s:105    .text:00000000000000b8 .L0 
     /tmp/ccWLIL1M.s:107    .text:00000000000000c0 .L0 
     /tmp/ccWLIL1M.s:109    .text:00000000000000c4 .L0 
     /tmp/ccWLIL1M.s:110    .text:00000000000000c4 .L0 
     /tmp/ccWLIL1M.s:112    .text:00000000000000c8 .L0 
     /tmp/ccWLIL1M.s:115    .text:00000000000000cc .L0 
     /tmp/ccWLIL1M.s:118    .text:00000000000000d0 .L0 
     /tmp/ccWLIL1M.s:121    .text:00000000000000d4 .L0 
     /tmp/ccWLIL1M.s:123    .text:00000000000000d8 .L0 
     /tmp/ccWLIL1M.s:149    .text:00000000000000d8 _ZN7_thread8dispatchEv
     /tmp/ccWLIL1M.s:152    .text:00000000000000d8 .L0 
     /tmp/ccWLIL1M.s:153    .text:00000000000000d8 .L0 
     /tmp/ccWLIL1M.s:154    .text:00000000000000dc .L0 
     /tmp/ccWLIL1M.s:158    .text:00000000000000e8 .L0 
     /tmp/ccWLIL1M.s:159    .text:00000000000000e8 .L0 
     /tmp/ccWLIL1M.s:160    .text:00000000000000e8 .L0 
     /tmp/ccWLIL1M.s:162    .text:00000000000000ec .L0 
     /tmp/ccWLIL1M.s:164    .text:00000000000000ec .L0 
     /tmp/ccWLIL1M.s:165    .text:00000000000000ec .L0 
     /tmp/ccWLIL1M.s:170    .text:00000000000000f4 .L0 
     /tmp/ccWLIL1M.s:171    .text:00000000000000f4 .L0 
     /tmp/ccWLIL1M.s:172    .text:00000000000000f4 .L0 
     /tmp/ccWLIL1M.s:177    .text:00000000000000f8 .L0 
     /tmp/ccWLIL1M.s:180    .text:00000000000000fc .L0 
     /tmp/ccWLIL1M.s:181    .text:00000000000000fc .L0 
     /tmp/ccWLIL1M.s:184    .text:0000000000000104 .L0 
     /tmp/ccWLIL1M.s:186    .text:000000000000010c .L0 
     /tmp/ccWLIL1M.s:187    .text:000000000000010c .L0 
GAS LISTING /tmp/ccWLIL1M.s 			page 11


     /tmp/ccWLIL1M.s:192    .text:000000000000011c .L0 
     /tmp/ccWLIL1M.s:193    .text:0000000000000120 .L0 
     /tmp/ccWLIL1M.s:194    .text:0000000000000120 .L0 
     /tmp/ccWLIL1M.s:196    .text:0000000000000124 .L0 
     /tmp/ccWLIL1M.s:197    .text:0000000000000124 .L0 
     /tmp/ccWLIL1M.s:199    .text:0000000000000128 .L0 
     /tmp/ccWLIL1M.s:202    .text:000000000000012c .L0 
     /tmp/ccWLIL1M.s:206    .text:0000000000000130 .L0 
     /tmp/ccWLIL1M.s:208    .text:0000000000000130 .L0 
     /tmp/ccWLIL1M.s:209    .text:0000000000000130 .L0 
     /tmp/ccWLIL1M.s:213    .text:0000000000000140 .L0 
     /tmp/ccWLIL1M.s:222    .text:0000000000000140 .L0 
     /tmp/ccWLIL1M.s:223    .text:0000000000000140 .L0 
     /tmp/ccWLIL1M.s:224    .text:0000000000000144 .L0 
     /tmp/ccWLIL1M.s:227    .text:000000000000014c .L0 
     /tmp/ccWLIL1M.s:228    .text:000000000000014c .L0 
     /tmp/ccWLIL1M.s:230    .text:0000000000000150 .L0 
     /tmp/ccWLIL1M.s:232    .text:0000000000000150 .L0 
     /tmp/ccWLIL1M.s:233    .text:0000000000000150 .L0 
     /tmp/ccWLIL1M.s:237    .text:0000000000000158 .L0 
     /tmp/ccWLIL1M.s:238    .text:0000000000000158 .L0 
     /tmp/ccWLIL1M.s:239    .text:0000000000000158 .L0 
     /tmp/ccWLIL1M.s:242    .text:0000000000000164 .L0 
     /tmp/ccWLIL1M.s:244    .text:0000000000000168 .L0 
     /tmp/ccWLIL1M.s:245    .text:0000000000000168 .L0 
     /tmp/ccWLIL1M.s:248    .text:0000000000000170 .L0 
     /tmp/ccWLIL1M.s:251    .text:0000000000000174 .L0 
     /tmp/ccWLIL1M.s:252    .text:0000000000000174 .L0 
     /tmp/ccWLIL1M.s:254    .text:0000000000000178 .L0 
     /tmp/ccWLIL1M.s:260    .text:0000000000000180 .L0 
     /tmp/ccWLIL1M.s:261    .text:0000000000000180 .L0 
     /tmp/ccWLIL1M.s:262    .text:0000000000000180 .L0 
     /tmp/ccWLIL1M.s:269    .text:0000000000000190 .L0 
     /tmp/ccWLIL1M.s:270    .text:0000000000000190 .L0 
     /tmp/ccWLIL1M.s:273    .text:0000000000000198 .L0 
     /tmp/ccWLIL1M.s:274    .text:000000000000019c .L0 
     /tmp/ccWLIL1M.s:276    .text:00000000000001a0 .L0 
     /tmp/ccWLIL1M.s:277    .text:00000000000001a0 .L0 
     /tmp/ccWLIL1M.s:279    .text:00000000000001a4 .L0 
     /tmp/ccWLIL1M.s:281    .text:00000000000001a8 .L0 
     /tmp/ccWLIL1M.s:287    .text:00000000000001a8 _ZN7_thread10exitThreadEv
     /tmp/ccWLIL1M.s:290    .text:00000000000001a8 .L0 
     /tmp/ccWLIL1M.s:291    .text:00000000000001a8 .L0 
     /tmp/ccWLIL1M.s:292    .text:00000000000001ac .L0 
     /tmp/ccWLIL1M.s:295    .text:00000000000001b4 .L0 
     /tmp/ccWLIL1M.s:296    .text:00000000000001b4 .L0 
     /tmp/ccWLIL1M.s:298    .text:00000000000001b8 .L0 
     /tmp/ccWLIL1M.s:303    .text:00000000000001b8 .L0 
     /tmp/ccWLIL1M.s:304    .text:00000000000001b8 .L0 
     /tmp/ccWLIL1M.s:305    .text:00000000000001b8 .L0 
     /tmp/ccWLIL1M.s:312    .text:00000000000001c8 .L0 
     /tmp/ccWLIL1M.s:313    .text:00000000000001c8 .L0 
     /tmp/ccWLIL1M.s:316    .text:00000000000001d0 .L0 
     /tmp/ccWLIL1M.s:317    .text:00000000000001d0 .L0 
     /tmp/ccWLIL1M.s:319    .text:00000000000001d8 .L0 
     /tmp/ccWLIL1M.s:321    .text:00000000000001dc .L0 
     /tmp/ccWLIL1M.s:322    .text:00000000000001dc .L0 
GAS LISTING /tmp/ccWLIL1M.s 			page 12


     /tmp/ccWLIL1M.s:324    .text:00000000000001e0 .L0 
     /tmp/ccWLIL1M.s:326    .text:00000000000001e4 .L0 
     /tmp/ccWLIL1M.s:332    .text:00000000000001e4 _ZN7_thread8setStartEb
     /tmp/ccWLIL1M.s:335    .text:00000000000001e4 .L0 
     /tmp/ccWLIL1M.s:337    .text:00000000000001e4 .L0 
     /tmp/ccWLIL1M.s:338    .text:00000000000001e8 .L0 
     /tmp/ccWLIL1M.s:340    .text:00000000000001ec .L0 
     /tmp/ccWLIL1M.s:342    .text:00000000000001f0 .L0 
     /tmp/ccWLIL1M.s:344    .text:00000000000001f0 .L0 
     /tmp/ccWLIL1M.s:345    .text:00000000000001f0 .L0 
     /tmp/ccWLIL1M.s:347    .text:00000000000001f4 .L0 
     /tmp/ccWLIL1M.s:348    .text:00000000000001f8 .L0 
     /tmp/ccWLIL1M.s:349    .text:00000000000001f8 .L0 
     /tmp/ccWLIL1M.s:351    .text:00000000000001fc .L0 
     /tmp/ccWLIL1M.s:353    .text:0000000000000200 .L0 
     /tmp/ccWLIL1M.s:362    .bss:0000000000000000 _ZN7_thread7runningE
     /tmp/ccWLIL1M.s:359    .bss:0000000000000000 .LANCHOR0
     /tmp/ccWLIL1M.s:369    .text:0000000000000200 .L0 
     /tmp/ccWLIL1M.s:63     .text:0000000000000058 .L0 
     /tmp/ccWLIL1M.s:165    .text:00000000000000ec .L0 
     /tmp/ccWLIL1M.s:184    .text:0000000000000104 .L0 
     /tmp/ccWLIL1M.s:239    .text:0000000000000158 .L0 
     /tmp/ccWLIL1M.s:262    .text:0000000000000180 .L0 
     /tmp/ccWLIL1M.s:305    .text:00000000000001b8 .L0 
     /tmp/ccWLIL1M.s:57     .text:0000000000000050 .L6
     /tmp/ccWLIL1M.s:60     .text:0000000000000054 .L2
     /tmp/ccWLIL1M.s:85     .text:0000000000000094 .L7
     /tmp/ccWLIL1M.s:103    .text:00000000000000b8 .L1
     /tmp/ccWLIL1M.s:70     .text:0000000000000070 .L3
     /tmp/ccWLIL1M.s:205    .text:0000000000000130 .L13
     /tmp/ccWLIL1M.s:178    .text:00000000000000fc .L11
     /tmp/ccWLIL1M.s:249    .text:0000000000000174 .L15
     /tmp/ccWLIL1M.s:235    .text:0000000000000158 .L16
     /tmp/ccWLIL1M.s:37     .text:0000000000000028 .LEHB0
     /tmp/ccWLIL1M.s:10     .text:0000000000000000 .LFB32
     /tmp/ccWLIL1M.s:40     .text:0000000000000030 .LEHE0
     /tmp/ccWLIL1M.s:53     .text:0000000000000044 .LEHB1
     /tmp/ccWLIL1M.s:83     .text:0000000000000090 .LEHE1
     /tmp/ccWLIL1M.s:89     .text:000000000000009c .L8
     /tmp/ccWLIL1M.s:99     .text:00000000000000b0 .LEHB2
     /tmp/ccWLIL1M.s:102    .text:00000000000000b8 .LEHE2
     /tmp/ccWLIL1M.s:1402   .debug_abbrev:0000000000000000 .Ldebug_abbrev0
     /tmp/ccWLIL1M.s:2665   .debug_str:0000000000000608 .LASF106
     /tmp/ccWLIL1M.s:2683   .debug_str:0000000000000758 .LASF107
     /tmp/ccWLIL1M.s:2529   .debug_str:00000000000001e6 .LASF108
     /tmp/ccWLIL1M.s:5      .text:0000000000000000 .Ltext0
     /tmp/ccWLIL1M.s:365    .text:0000000000000200 .Letext0
     /tmp/ccWLIL1M.s:2459   .debug_line:0000000000000000 .Ldebug_line0
     /tmp/ccWLIL1M.s:2591   .debug_str:00000000000003ef .LASF0
     /tmp/ccWLIL1M.s:2605   .debug_str:0000000000000429 .LASF1
     /tmp/ccWLIL1M.s:2581   .debug_str:00000000000003b4 .LASF2
     /tmp/ccWLIL1M.s:2515   .debug_str:0000000000000194 .LASF3
     /tmp/ccWLIL1M.s:2553   .debug_str:00000000000002b8 .LASF4
     /tmp/ccWLIL1M.s:2639   .debug_str:0000000000000527 .LASF5
     /tmp/ccWLIL1M.s:2481   .debug_str:0000000000000077 .LASF6
     /tmp/ccWLIL1M.s:2609   .debug_str:0000000000000444 .LASF7
     /tmp/ccWLIL1M.s:2589   .debug_str:00000000000003dc .LASF8
GAS LISTING /tmp/ccWLIL1M.s 			page 13


     /tmp/ccWLIL1M.s:2677   .debug_str:0000000000000729 .LASF9
     /tmp/ccWLIL1M.s:2537   .debug_str:000000000000022e .LASF10
     /tmp/ccWLIL1M.s:2621   .debug_str:00000000000004a6 .LASF11
     /tmp/ccWLIL1M.s:2667   .debug_str:00000000000006cc .LASF12
     /tmp/ccWLIL1M.s:2483   .debug_str:000000000000007e .LASF13
     /tmp/ccWLIL1M.s:2465   .debug_str:000000000000001e .LASF14
     /tmp/ccWLIL1M.s:2497   .debug_str:00000000000000e3 .LASF15
     /tmp/ccWLIL1M.s:2631   .debug_str:00000000000004e3 .LASF16
     /tmp/ccWLIL1M.s:2507   .debug_str:000000000000013b .LASF17
     /tmp/ccWLIL1M.s:2617   .debug_str:0000000000000488 .LASF18
     /tmp/ccWLIL1M.s:2531   .debug_str:0000000000000204 .LASF109
     /tmp/ccWLIL1M.s:2547   .debug_str:0000000000000292 .LASF110
     /tmp/ccWLIL1M.s:2673   .debug_str:00000000000006f6 .LASF111
     /tmp/ccWLIL1M.s:2559   .debug_str:00000000000002e9 .LASF112
     /tmp/ccWLIL1M.s:2549   .debug_str:00000000000002a6 .LASF19
     /tmp/ccWLIL1M.s:2471   .debug_str:0000000000000040 .LASF113
     /tmp/ccWLIL1M.s:2669   .debug_str:00000000000006db .LASF20
     /tmp/ccWLIL1M.s:2613   .debug_str:0000000000000462 .LASF22
     /tmp/ccWLIL1M.s:2611   .debug_str:0000000000000457 .LASF114
     /tmp/ccWLIL1M.s:2577   .debug_str:0000000000000384 .LASF115
     /tmp/ccWLIL1M.s:2583   .debug_str:00000000000003c2 .LASF21
     /tmp/ccWLIL1M.s:2575   .debug_str:0000000000000369 .LASF23
     /tmp/ccWLIL1M.s:2565   .debug_str:000000000000030a .LASF24
     /tmp/ccWLIL1M.s:2691   .debug_str:000000000000079a .LASF25
     /tmp/ccWLIL1M.s:2627   .debug_str:00000000000004d3 .LASF116
     /tmp/ccWLIL1M.s:2633   .debug_str:00000000000004f9 .LASF54
     /tmp/ccWLIL1M.s:2659   .debug_str:00000000000005d4 .LASF56
     /tmp/ccWLIL1M.s:2521   .debug_str:00000000000001bd .LASF117
     /tmp/ccWLIL1M.s:2623   .debug_str:00000000000004b5 .LASF26
     /tmp/ccWLIL1M.s:2519   .debug_str:00000000000001a3 .LASF59
     /tmp/ccWLIL1M.s:2469   .debug_str:0000000000000037 .LASF27
     /tmp/ccWLIL1M.s:2675   .debug_str:0000000000000712 .LASF28
     /tmp/ccWLIL1M.s:2681   .debug_str:0000000000000740 .LASF62
     /tmp/ccWLIL1M.s:2487   .debug_str:000000000000009e .LASF29
     /tmp/ccWLIL1M.s:2599   .debug_str:0000000000000412 .LASF30
     /tmp/ccWLIL1M.s:2597   .debug_str:000000000000040c .LASF31
     /tmp/ccWLIL1M.s:2563   .debug_str:0000000000000302 .LASF32
     /tmp/ccWLIL1M.s:2601   .debug_str:0000000000000417 .LASF33
     /tmp/ccWLIL1M.s:2557   .debug_str:00000000000002e0 .LASF34
     /tmp/ccWLIL1M.s:2603   .debug_str:0000000000000421 .LASF35
     /tmp/ccWLIL1M.s:2567   .debug_str:0000000000000317 .LASF37
     /tmp/ccWLIL1M.s:2541   .debug_str:0000000000000252 .LASF39
     /tmp/ccWLIL1M.s:2687   .debug_str:000000000000077d .LASF36
     /tmp/ccWLIL1M.s:2573   .debug_str:000000000000033d .LASF118
     /tmp/ccWLIL1M.s:2595   .debug_str:0000000000000403 .LASF38
     /tmp/ccWLIL1M.s:2657   .debug_str:00000000000005bd .LASF40
     /tmp/ccWLIL1M.s:2527   .debug_str:00000000000001e1 .LASF41
     /tmp/ccWLIL1M.s:2485   .debug_str:000000000000008e .LASF42
     /tmp/ccWLIL1M.s:2641   .debug_str:0000000000000539 .LASF43
     /tmp/ccWLIL1M.s:2499   .debug_str:00000000000000ef .LASF44
     /tmp/ccWLIL1M.s:2555   .debug_str:00000000000002bf .LASF45
     /tmp/ccWLIL1M.s:2619   .debug_str:0000000000000492 .LASF46
     /tmp/ccWLIL1M.s:2569   .debug_str:0000000000000325 .LASF47
     /tmp/ccWLIL1M.s:2463   .debug_str:0000000000000008 .LASF48
     /tmp/ccWLIL1M.s:2689   .debug_str:000000000000078b .LASF49
     /tmp/ccWLIL1M.s:2643   .debug_str:0000000000000548 .LASF50
     /tmp/ccWLIL1M.s:2663   .debug_str:00000000000005f9 .LASF51
GAS LISTING /tmp/ccWLIL1M.s 			page 14


     /tmp/ccWLIL1M.s:2661   .debug_str:00000000000005e8 .LASF52
     /tmp/ccWLIL1M.s:2501   .debug_str:0000000000000108 .LASF53
     /tmp/ccWLIL1M.s:2629   .debug_str:00000000000004d8 .LASF55
     /tmp/ccWLIL1M.s:2697   .debug_str:00000000000007d6 .LASF57
     /tmp/ccWLIL1M.s:2467   .debug_str:000000000000002e .LASF58
     /tmp/ccWLIL1M.s:2651   .debug_str:000000000000057d .LASF60
     /tmp/ccWLIL1M.s:2517   .debug_str:000000000000019a .LASF61
     /tmp/ccWLIL1M.s:2503   .debug_str:000000000000010e .LASF63
     /tmp/ccWLIL1M.s:2585   .debug_str:00000000000003ce .LASF64
     /tmp/ccWLIL1M.s:2625   .debug_str:00000000000004c0 .LASF65
     /tmp/ccWLIL1M.s:2679   .debug_str:0000000000000739 .LASF66
     /tmp/ccWLIL1M.s:2655   .debug_str:00000000000005aa .LASF67
     /tmp/ccWLIL1M.s:2607   .debug_str:000000000000043c .LASF68
     /tmp/ccWLIL1M.s:2509   .debug_str:0000000000000151 .LASF69
     /tmp/ccWLIL1M.s:2461   .debug_str:0000000000000000 .LASF70
     /tmp/ccWLIL1M.s:2543   .debug_str:000000000000026f .LASF71
     /tmp/ccWLIL1M.s:2523   .debug_str:00000000000001c5 .LASF72
     /tmp/ccWLIL1M.s:2489   .debug_str:00000000000000a3 .LASF73
     /tmp/ccWLIL1M.s:2701   .debug_str:00000000000007f9 .LASF74
     /tmp/ccWLIL1M.s:2525   .debug_str:00000000000001cd .LASF75
     /tmp/ccWLIL1M.s:2593   .debug_str:00000000000003fc .LASF76
     /tmp/ccWLIL1M.s:2693   .debug_str:00000000000007be .LASF77
     /tmp/ccWLIL1M.s:2477   .debug_str:0000000000000058 .LASF78
     /tmp/ccWLIL1M.s:2533   .debug_str:0000000000000215 .LASF79
     /tmp/ccWLIL1M.s:2535   .debug_str:0000000000000228 .LASF80
     /tmp/ccWLIL1M.s:2671   .debug_str:00000000000006e4 .LASF81
     /tmp/ccWLIL1M.s:2475   .debug_str:0000000000000052 .LASF82
     /tmp/ccWLIL1M.s:2703   .debug_str:0000000000000801 .LASF83
     /tmp/ccWLIL1M.s:2699   .debug_str:00000000000007ee .LASF84
     /tmp/ccWLIL1M.s:2637   .debug_str:000000000000050f .LASF85
     /tmp/ccWLIL1M.s:2561   .debug_str:00000000000002f7 .LASF86
     /tmp/ccWLIL1M.s:2653   .debug_str:0000000000000592 .LASF87
     /tmp/ccWLIL1M.s:2495   .debug_str:00000000000000d9 .LASF88
     /tmp/ccWLIL1M.s:2615   .debug_str:0000000000000472 .LASF89
     /tmp/ccWLIL1M.s:2473   .debug_str:0000000000000048 .LASF90
     /tmp/ccWLIL1M.s:2539   .debug_str:000000000000023c .LASF91
     /tmp/ccWLIL1M.s:2645   .debug_str:0000000000000558 .LASF92
     /tmp/ccWLIL1M.s:2491   .debug_str:00000000000000b7 .LASF93
     /tmp/ccWLIL1M.s:2685   .debug_str:0000000000000768 .LASF94
     /tmp/ccWLIL1M.s:2513   .debug_str:0000000000000172 .LASF95
     /tmp/ccWLIL1M.s:2579   .debug_str:000000000000039f .LASF119
     /tmp/ccWLIL1M.s:333    .text:00000000000001e4 .LFB36
     /tmp/ccWLIL1M.s:354    .text:0000000000000200 .LFE36
     /tmp/ccWLIL1M.s:2695   .debug_str:00000000000007d1 .LASF96
     /tmp/ccWLIL1M.s:288    .text:00000000000001a8 .LFB35
     /tmp/ccWLIL1M.s:327    .text:00000000000001e4 .LFE35
     /tmp/ccWLIL1M.s:301    .text:00000000000001b8 .LBB17
     /tmp/ccWLIL1M.s:310    .text:00000000000001c8 .LBE17
     /tmp/ccWLIL1M.s:2299   .debug_loc:0000000000000000 .LLST9
     /tmp/ccWLIL1M.s:2307   .debug_loc:0000000000000024 .LLST10
     /tmp/ccWLIL1M.s:314    .text:00000000000001d0 .LVL26
     /tmp/ccWLIL1M.s:220    .text:0000000000000140 .LFB34
     /tmp/ccWLIL1M.s:282    .text:00000000000001a8 .LFE34
     /tmp/ccWLIL1M.s:258    .text:0000000000000180 .LBB15
     /tmp/ccWLIL1M.s:267    .text:0000000000000190 .LBE15
     /tmp/ccWLIL1M.s:2315   .debug_loc:000000000000004f .LLST7
     /tmp/ccWLIL1M.s:2323   .debug_loc:0000000000000073 .LLST8
GAS LISTING /tmp/ccWLIL1M.s 			page 15


     /tmp/ccWLIL1M.s:234    .text:0000000000000158 .LVL19
     /tmp/ccWLIL1M.s:246    .text:0000000000000170 .LVL20
     /tmp/ccWLIL1M.s:271    .text:0000000000000198 .LVL23
     /tmp/ccWLIL1M.s:150    .text:00000000000000d8 .LFB33
     /tmp/ccWLIL1M.s:214    .text:0000000000000140 .LFE33
     /tmp/ccWLIL1M.s:2331   .debug_loc:000000000000009e .LLST5
     /tmp/ccWLIL1M.s:168    .text:00000000000000f4 .LBB13
     /tmp/ccWLIL1M.s:175    .text:00000000000000f8 .LBE13
     /tmp/ccWLIL1M.s:2342   .debug_loc:00000000000000d4 .LLST6
     /tmp/ccWLIL1M.s:182    .text:0000000000000104 .LVL14
     /tmp/ccWLIL1M.s:190    .text:000000000000011c .LVL15
     /tmp/ccWLIL1M.s:211    .text:000000000000013c .LVL18
     /tmp/ccWLIL1M.s:124    .text:00000000000000d8 .LFE32
     /tmp/ccWLIL1M.s:2349   .debug_loc:00000000000000f7 .LLST0
     /tmp/ccWLIL1M.s:2378   .debug_loc:000000000000016c .LLST1
     /tmp/ccWLIL1M.s:2551   .debug_str:00000000000002ae .LASF120
     /tmp/ccWLIL1M.s:43     .text:0000000000000034 .LBB11
     /tmp/ccWLIL1M.s:93     .text:00000000000000a0 .LBE11
     /tmp/ccWLIL1M.s:2396   .debug_loc:00000000000001b8 .LLST2
     /tmp/ccWLIL1M.s:2410   .debug_loc:00000000000001f1 .LLST3
     /tmp/ccWLIL1M.s:2435   .debug_loc:0000000000000253 .LLST4
     /tmp/ccWLIL1M.s:55     .text:000000000000004c .LVL4
     /tmp/ccWLIL1M.s:82     .text:0000000000000090 .LVL5
     /tmp/ccWLIL1M.s:39     .text:0000000000000030 .LVL2
     /tmp/ccWLIL1M.s:97     .text:00000000000000ac .LVL7
     /tmp/ccWLIL1M.s:101    .text:00000000000000b8 .LVL8
     /tmp/ccWLIL1M.s:2479   .debug_str:000000000000005f .LASF121
     /tmp/ccWLIL1M.s:2493   .debug_str:00000000000000d3 .LASF97
     /tmp/ccWLIL1M.s:2649   .debug_str:0000000000000577 .LASF98
     /tmp/ccWLIL1M.s:2635   .debug_str:00000000000004ff .LASF100
     /tmp/ccWLIL1M.s:2571   .debug_str:0000000000000337 .LASF99
     /tmp/ccWLIL1M.s:2511   .debug_str:0000000000000165 .LASF101
     /tmp/ccWLIL1M.s:2587   .debug_str:00000000000003d5 .LASF102
     /tmp/ccWLIL1M.s:2647   .debug_str:0000000000000567 .LASF103
     /tmp/ccWLIL1M.s:2545   .debug_str:0000000000000283 .LASF104
     /tmp/ccWLIL1M.s:2505   .debug_str:0000000000000123 .LASF105
     /tmp/ccWLIL1M.s:300    .text:00000000000001b8 .LVL24
     /tmp/ccWLIL1M.s:308    .text:00000000000001c8 .LVL25
     /tmp/ccWLIL1M.s:256    .text:0000000000000180 .LVL21
     /tmp/ccWLIL1M.s:265    .text:0000000000000190 .LVL22
     /tmp/ccWLIL1M.s:166    .text:00000000000000f4 .LVL12
     /tmp/ccWLIL1M.s:200    .text:0000000000000128 .LVL16
     /tmp/ccWLIL1M.s:204    .text:0000000000000130 .LVL17
     /tmp/ccWLIL1M.s:173    .text:00000000000000f8 .LVL13
     /tmp/ccWLIL1M.s:16     .text:0000000000000000 .LVL0
     /tmp/ccWLIL1M.s:36     .text:0000000000000028 .LVL1
     /tmp/ccWLIL1M.s:91     .text:00000000000000a0 .LVL6
     /tmp/ccWLIL1M.s:116    .text:00000000000000cc .LVL10
     /tmp/ccWLIL1M.s:119    .text:00000000000000d0 .LVL11
     /tmp/ccWLIL1M.s:42     .text:0000000000000034 .LVL3
     /tmp/ccWLIL1M.s:113    .text:00000000000000c8 .LVL9
     /tmp/ccWLIL1M.s:370    .debug_info:0000000000000000 .Ldebug_info0
     /tmp/ccWLIL1M.s:127    .gcc_except_table:0000000000000000 .LLSDA32

UNDEFINED SYMBOLS
_Znwm
_Znam
GAS LISTING /tmp/ccWLIL1M.s 			page 16


_ZN9Scheduler3putEP7_thread
_ZdlPv
_Unwind_Resume
__gxx_personality_v0
_ZN9Scheduler3getEv
_ZN7_thread13contextSwitchEPNS_7ContextES1_
_ZN5Riscv10popSppSpieEv
