GAS LISTING /tmp/ccTFBKyz.s 			page 1


   1              		.file	"_thread.cpp"
   2              		.option pic
   3              		.option norelax
   4              		.text
   5              	.Ltext0:
   6              		.align	2
   7              		.globl	_ZN7_thread13threadWrapperEv
   9              	_ZN7_thread13threadWrapperEv:
  10              	.LFB36:
  11              		.file 1 "src/_thread.cpp"
   1:src/_thread.cpp **** 
   2:src/_thread.cpp **** 
   3:src/_thread.cpp **** #include "../h/_thread.hpp"
   4:src/_thread.cpp **** #include "../h/riscv.hpp"
   5:src/_thread.cpp **** #include "../h/syscall_c.hpp"
   6:src/_thread.cpp **** 
   7:src/_thread.cpp **** _thread *_thread::running = nullptr;
   8:src/_thread.cpp **** 
   9:src/_thread.cpp **** 
  10:src/_thread.cpp **** _thread *_thread::createThread(Body body, void* args)
  11:src/_thread.cpp **** {
  12:src/_thread.cpp ****     _thread* newThread = new _thread(body, args);
  13:src/_thread.cpp ****     return newThread;
  14:src/_thread.cpp **** }
  15:src/_thread.cpp **** 
  16:src/_thread.cpp **** void _thread::dispatch()
  17:src/_thread.cpp **** {
  18:src/_thread.cpp ****     _thread *old = running;
  19:src/_thread.cpp ****     if (!old->isFinished() && !old->isBlocked()) { Scheduler::put(old); }
  20:src/_thread.cpp ****     running = Scheduler::get();
  21:src/_thread.cpp **** 
  22:src/_thread.cpp ****     _thread::contextSwitch(&old->context, &running->context);
  23:src/_thread.cpp **** }
  24:src/_thread.cpp **** 
  25:src/_thread.cpp **** void _thread::threadWrapper()
  26:src/_thread.cpp **** {
  12              		.loc 1 26 1
  13              		.cfi_startproc
  14 0000 130101FF 		addi	sp,sp,-16
  15              		.cfi_def_cfa_offset 16
  16 0004 23341100 		sd	ra,8(sp)
  17 0008 23308100 		sd	s0,0(sp)
  18              		.cfi_offset 1, -8
  19              		.cfi_offset 8, -16
  20 000c 13040101 		addi	s0,sp,16
  21              		.cfi_def_cfa 8, 0
  27:src/_thread.cpp ****     Riscv::popSppSpie();
  22              		.loc 1 27 5
  23              		.loc 1 27 22 is_stmt 0
  24 0010 97000000 		call	_ZN5Riscv10popSppSpieEv@plt
  24      E7800000 
  25              	.LVL0:
  26              	.L3:
  28:src/_thread.cpp ****     while(!running->isStarted()) thread_dispatch();
  27              		.loc 1 28 5 is_stmt 1 discriminator 2
  28              		.loc 1 28 11 discriminator 2
  29              		.loc 1 28 30 is_stmt 0 discriminator 2
GAS LISTING /tmp/ccTFBKyz.s 			page 2


  30 0018 97070000 		ld	a5,.LANCHOR0
  30      83B70700 
  31              	.LVL1:
  32              	.LBB12:
  33              	.LBB13:
  34              		.file 2 "src/../h/_thread.hpp"
   1:src/../h/_thread.hpp **** 
   2:src/../h/_thread.hpp **** 
   3:src/../h/_thread.hpp **** #ifndef OS1_VEZBE07_RISCV_CONTEXT_SWITCH_2_INTERRUPT_TCB_HPP
   4:src/../h/_thread.hpp **** #define OS1_VEZBE07_RISCV_CONTEXT_SWITCH_2_INTERRUPT_TCB_HPP
   5:src/../h/_thread.hpp **** 
   6:src/../h/_thread.hpp **** #include "../lib/hw.h"
   7:src/../h/_thread.hpp **** #include "scheduler.hpp"
   8:src/../h/_thread.hpp **** 
   9:src/../h/_thread.hpp **** typedef _thread* thread_t;
  10:src/../h/_thread.hpp **** 
  11:src/../h/_thread.hpp **** // Thread Control Block
  12:src/../h/_thread.hpp **** class _thread
  13:src/../h/_thread.hpp **** {
  14:src/../h/_thread.hpp **** public:
  15:src/../h/_thread.hpp ****     ~_thread() { delete[] stack; }
  16:src/../h/_thread.hpp **** 
  17:src/../h/_thread.hpp ****     bool isFinished() const { return finished; }
  18:src/../h/_thread.hpp **** 
  19:src/../h/_thread.hpp ****     void setFinished(bool value) { finished = value; }
  20:src/../h/_thread.hpp **** 
  21:src/../h/_thread.hpp ****     using Body = void (*)(void*);
  22:src/../h/_thread.hpp **** 
  23:src/../h/_thread.hpp ****     static _thread *createThread(Body body, void* args);
  24:src/../h/_thread.hpp **** 
  25:src/../h/_thread.hpp ****     static void yield();
  26:src/../h/_thread.hpp **** 
  27:src/../h/_thread.hpp ****     static _thread *running;
  28:src/../h/_thread.hpp **** 
  29:src/../h/_thread.hpp ****     static int exitThread();
  30:src/../h/_thread.hpp **** 
  31:src/../h/_thread.hpp ****     void setStart(bool b);
  32:src/../h/_thread.hpp **** 
  33:src/../h/_thread.hpp ****     bool isStarted() const { return started; }
  35              		.loc 2 33 30 is_stmt 1 discriminator 2
  36              		.loc 2 33 37 is_stmt 0 discriminator 2
  37 0020 03C79702 		lbu	a4,41(a5)
  38              	.LVL2:
  39              	.LBE13:
  40              	.LBE12:
  41              		.loc 1 28 11 discriminator 2
  42 0024 63180700 		bnez	a4,.L2
  43              		.loc 1 28 34 is_stmt 1 discriminator 1
  44              		.loc 1 28 49 is_stmt 0 discriminator 1
  45 0028 97000000 		call	_Z15thread_dispatchv@plt
  45      E7800000 
  46              	.LVL3:
  47              		.loc 1 28 5 discriminator 1
  48 0030 6FF09FFE 		j	.L3
  49              	.L2:
  29:src/_thread.cpp ****     running->body(running->args);
  50              		.loc 1 29 5 is_stmt 1
GAS LISTING /tmp/ccTFBKyz.s 			page 3


  51              		.loc 1 29 14 is_stmt 0
  52 0034 03B70700 		ld	a4,0(a5)
  53              		.loc 1 29 18
  54 0038 03B58700 		ld	a0,8(a5)
  55 003c E7000700 		jalr	a4
  56              	.LVL4:
  30:src/_thread.cpp ****     running->setFinished(true);
  57              		.loc 1 30 5 is_stmt 1
  58              	.LBB14:
  59              	.LBB15:
  19:src/../h/_thread.hpp **** 
  60              		.loc 2 19 36
  19:src/../h/_thread.hpp **** 
  61              		.loc 2 19 45 is_stmt 0
  62 0040 97070000 		ld	a5,.LANCHOR0
  62      83B70700 
  63 0048 13071000 		li	a4,1
  64 004c 2384E702 		sb	a4,40(a5)
  65              	.LVL5:
  66              	.LBE15:
  67              	.LBE14:
  31:src/_thread.cpp ****     thread_dispatch();
  68              		.loc 1 31 5 is_stmt 1
  69              		.loc 1 31 20 is_stmt 0
  70 0050 97000000 		call	_Z15thread_dispatchv@plt
  70      E7800000 
  71              	.LVL6:
  32:src/_thread.cpp **** }
  72              		.loc 1 32 1
  73 0058 83308100 		ld	ra,8(sp)
  74              		.cfi_restore 1
  75 005c 03340100 		ld	s0,0(sp)
  76              		.cfi_restore 8
  77              		.cfi_def_cfa 2, 16
  78 0060 13010101 		addi	sp,sp,16
  79              		.cfi_def_cfa_offset 0
  80 0064 67800000 		jr	ra
  81              		.cfi_endproc
  82              	.LFE36:
  84              		.align	2
  85              		.globl	_ZN7_thread12createThreadEPFvPvES0_
  87              	_ZN7_thread12createThreadEPFvPvES0_:
  88              	.LFB34:
  11:src/_thread.cpp ****     _thread* newThread = new _thread(body, args);
  89              		.loc 1 11 1 is_stmt 1
  90              		.cfi_startproc
  91              		.cfi_personality 0x9b,DW.ref.__gxx_personality_v0
  92              		.cfi_lsda 0x1b,.LLSDA34
  93              	.LVL7:
  94 0068 130101FD 		addi	sp,sp,-48
  95              		.cfi_def_cfa_offset 48
  96 006c 23341102 		sd	ra,40(sp)
  97 0070 23308102 		sd	s0,32(sp)
  98 0074 233C9100 		sd	s1,24(sp)
  99 0078 23382101 		sd	s2,16(sp)
 100 007c 23343101 		sd	s3,8(sp)
 101              		.cfi_offset 1, -8
GAS LISTING /tmp/ccTFBKyz.s 			page 4


 102              		.cfi_offset 8, -16
 103              		.cfi_offset 9, -24
 104              		.cfi_offset 18, -32
 105              		.cfi_offset 19, -40
 106 0080 13040103 		addi	s0,sp,48
 107              		.cfi_def_cfa 8, 0
 108 0084 13090500 		mv	s2,a0
 109 0088 93890500 		mv	s3,a1
  12:src/_thread.cpp ****     return newThread;
 110              		.loc 1 12 5
  12:src/_thread.cpp ****     return newThread;
 111              		.loc 1 12 48 is_stmt 0
 112 008c 13050003 		li	a0,48
 113              	.LVL8:
 114              	.LEHB0:
 115 0090 97000000 		call	_Znwm@plt
 115      E7800000 
 116              	.LVL9:
 117              	.LEHE0:
 118 0098 93040500 		mv	s1,a0
 119              	.LVL10:
 120              	.LBB19:
 121              	.LBB20:
  34:src/../h/_thread.hpp **** 
  35:src/../h/_thread.hpp ****     void setBlock(bool b);
  36:src/../h/_thread.hpp **** 
  37:src/../h/_thread.hpp ****     bool isBlocked() const { return blocked; }
  38:src/../h/_thread.hpp **** 
  39:src/../h/_thread.hpp **** private:
  40:src/../h/_thread.hpp ****     _thread(Body body, void* args) :
  41:src/../h/_thread.hpp ****             body(body),
  42:src/../h/_thread.hpp ****             args(args),
  43:src/../h/_thread.hpp ****             stack(body != nullptr ? new uint64[DEFAULT_STACK_SIZE] : nullptr),
  44:src/../h/_thread.hpp ****             context({
  45:src/../h/_thread.hpp ****                 (uint64) &threadWrapper,
  46:src/../h/_thread.hpp ****                 stack != nullptr ? (uint64) &stack[DEFAULT_STACK_SIZE] : 0
  47:src/../h/_thread.hpp ****             }),
  48:src/../h/_thread.hpp ****             finished(false),
  49:src/../h/_thread.hpp ****             started(true),
  50:src/../h/_thread.hpp ****             blocked(false)
 122              		.loc 2 50 26
 123 009c 23302501 		sd	s2,0(a0)
 124 00a0 23343501 		sd	s3,8(a0)
  43:src/../h/_thread.hpp ****             context({
 125              		.loc 2 43 35
 126 00a4 630A0900 		beqz	s2,.L10
  43:src/../h/_thread.hpp ****             context({
 127              		.loc 2 43 66
 128 00a8 37850000 		li	a0,32768
 129              	.LEHB1:
 130 00ac 97000000 		call	_Znam@plt
 130      E7800000 
 131              	.LVL11:
 132 00b4 6F008000 		j	.L6
 133              	.L10:
  43:src/../h/_thread.hpp ****             context({
 134              		.loc 2 43 35
GAS LISTING /tmp/ccTFBKyz.s 			page 5


 135 00b8 13050000 		li	a0,0
 136              	.L6:
 137              		.loc 2 50 26
 138 00bc 23B8A400 		sd	a0,16(s1)
 139 00c0 97070000 		lla	a5,_ZN7_thread13threadWrapperEv
 139      93870700 
 140 00c8 23BCF400 		sd	a5,24(s1)
  46:src/../h/_thread.hpp ****             }),
 141              		.loc 2 46 34
 142 00cc 630A0502 		beqz	a0,.L11
  46:src/../h/_thread.hpp ****             }),
 143              		.loc 2 46 45
 144 00d0 B7870000 		li	a5,32768
 145 00d4 B307F500 		add	a5,a0,a5
 146              	.L7:
 147              		.loc 2 50 26
 148 00d8 23B0F402 		sd	a5,32(s1)
 149 00dc 23840402 		sb	zero,40(s1)
 150 00e0 93071000 		li	a5,1
 151 00e4 A384F402 		sb	a5,41(s1)
 152 00e8 23850402 		sb	zero,42(s1)
  51:src/../h/_thread.hpp ****     {
  52:src/../h/_thread.hpp ****             if (body != nullptr) { Scheduler::put(this);}
 153              		.loc 2 52 13 is_stmt 1
 154 00ec 630C0902 		beqz	s2,.L5
 155              		.loc 2 52 36
 156              		.loc 2 52 50 is_stmt 0
 157 00f0 13850400 		mv	a0,s1
 158 00f4 97000000 		call	_ZN9Scheduler3putEP7_thread@plt
 158      E7800000 
 159              	.LVL12:
 160              	.LEHE1:
 161 00fc 6F008002 		j	.L5
 162              	.L11:
  46:src/../h/_thread.hpp ****             }),
 163              		.loc 2 46 34
 164 0100 93070000 		li	a5,0
 165 0104 6FF05FFD 		j	.L7
 166              	.L12:
 167 0108 13090500 		mv	s2,a0
 168              	.LVL13:
 169              	.LBE20:
 170              	.LBE19:
  12:src/_thread.cpp ****     return newThread;
 171              		.loc 1 12 48
 172 010c 13850400 		mv	a0,s1
 173 0110 97000000 		call	_ZdlPv@plt
 173      E7800000 
 174              	.LVL14:
 175 0118 13050900 		mv	a0,s2
 176              	.LEHB2:
 177 011c 97000000 		call	_Unwind_Resume@plt
 177      E7800000 
 178              	.LVL15:
 179              	.LEHE2:
 180              	.L5:
  14:src/_thread.cpp **** 
GAS LISTING /tmp/ccTFBKyz.s 			page 6


 181              		.loc 1 14 1
 182 0124 13850400 		mv	a0,s1
 183 0128 83308102 		ld	ra,40(sp)
 184              		.cfi_restore 1
 185 012c 03340102 		ld	s0,32(sp)
 186              		.cfi_restore 8
 187              		.cfi_def_cfa 2, 48
 188 0130 83348101 		ld	s1,24(sp)
 189              		.cfi_restore 9
 190              	.LVL16:
 191 0134 03390101 		ld	s2,16(sp)
 192              		.cfi_restore 18
 193              	.LVL17:
 194 0138 83398100 		ld	s3,8(sp)
 195              		.cfi_restore 19
 196              	.LVL18:
 197 013c 13010103 		addi	sp,sp,48
 198              		.cfi_def_cfa_offset 0
 199 0140 67800000 		jr	ra
 200              		.cfi_endproc
 201              	.LFE34:
 202              		.globl	__gxx_personality_v0
 203              		.section	.gcc_except_table,"a",@progbits
 204              	.LLSDA34:
 205 0000 FF       		.byte	0xff
 206 0001 FF       		.byte	0xff
 207 0002 03       		.byte	0x3
 208 0003 27       		.byte	0x27
 209 0004 00000000 		.4byte	.LEHB0-.LFB34
 210 0008 00000000 		.4byte	.LEHE0-.LEHB0
 211 000c 00000000 		.4byte	0
 212 0010 00       		.byte	0
 213 0011 00000000 		.4byte	.LEHB1-.LFB34
 214 0015 00000000 		.4byte	.LEHE1-.LEHB1
 215 0019 00000000 		.4byte	.L12-.LFB34
 216 001d 00       		.byte	0
 217 001e 00000000 		.4byte	.LEHB2-.LFB34
 218 0022 00000000 		.4byte	.LEHE2-.LEHB2
 219 0026 00000000 		.4byte	0
 220 002a 00       		.byte	0
 221              		.text
 223              		.align	2
 224              		.globl	_ZN7_thread8dispatchEv
 226              	_ZN7_thread8dispatchEv:
 227              	.LFB35:
  17:src/_thread.cpp ****     _thread *old = running;
 228              		.loc 1 17 1 is_stmt 1
 229              		.cfi_startproc
 230 0144 130101FE 		addi	sp,sp,-32
 231              		.cfi_def_cfa_offset 32
 232 0148 233C1100 		sd	ra,24(sp)
 233 014c 23388100 		sd	s0,16(sp)
 234 0150 23349100 		sd	s1,8(sp)
 235              		.cfi_offset 1, -8
 236              		.cfi_offset 8, -16
 237              		.cfi_offset 9, -24
 238 0154 13040102 		addi	s0,sp,32
GAS LISTING /tmp/ccTFBKyz.s 			page 7


 239              		.cfi_def_cfa 8, 0
  18:src/_thread.cpp ****     if (!old->isFinished() && !old->isBlocked()) { Scheduler::put(old); }
 240              		.loc 1 18 5
  18:src/_thread.cpp ****     if (!old->isFinished() && !old->isBlocked()) { Scheduler::put(old); }
 241              		.loc 1 18 14 is_stmt 0
 242 0158 97040000 		ld	s1,.LANCHOR0
 242      83B40400 
 243              	.LVL19:
  19:src/_thread.cpp ****     running = Scheduler::get();
 244              		.loc 1 19 5 is_stmt 1
 245              	.LBB21:
 246              	.LBB22:
  17:src/../h/_thread.hpp **** 
 247              		.loc 2 17 31
  17:src/../h/_thread.hpp **** 
 248              		.loc 2 17 38 is_stmt 0
 249 0160 83C78402 		lbu	a5,40(s1)
 250              	.LVL20:
 251              	.LBE22:
 252              	.LBE21:
  19:src/_thread.cpp ****     running = Scheduler::get();
 253              		.loc 1 19 28
 254 0164 63960700 		bnez	a5,.L15
 255              	.LVL21:
 256              	.LBB23:
 257              	.LBB24:
  37:src/../h/_thread.hpp **** 
 258              		.loc 2 37 30 is_stmt 1
  37:src/../h/_thread.hpp **** 
 259              		.loc 2 37 37 is_stmt 0
 260 0168 83C7A402 		lbu	a5,42(s1)
 261              	.LVL22:
 262              	.LBE24:
 263              	.LBE23:
  19:src/_thread.cpp ****     running = Scheduler::get();
 264              		.loc 1 19 28
 265 016c 638C0702 		beqz	a5,.L17
 266              	.L15:
  20:src/_thread.cpp **** 
 267              		.loc 1 20 5 is_stmt 1
  20:src/_thread.cpp **** 
 268              		.loc 1 20 29 is_stmt 0
 269 0170 97000000 		call	_ZN9Scheduler3getEv@plt
 269      E7800000 
 270              	.LVL23:
  20:src/_thread.cpp **** 
 271              		.loc 1 20 13
 272 0178 97070000 		sd	a0,.LANCHOR0,a5
 272      23B0A700 
  22:src/_thread.cpp **** }
 273              		.loc 1 22 5 is_stmt 1
  22:src/_thread.cpp **** }
 274              		.loc 1 22 27 is_stmt 0
 275 0180 93058501 		addi	a1,a0,24
 276 0184 13858401 		addi	a0,s1,24
 277 0188 97000000 		call	_ZN7_thread13contextSwitchEPNS_7ContextES1_@plt
 277      E7800000 
GAS LISTING /tmp/ccTFBKyz.s 			page 8


 278              	.LVL24:
  23:src/_thread.cpp **** 
 279              		.loc 1 23 1
 280 0190 83308101 		ld	ra,24(sp)
 281              		.cfi_remember_state
 282              		.cfi_restore 1
 283 0194 03340101 		ld	s0,16(sp)
 284              		.cfi_restore 8
 285              		.cfi_def_cfa 2, 32
 286 0198 83348100 		ld	s1,8(sp)
 287              		.cfi_restore 9
 288              	.LVL25:
 289 019c 13010102 		addi	sp,sp,32
 290              		.cfi_def_cfa_offset 0
 291 01a0 67800000 		jr	ra
 292              	.LVL26:
 293              	.L17:
 294              		.cfi_restore_state
  19:src/_thread.cpp ****     running = Scheduler::get();
 295              		.loc 1 19 52 is_stmt 1
  19:src/_thread.cpp ****     running = Scheduler::get();
 296              		.loc 1 19 66 is_stmt 0
 297 01a4 13850400 		mv	a0,s1
 298 01a8 97000000 		call	_ZN9Scheduler3putEP7_thread@plt
 298      E7800000 
 299              	.LVL27:
 300 01b0 6FF01FFC 		j	.L15
 301              		.cfi_endproc
 302              	.LFE35:
 304              		.align	2
 305              		.globl	_ZN7_thread10exitThreadEv
 307              	_ZN7_thread10exitThreadEv:
 308              	.LFB37:
  33:src/_thread.cpp **** 
  34:src/_thread.cpp **** int _thread::exitThread() {
 309              		.loc 1 34 27 is_stmt 1
 310              		.cfi_startproc
 311 01b4 130101FF 		addi	sp,sp,-16
 312              		.cfi_def_cfa_offset 16
 313 01b8 23341100 		sd	ra,8(sp)
 314 01bc 23308100 		sd	s0,0(sp)
 315              		.cfi_offset 1, -8
 316              		.cfi_offset 8, -16
 317 01c0 13040101 		addi	s0,sp,16
 318              		.cfi_def_cfa 8, 0
  35:src/_thread.cpp ****     _thread::running->setFinished(true);
 319              		.loc 1 35 5
 320              	.LVL28:
 321              	.LBB25:
 322              	.LBB26:
  19:src/../h/_thread.hpp **** 
 323              		.loc 2 19 36
  19:src/../h/_thread.hpp **** 
 324              		.loc 2 19 45 is_stmt 0
 325 01c4 97070000 		ld	a5,.LANCHOR0
 325      83B70700 
 326 01cc 13071000 		li	a4,1
GAS LISTING /tmp/ccTFBKyz.s 			page 9


 327 01d0 2384E702 		sb	a4,40(a5)
 328              	.LVL29:
 329              	.LBE26:
 330              	.LBE25:
  36:src/_thread.cpp ****     thread_dispatch();
 331              		.loc 1 36 5 is_stmt 1
 332              		.loc 1 36 20 is_stmt 0
 333 01d4 97000000 		call	_Z15thread_dispatchv@plt
 333      E7800000 
 334              	.LVL30:
  37:src/_thread.cpp ****     return 0;
 335              		.loc 1 37 5 is_stmt 1
  38:src/_thread.cpp **** }
 336              		.loc 1 38 1 is_stmt 0
 337 01dc 13050000 		li	a0,0
 338 01e0 83308100 		ld	ra,8(sp)
 339              		.cfi_restore 1
 340 01e4 03340100 		ld	s0,0(sp)
 341              		.cfi_restore 8
 342              		.cfi_def_cfa 2, 16
 343 01e8 13010101 		addi	sp,sp,16
 344              		.cfi_def_cfa_offset 0
 345 01ec 67800000 		jr	ra
 346              		.cfi_endproc
 347              	.LFE37:
 349              		.align	2
 350              		.globl	_ZN7_thread8setStartEb
 352              	_ZN7_thread8setStartEb:
 353              	.LFB38:
  39:src/_thread.cpp **** 
  40:src/_thread.cpp **** void _thread::setStart(bool b) {
 354              		.loc 1 40 32 is_stmt 1
 355              		.cfi_startproc
 356              	.LVL31:
 357 01f0 130101FF 		addi	sp,sp,-16
 358              		.cfi_def_cfa_offset 16
 359 01f4 23348100 		sd	s0,8(sp)
 360              		.cfi_offset 8, -8
 361 01f8 13040101 		addi	s0,sp,16
 362              		.cfi_def_cfa 8, 0
  41:src/_thread.cpp ****     this->started = b;
 363              		.loc 1 41 5
 364              		.loc 1 41 19 is_stmt 0
 365 01fc A304B502 		sb	a1,41(a0)
  42:src/_thread.cpp **** }
 366              		.loc 1 42 1
 367 0200 03348100 		ld	s0,8(sp)
 368              		.cfi_restore 8
 369              		.cfi_def_cfa 2, 16
 370 0204 13010101 		addi	sp,sp,16
 371              		.cfi_def_cfa_offset 0
 372 0208 67800000 		jr	ra
 373              		.cfi_endproc
 374              	.LFE38:
 376              		.align	2
 377              		.globl	_ZN7_thread8setBlockEb
 379              	_ZN7_thread8setBlockEb:
GAS LISTING /tmp/ccTFBKyz.s 			page 10


 380              	.LFB39:
  43:src/_thread.cpp **** 
  44:src/_thread.cpp **** void _thread::setBlock(bool b) {
 381              		.loc 1 44 32 is_stmt 1
 382              		.cfi_startproc
 383              	.LVL32:
 384 020c 130101FF 		addi	sp,sp,-16
 385              		.cfi_def_cfa_offset 16
 386 0210 23348100 		sd	s0,8(sp)
 387              		.cfi_offset 8, -8
 388 0214 13040101 		addi	s0,sp,16
 389              		.cfi_def_cfa 8, 0
  45:src/_thread.cpp ****     this->blocked = b;
 390              		.loc 1 45 5
 391              		.loc 1 45 19 is_stmt 0
 392 0218 2305B502 		sb	a1,42(a0)
  46:src/_thread.cpp **** }
 393              		.loc 1 46 1
 394 021c 03348100 		ld	s0,8(sp)
 395              		.cfi_restore 8
 396              		.cfi_def_cfa 2, 16
 397 0220 13010101 		addi	sp,sp,16
 398              		.cfi_def_cfa_offset 0
 399 0224 67800000 		jr	ra
 400              		.cfi_endproc
 401              	.LFE39:
 403              		.globl	_ZN7_thread7runningE
 404              		.bss
 405              		.align	3
 406              		.set	.LANCHOR0,. + 0
 409              	_ZN7_thread7runningE:
 410 0000 00000000 		.zero	8
 410      00000000 
 411              		.text
 412              	.Letext0:
 413              		.file 3 "src/../h/../lib/hw.h"
 414              		.file 4 "src/../h/scheduler.hpp"
 415              		.file 5 "src/../h/riscv.hpp"
 416              		.file 6 "src/../h/syscall_c.hpp"
 2951              		.align	3
 2954              	DW.ref.__gxx_personality_v0:
 2955 0000 00000000 		.dword	__gxx_personality_v0
 2955      00000000 
 2956              		.ident	"GCC: (Ubuntu 9.4.0-1ubuntu1~20.04) 9.4.0"
 2957              		.section	.note.GNU-stack,"",@progbits
GAS LISTING /tmp/ccTFBKyz.s 			page 11


DEFINED SYMBOLS
                            *ABS*:0000000000000000 _thread.cpp
     /tmp/ccTFBKyz.s:9      .text:0000000000000000 _ZN7_thread13threadWrapperEv
     /tmp/ccTFBKyz.s:13     .text:0000000000000000 .L0 
     /tmp/ccTFBKyz.s:14     .text:0000000000000000 .L0 
     /tmp/ccTFBKyz.s:15     .text:0000000000000004 .L0 
     /tmp/ccTFBKyz.s:18     .text:000000000000000c .L0 
     /tmp/ccTFBKyz.s:19     .text:000000000000000c .L0 
     /tmp/ccTFBKyz.s:21     .text:0000000000000010 .L0 
     /tmp/ccTFBKyz.s:23     .text:0000000000000010 .L0 
     /tmp/ccTFBKyz.s:24     .text:0000000000000010 .L0 
     /tmp/ccTFBKyz.s:28     .text:0000000000000018 .L0 
     /tmp/ccTFBKyz.s:29     .text:0000000000000018 .L0 
     /tmp/ccTFBKyz.s:30     .text:0000000000000018 .L0 
     /tmp/ccTFBKyz.s:36     .text:0000000000000020 .L0 
     /tmp/ccTFBKyz.s:37     .text:0000000000000020 .L0 
     /tmp/ccTFBKyz.s:42     .text:0000000000000024 .L0 
     /tmp/ccTFBKyz.s:44     .text:0000000000000028 .L0 
     /tmp/ccTFBKyz.s:45     .text:0000000000000028 .L0 
     /tmp/ccTFBKyz.s:48     .text:0000000000000030 .L0 
     /tmp/ccTFBKyz.s:51     .text:0000000000000034 .L0 
     /tmp/ccTFBKyz.s:52     .text:0000000000000034 .L0 
     /tmp/ccTFBKyz.s:54     .text:0000000000000038 .L0 
     /tmp/ccTFBKyz.s:60     .text:0000000000000040 .L0 
     /tmp/ccTFBKyz.s:61     .text:0000000000000040 .L0 
     /tmp/ccTFBKyz.s:62     .text:0000000000000040 .L0 
     /tmp/ccTFBKyz.s:69     .text:0000000000000050 .L0 
     /tmp/ccTFBKyz.s:70     .text:0000000000000050 .L0 
     /tmp/ccTFBKyz.s:73     .text:0000000000000058 .L0 
     /tmp/ccTFBKyz.s:74     .text:000000000000005c .L0 
     /tmp/ccTFBKyz.s:76     .text:0000000000000060 .L0 
     /tmp/ccTFBKyz.s:77     .text:0000000000000060 .L0 
     /tmp/ccTFBKyz.s:79     .text:0000000000000064 .L0 
     /tmp/ccTFBKyz.s:81     .text:0000000000000068 .L0 
     /tmp/ccTFBKyz.s:87     .text:0000000000000068 _ZN7_thread12createThreadEPFvPvES0_
     /tmp/ccTFBKyz.s:90     .text:0000000000000068 .L0 
     /tmp/ccTFBKyz.s:2954   .data.rel.local.DW.ref.__gxx_personality_v0:0000000000000000 DW.ref.__gxx_personality_v0
     /tmp/ccTFBKyz.s:94     .text:0000000000000068 .L0 
     /tmp/ccTFBKyz.s:95     .text:000000000000006c .L0 
     /tmp/ccTFBKyz.s:101    .text:0000000000000080 .L0 
     /tmp/ccTFBKyz.s:102    .text:0000000000000080 .L0 
     /tmp/ccTFBKyz.s:103    .text:0000000000000080 .L0 
     /tmp/ccTFBKyz.s:104    .text:0000000000000080 .L0 
     /tmp/ccTFBKyz.s:105    .text:0000000000000080 .L0 
     /tmp/ccTFBKyz.s:107    .text:0000000000000084 .L0 
     /tmp/ccTFBKyz.s:111    .text:000000000000008c .L0 
     /tmp/ccTFBKyz.s:112    .text:000000000000008c .L0 
     /tmp/ccTFBKyz.s:123    .text:000000000000009c .L0 
     /tmp/ccTFBKyz.s:126    .text:00000000000000a4 .L0 
     /tmp/ccTFBKyz.s:128    .text:00000000000000a8 .L0 
     /tmp/ccTFBKyz.s:135    .text:00000000000000b8 .L0 
     /tmp/ccTFBKyz.s:138    .text:00000000000000bc .L0 
     /tmp/ccTFBKyz.s:142    .text:00000000000000cc .L0 
     /tmp/ccTFBKyz.s:144    .text:00000000000000d0 .L0 
     /tmp/ccTFBKyz.s:148    .text:00000000000000d8 .L0 
     /tmp/ccTFBKyz.s:154    .text:00000000000000ec .L0 
     /tmp/ccTFBKyz.s:156    .text:00000000000000f0 .L0 
GAS LISTING /tmp/ccTFBKyz.s 			page 12


     /tmp/ccTFBKyz.s:157    .text:00000000000000f0 .L0 
     /tmp/ccTFBKyz.s:164    .text:0000000000000100 .L0 
     /tmp/ccTFBKyz.s:172    .text:000000000000010c .L0 
     /tmp/ccTFBKyz.s:182    .text:0000000000000124 .L0 
     /tmp/ccTFBKyz.s:184    .text:000000000000012c .L0 
     /tmp/ccTFBKyz.s:186    .text:0000000000000130 .L0 
     /tmp/ccTFBKyz.s:187    .text:0000000000000130 .L0 
     /tmp/ccTFBKyz.s:189    .text:0000000000000134 .L0 
     /tmp/ccTFBKyz.s:192    .text:0000000000000138 .L0 
     /tmp/ccTFBKyz.s:195    .text:000000000000013c .L0 
     /tmp/ccTFBKyz.s:198    .text:0000000000000140 .L0 
     /tmp/ccTFBKyz.s:200    .text:0000000000000144 .L0 
     /tmp/ccTFBKyz.s:226    .text:0000000000000144 _ZN7_thread8dispatchEv
     /tmp/ccTFBKyz.s:229    .text:0000000000000144 .L0 
     /tmp/ccTFBKyz.s:230    .text:0000000000000144 .L0 
     /tmp/ccTFBKyz.s:231    .text:0000000000000148 .L0 
     /tmp/ccTFBKyz.s:235    .text:0000000000000154 .L0 
     /tmp/ccTFBKyz.s:236    .text:0000000000000154 .L0 
     /tmp/ccTFBKyz.s:237    .text:0000000000000154 .L0 
     /tmp/ccTFBKyz.s:239    .text:0000000000000158 .L0 
     /tmp/ccTFBKyz.s:241    .text:0000000000000158 .L0 
     /tmp/ccTFBKyz.s:242    .text:0000000000000158 .L0 
     /tmp/ccTFBKyz.s:247    .text:0000000000000160 .L0 
     /tmp/ccTFBKyz.s:248    .text:0000000000000160 .L0 
     /tmp/ccTFBKyz.s:249    .text:0000000000000160 .L0 
     /tmp/ccTFBKyz.s:254    .text:0000000000000164 .L0 
     /tmp/ccTFBKyz.s:259    .text:0000000000000168 .L0 
     /tmp/ccTFBKyz.s:260    .text:0000000000000168 .L0 
     /tmp/ccTFBKyz.s:265    .text:000000000000016c .L0 
     /tmp/ccTFBKyz.s:268    .text:0000000000000170 .L0 
     /tmp/ccTFBKyz.s:269    .text:0000000000000170 .L0 
     /tmp/ccTFBKyz.s:272    .text:0000000000000178 .L0 
     /tmp/ccTFBKyz.s:274    .text:0000000000000180 .L0 
     /tmp/ccTFBKyz.s:275    .text:0000000000000180 .L0 
     /tmp/ccTFBKyz.s:280    .text:0000000000000190 .L0 
     /tmp/ccTFBKyz.s:281    .text:0000000000000194 .L0 
     /tmp/ccTFBKyz.s:282    .text:0000000000000194 .L0 
     /tmp/ccTFBKyz.s:284    .text:0000000000000198 .L0 
     /tmp/ccTFBKyz.s:285    .text:0000000000000198 .L0 
     /tmp/ccTFBKyz.s:287    .text:000000000000019c .L0 
     /tmp/ccTFBKyz.s:290    .text:00000000000001a0 .L0 
     /tmp/ccTFBKyz.s:294    .text:00000000000001a4 .L0 
     /tmp/ccTFBKyz.s:296    .text:00000000000001a4 .L0 
     /tmp/ccTFBKyz.s:297    .text:00000000000001a4 .L0 
     /tmp/ccTFBKyz.s:301    .text:00000000000001b4 .L0 
     /tmp/ccTFBKyz.s:307    .text:00000000000001b4 _ZN7_thread10exitThreadEv
     /tmp/ccTFBKyz.s:310    .text:00000000000001b4 .L0 
     /tmp/ccTFBKyz.s:311    .text:00000000000001b4 .L0 
     /tmp/ccTFBKyz.s:312    .text:00000000000001b8 .L0 
     /tmp/ccTFBKyz.s:315    .text:00000000000001c0 .L0 
     /tmp/ccTFBKyz.s:316    .text:00000000000001c0 .L0 
     /tmp/ccTFBKyz.s:318    .text:00000000000001c4 .L0 
     /tmp/ccTFBKyz.s:323    .text:00000000000001c4 .L0 
     /tmp/ccTFBKyz.s:324    .text:00000000000001c4 .L0 
     /tmp/ccTFBKyz.s:325    .text:00000000000001c4 .L0 
     /tmp/ccTFBKyz.s:332    .text:00000000000001d4 .L0 
     /tmp/ccTFBKyz.s:333    .text:00000000000001d4 .L0 
GAS LISTING /tmp/ccTFBKyz.s 			page 13


     /tmp/ccTFBKyz.s:336    .text:00000000000001dc .L0 
     /tmp/ccTFBKyz.s:337    .text:00000000000001dc .L0 
     /tmp/ccTFBKyz.s:339    .text:00000000000001e4 .L0 
     /tmp/ccTFBKyz.s:341    .text:00000000000001e8 .L0 
     /tmp/ccTFBKyz.s:342    .text:00000000000001e8 .L0 
     /tmp/ccTFBKyz.s:344    .text:00000000000001ec .L0 
     /tmp/ccTFBKyz.s:346    .text:00000000000001f0 .L0 
     /tmp/ccTFBKyz.s:352    .text:00000000000001f0 _ZN7_thread8setStartEb
     /tmp/ccTFBKyz.s:355    .text:00000000000001f0 .L0 
     /tmp/ccTFBKyz.s:357    .text:00000000000001f0 .L0 
     /tmp/ccTFBKyz.s:358    .text:00000000000001f4 .L0 
     /tmp/ccTFBKyz.s:360    .text:00000000000001f8 .L0 
     /tmp/ccTFBKyz.s:362    .text:00000000000001fc .L0 
     /tmp/ccTFBKyz.s:364    .text:00000000000001fc .L0 
     /tmp/ccTFBKyz.s:365    .text:00000000000001fc .L0 
     /tmp/ccTFBKyz.s:367    .text:0000000000000200 .L0 
     /tmp/ccTFBKyz.s:368    .text:0000000000000204 .L0 
     /tmp/ccTFBKyz.s:369    .text:0000000000000204 .L0 
     /tmp/ccTFBKyz.s:371    .text:0000000000000208 .L0 
     /tmp/ccTFBKyz.s:373    .text:000000000000020c .L0 
     /tmp/ccTFBKyz.s:379    .text:000000000000020c _ZN7_thread8setBlockEb
     /tmp/ccTFBKyz.s:382    .text:000000000000020c .L0 
     /tmp/ccTFBKyz.s:384    .text:000000000000020c .L0 
     /tmp/ccTFBKyz.s:385    .text:0000000000000210 .L0 
     /tmp/ccTFBKyz.s:387    .text:0000000000000214 .L0 
     /tmp/ccTFBKyz.s:389    .text:0000000000000218 .L0 
     /tmp/ccTFBKyz.s:391    .text:0000000000000218 .L0 
     /tmp/ccTFBKyz.s:392    .text:0000000000000218 .L0 
     /tmp/ccTFBKyz.s:394    .text:000000000000021c .L0 
     /tmp/ccTFBKyz.s:395    .text:0000000000000220 .L0 
     /tmp/ccTFBKyz.s:396    .text:0000000000000220 .L0 
     /tmp/ccTFBKyz.s:398    .text:0000000000000224 .L0 
     /tmp/ccTFBKyz.s:400    .text:0000000000000228 .L0 
     /tmp/ccTFBKyz.s:409    .bss:0000000000000000 _ZN7_thread7runningE
     /tmp/ccTFBKyz.s:406    .bss:0000000000000000 .LANCHOR0
     /tmp/ccTFBKyz.s:417    .text:0000000000000228 .L0 
     /tmp/ccTFBKyz.s:30     .text:0000000000000018 .L0 
     /tmp/ccTFBKyz.s:62     .text:0000000000000040 .L0 
     /tmp/ccTFBKyz.s:139    .text:00000000000000c0 .L0 
     /tmp/ccTFBKyz.s:242    .text:0000000000000158 .L0 
     /tmp/ccTFBKyz.s:272    .text:0000000000000178 .L0 
     /tmp/ccTFBKyz.s:325    .text:00000000000001c4 .L0 
     /tmp/ccTFBKyz.s:49     .text:0000000000000034 .L2
     /tmp/ccTFBKyz.s:26     .text:0000000000000018 .L3
     /tmp/ccTFBKyz.s:133    .text:00000000000000b8 .L10
     /tmp/ccTFBKyz.s:136    .text:00000000000000bc .L6
     /tmp/ccTFBKyz.s:162    .text:0000000000000100 .L11
     /tmp/ccTFBKyz.s:180    .text:0000000000000124 .L5
     /tmp/ccTFBKyz.s:146    .text:00000000000000d8 .L7
     /tmp/ccTFBKyz.s:266    .text:0000000000000170 .L15
     /tmp/ccTFBKyz.s:293    .text:00000000000001a4 .L17
     /tmp/ccTFBKyz.s:114    .text:0000000000000090 .LEHB0
     /tmp/ccTFBKyz.s:88     .text:0000000000000068 .LFB34
     /tmp/ccTFBKyz.s:117    .text:0000000000000098 .LEHE0
     /tmp/ccTFBKyz.s:129    .text:00000000000000ac .LEHB1
     /tmp/ccTFBKyz.s:160    .text:00000000000000fc .LEHE1
     /tmp/ccTFBKyz.s:166    .text:0000000000000108 .L12
GAS LISTING /tmp/ccTFBKyz.s 			page 14


     /tmp/ccTFBKyz.s:176    .text:000000000000011c .LEHB2
     /tmp/ccTFBKyz.s:179    .text:0000000000000124 .LEHE2
     /tmp/ccTFBKyz.s:1590   .debug_abbrev:0000000000000000 .Ldebug_abbrev0
     /tmp/ccTFBKyz.s:2904   .debug_str:0000000000000694 .LASF117
     /tmp/ccTFBKyz.s:2922   .debug_str:00000000000007e4 .LASF118
     /tmp/ccTFBKyz.s:2758   .debug_str:0000000000000218 .LASF119
     /tmp/ccTFBKyz.s:5      .text:0000000000000000 .Ltext0
     /tmp/ccTFBKyz.s:412    .text:0000000000000228 .Letext0
     /tmp/ccTFBKyz.s:2680   .debug_line:0000000000000000 .Ldebug_line0
     /tmp/ccTFBKyz.s:2830   .debug_str:000000000000045c .LASF0
     /tmp/ccTFBKyz.s:2842   .debug_str:000000000000048c .LASF1
     /tmp/ccTFBKyz.s:2818   .debug_str:0000000000000416 .LASF2
     /tmp/ccTFBKyz.s:2744   .debug_str:00000000000001c6 .LASF3
     /tmp/ccTFBKyz.s:2786   .debug_str:00000000000002f1 .LASF4
     /tmp/ccTFBKyz.s:2876   .debug_str:0000000000000597 .LASF5
     /tmp/ccTFBKyz.s:2708   .debug_str:0000000000000094 .LASF6
     /tmp/ccTFBKyz.s:2844   .debug_str:000000000000049f .LASF7
     /tmp/ccTFBKyz.s:2828   .debug_str:0000000000000449 .LASF8
     /tmp/ccTFBKyz.s:2916   .debug_str:00000000000007b5 .LASF9
     /tmp/ccTFBKyz.s:2768   .debug_str:0000000000000268 .LASF10
     /tmp/ccTFBKyz.s:2856   .debug_str:0000000000000501 .LASF11
     /tmp/ccTFBKyz.s:2906   .debug_str:0000000000000758 .LASF12
     /tmp/ccTFBKyz.s:2710   .debug_str:000000000000009b .LASF13
     /tmp/ccTFBKyz.s:2688   .debug_str:0000000000000026 .LASF14
     /tmp/ccTFBKyz.s:2724   .debug_str:0000000000000105 .LASF15
     /tmp/ccTFBKyz.s:2868   .debug_str:0000000000000553 .LASF16
     /tmp/ccTFBKyz.s:2736   .debug_str:000000000000016d .LASF17
     /tmp/ccTFBKyz.s:2852   .debug_str:00000000000004e3 .LASF18
     /tmp/ccTFBKyz.s:2760   .debug_str:0000000000000236 .LASF120
     /tmp/ccTFBKyz.s:2780   .debug_str:00000000000002cb .LASF121
     /tmp/ccTFBKyz.s:2912   .debug_str:0000000000000782 .LASF122
     /tmp/ccTFBKyz.s:2792   .debug_str:0000000000000322 .LASF123
     /tmp/ccTFBKyz.s:2782   .debug_str:00000000000002df .LASF19
     /tmp/ccTFBKyz.s:2696   .debug_str:0000000000000052 .LASF124
     /tmp/ccTFBKyz.s:2908   .debug_str:0000000000000767 .LASF20
     /tmp/ccTFBKyz.s:2848   .debug_str:00000000000004bd .LASF22
     /tmp/ccTFBKyz.s:2846   .debug_str:00000000000004b2 .LASF29
     /tmp/ccTFBKyz.s:2814   .debug_str:00000000000003e6 .LASF31
     /tmp/ccTFBKyz.s:2820   .debug_str:0000000000000424 .LASF21
     /tmp/ccTFBKyz.s:2812   .debug_str:00000000000003cb .LASF23
     /tmp/ccTFBKyz.s:2798   .debug_str:0000000000000343 .LASF24
     /tmp/ccTFBKyz.s:2932   .debug_str:000000000000083a .LASF25
     /tmp/ccTFBKyz.s:2864   .debug_str:0000000000000543 .LASF125
     /tmp/ccTFBKyz.s:2870   .debug_str:0000000000000569 .LASF65
     /tmp/ccTFBKyz.s:2898   .debug_str:0000000000000658 .LASF67
     /tmp/ccTFBKyz.s:2750   .debug_str:00000000000001ef .LASF126
     /tmp/ccTFBKyz.s:2858   .debug_str:0000000000000510 .LASF26
     /tmp/ccTFBKyz.s:2748   .debug_str:00000000000001d5 .LASF70
     /tmp/ccTFBKyz.s:2692   .debug_str:000000000000003f .LASF27
     /tmp/ccTFBKyz.s:2914   .debug_str:000000000000079e .LASF28
     /tmp/ccTFBKyz.s:2722   .debug_str:00000000000000fb .LASF30
     /tmp/ccTFBKyz.s:2802   .debug_str:000000000000035e .LASF32
     /tmp/ccTFBKyz.s:2774   .debug_str:00000000000002a9 .LASF33
     /tmp/ccTFBKyz.s:2902   .debug_str:000000000000067d .LASF34
     /tmp/ccTFBKyz.s:2694   .debug_str:0000000000000048 .LASF35
     /tmp/ccTFBKyz.s:2716   .debug_str:00000000000000c0 .LASF36
     /tmp/ccTFBKyz.s:2920   .debug_str:00000000000007cc .LASF73
GAS LISTING /tmp/ccTFBKyz.s 			page 15


     /tmp/ccTFBKyz.s:2714   .debug_str:00000000000000bb .LASF37
     /tmp/ccTFBKyz.s:2838   .debug_str:000000000000047f .LASF38
     /tmp/ccTFBKyz.s:2836   .debug_str:0000000000000479 .LASF39
     /tmp/ccTFBKyz.s:2796   .debug_str:000000000000033b .LASF40
     /tmp/ccTFBKyz.s:2790   .debug_str:0000000000000319 .LASF41
     /tmp/ccTFBKyz.s:2840   .debug_str:0000000000000484 .LASF42
     /tmp/ccTFBKyz.s:2682   .debug_str:0000000000000000 .LASF43
     /tmp/ccTFBKyz.s:2800   .debug_str:0000000000000350 .LASF45
     /tmp/ccTFBKyz.s:2772   .debug_str:000000000000028c .LASF47
     /tmp/ccTFBKyz.s:2926   .debug_str:0000000000000809 .LASF44
     /tmp/ccTFBKyz.s:2808   .debug_str:000000000000038f .LASF127
     /tmp/ccTFBKyz.s:2834   .debug_str:0000000000000470 .LASF46
     /tmp/ccTFBKyz.s:2896   .debug_str:0000000000000641 .LASF48
     /tmp/ccTFBKyz.s:2756   .debug_str:0000000000000213 .LASF49
     /tmp/ccTFBKyz.s:2810   .debug_str:00000000000003bb .LASF50
     /tmp/ccTFBKyz.s:2712   .debug_str:00000000000000ab .LASF51
     /tmp/ccTFBKyz.s:2878   .debug_str:00000000000005a9 .LASF52
     /tmp/ccTFBKyz.s:2726   .debug_str:0000000000000111 .LASF53
     /tmp/ccTFBKyz.s:2788   .debug_str:00000000000002f8 .LASF54
     /tmp/ccTFBKyz.s:2854   .debug_str:00000000000004ed .LASF55
     /tmp/ccTFBKyz.s:2804   .debug_str:0000000000000377 .LASF56
     /tmp/ccTFBKyz.s:2686   .debug_str:0000000000000010 .LASF57
     /tmp/ccTFBKyz.s:2930   .debug_str:000000000000082b .LASF58
     /tmp/ccTFBKyz.s:2880   .debug_str:00000000000005b8 .LASF59
     /tmp/ccTFBKyz.s:2936   .debug_str:0000000000000869 .LASF60
     /tmp/ccTFBKyz.s:2900   .debug_str:000000000000066c .LASF61
     /tmp/ccTFBKyz.s:2702   .debug_str:000000000000006a .LASF62
     /tmp/ccTFBKyz.s:2934   .debug_str:000000000000085e .LASF63
     /tmp/ccTFBKyz.s:2728   .debug_str:000000000000012a .LASF64
     /tmp/ccTFBKyz.s:2866   .debug_str:0000000000000548 .LASF66
     /tmp/ccTFBKyz.s:2940   .debug_str:000000000000087d .LASF68
     /tmp/ccTFBKyz.s:2690   .debug_str:0000000000000036 .LASF69
     /tmp/ccTFBKyz.s:2890   .debug_str:0000000000000601 .LASF71
     /tmp/ccTFBKyz.s:2746   .debug_str:00000000000001cc .LASF72
     /tmp/ccTFBKyz.s:2732   .debug_str:0000000000000140 .LASF74
     /tmp/ccTFBKyz.s:2822   .debug_str:0000000000000430 .LASF75
     /tmp/ccTFBKyz.s:2862   .debug_str:0000000000000530 .LASF76
     /tmp/ccTFBKyz.s:2918   .debug_str:00000000000007c5 .LASF77
     /tmp/ccTFBKyz.s:2894   .debug_str:000000000000062e .LASF78
     /tmp/ccTFBKyz.s:2764   .debug_str:000000000000025a .LASF79
     /tmp/ccTFBKyz.s:2738   .debug_str:0000000000000183 .LASF80
     /tmp/ccTFBKyz.s:2684   .debug_str:0000000000000008 .LASF81
     /tmp/ccTFBKyz.s:2882   .debug_str:00000000000005c8 .LASF82
     /tmp/ccTFBKyz.s:2752   .debug_str:00000000000001f7 .LASF83
     /tmp/ccTFBKyz.s:2928   .debug_str:0000000000000817 .LASF84
     /tmp/ccTFBKyz.s:2944   .debug_str:00000000000008a8 .LASF85
     /tmp/ccTFBKyz.s:2754   .debug_str:00000000000001ff .LASF86
     /tmp/ccTFBKyz.s:2832   .debug_str:0000000000000469 .LASF87
     /tmp/ccTFBKyz.s:2942   .debug_str:0000000000000895 .LASF88
     /tmp/ccTFBKyz.s:2704   .debug_str:0000000000000075 .LASF89
     /tmp/ccTFBKyz.s:2762   .debug_str:0000000000000247 .LASF90
     /tmp/ccTFBKyz.s:2766   .debug_str:0000000000000262 .LASF91
     /tmp/ccTFBKyz.s:2910   .debug_str:0000000000000770 .LASF92
     /tmp/ccTFBKyz.s:2700   .debug_str:0000000000000064 .LASF93
     /tmp/ccTFBKyz.s:2946   .debug_str:00000000000008b0 .LASF94
     /tmp/ccTFBKyz.s:2826   .debug_str:000000000000043e .LASF95
     /tmp/ccTFBKyz.s:2874   .debug_str:000000000000057f .LASF96
GAS LISTING /tmp/ccTFBKyz.s 			page 16


     /tmp/ccTFBKyz.s:2794   .debug_str:0000000000000330 .LASF97
     /tmp/ccTFBKyz.s:2892   .debug_str:0000000000000616 .LASF98
     /tmp/ccTFBKyz.s:2776   .debug_str:00000000000002b2 .LASF99
     /tmp/ccTFBKyz.s:2850   .debug_str:00000000000004cd .LASF100
     /tmp/ccTFBKyz.s:2698   .debug_str:000000000000005a .LASF101
     /tmp/ccTFBKyz.s:2770   .debug_str:0000000000000276 .LASF102
     /tmp/ccTFBKyz.s:2884   .debug_str:00000000000005dc .LASF103
     /tmp/ccTFBKyz.s:2718   .debug_str:00000000000000d9 .LASF104
     /tmp/ccTFBKyz.s:2924   .debug_str:00000000000007f4 .LASF105
     /tmp/ccTFBKyz.s:2742   .debug_str:00000000000001a4 .LASF106
     /tmp/ccTFBKyz.s:2816   .debug_str:0000000000000401 .LASF128
     /tmp/ccTFBKyz.s:380    .text:000000000000020c .LFB39
     /tmp/ccTFBKyz.s:401    .text:0000000000000228 .LFE39
     /tmp/ccTFBKyz.s:2938   .debug_str:0000000000000878 .LASF107
     /tmp/ccTFBKyz.s:353    .text:00000000000001f0 .LFB38
     /tmp/ccTFBKyz.s:374    .text:000000000000020c .LFE38
     /tmp/ccTFBKyz.s:308    .text:00000000000001b4 .LFB37
     /tmp/ccTFBKyz.s:347    .text:00000000000001f0 .LFE37
     /tmp/ccTFBKyz.s:321    .text:00000000000001c4 .LBB25
     /tmp/ccTFBKyz.s:330    .text:00000000000001d4 .LBE25
     /tmp/ccTFBKyz.s:2506   .debug_loc:0000000000000000 .LLST11
     /tmp/ccTFBKyz.s:2514   .debug_loc:0000000000000024 .LLST12
     /tmp/ccTFBKyz.s:334    .text:00000000000001dc .LVL30
     /tmp/ccTFBKyz.s:10     .text:0000000000000000 .LFB36
     /tmp/ccTFBKyz.s:82     .text:0000000000000068 .LFE36
     /tmp/ccTFBKyz.s:32     .text:0000000000000020 .LBB12
     /tmp/ccTFBKyz.s:40     .text:0000000000000024 .LBE12
     /tmp/ccTFBKyz.s:2522   .debug_loc:000000000000004f .LLST0
     /tmp/ccTFBKyz.s:58     .text:0000000000000040 .LBB14
     /tmp/ccTFBKyz.s:67     .text:0000000000000050 .LBE14
     /tmp/ccTFBKyz.s:2529   .debug_loc:0000000000000072 .LLST1
     /tmp/ccTFBKyz.s:2537   .debug_loc:0000000000000096 .LLST2
     /tmp/ccTFBKyz.s:25     .text:0000000000000018 .LVL0
     /tmp/ccTFBKyz.s:46     .text:0000000000000030 .LVL3
     /tmp/ccTFBKyz.s:71     .text:0000000000000058 .LVL6
     /tmp/ccTFBKyz.s:227    .text:0000000000000144 .LFB35
     /tmp/ccTFBKyz.s:302    .text:00000000000001b4 .LFE35
     /tmp/ccTFBKyz.s:2545   .debug_loc:00000000000000c1 .LLST8
     /tmp/ccTFBKyz.s:245    .text:0000000000000160 .LBB21
     /tmp/ccTFBKyz.s:252    .text:0000000000000164 .LBE21
     /tmp/ccTFBKyz.s:2556   .debug_loc:00000000000000f7 .LLST9
     /tmp/ccTFBKyz.s:256    .text:0000000000000168 .LBB23
     /tmp/ccTFBKyz.s:263    .text:000000000000016c .LBE23
     /tmp/ccTFBKyz.s:2563   .debug_loc:000000000000011a .LLST10
     /tmp/ccTFBKyz.s:270    .text:0000000000000178 .LVL23
     /tmp/ccTFBKyz.s:278    .text:0000000000000190 .LVL24
     /tmp/ccTFBKyz.s:299    .text:00000000000001b0 .LVL27
     /tmp/ccTFBKyz.s:201    .text:0000000000000144 .LFE34
     /tmp/ccTFBKyz.s:2570   .debug_loc:000000000000013d .LLST3
     /tmp/ccTFBKyz.s:2599   .debug_loc:00000000000001b2 .LLST4
     /tmp/ccTFBKyz.s:2784   .debug_str:00000000000002e7 .LASF129
     /tmp/ccTFBKyz.s:120    .text:000000000000009c .LBB19
     /tmp/ccTFBKyz.s:170    .text:000000000000010c .LBE19
     /tmp/ccTFBKyz.s:2617   .debug_loc:00000000000001fe .LLST5
     /tmp/ccTFBKyz.s:2631   .debug_loc:0000000000000237 .LLST6
     /tmp/ccTFBKyz.s:2656   .debug_loc:0000000000000299 .LLST7
     /tmp/ccTFBKyz.s:131    .text:00000000000000b4 .LVL11
GAS LISTING /tmp/ccTFBKyz.s 			page 17


     /tmp/ccTFBKyz.s:159    .text:00000000000000fc .LVL12
     /tmp/ccTFBKyz.s:116    .text:0000000000000098 .LVL9
     /tmp/ccTFBKyz.s:174    .text:0000000000000118 .LVL14
     /tmp/ccTFBKyz.s:178    .text:0000000000000124 .LVL15
     /tmp/ccTFBKyz.s:2706   .debug_str:000000000000007c .LASF130
     /tmp/ccTFBKyz.s:2720   .debug_str:00000000000000f5 .LASF108
     /tmp/ccTFBKyz.s:2860   .debug_str:000000000000051b .LASF131
     /tmp/ccTFBKyz.s:2730   .debug_str:0000000000000130 .LASF132
     /tmp/ccTFBKyz.s:2888   .debug_str:00000000000005fb .LASF109
     /tmp/ccTFBKyz.s:2872   .debug_str:000000000000056f .LASF111
     /tmp/ccTFBKyz.s:2806   .debug_str:0000000000000389 .LASF110
     /tmp/ccTFBKyz.s:2740   .debug_str:0000000000000197 .LASF112
     /tmp/ccTFBKyz.s:2824   .debug_str:0000000000000437 .LASF113
     /tmp/ccTFBKyz.s:2886   .debug_str:00000000000005eb .LASF114
     /tmp/ccTFBKyz.s:2778   .debug_str:00000000000002bc .LASF115
     /tmp/ccTFBKyz.s:2734   .debug_str:0000000000000155 .LASF116
     /tmp/ccTFBKyz.s:320    .text:00000000000001c4 .LVL28
     /tmp/ccTFBKyz.s:328    .text:00000000000001d4 .LVL29
     /tmp/ccTFBKyz.s:31     .text:0000000000000020 .LVL1
     /tmp/ccTFBKyz.s:38     .text:0000000000000024 .LVL2
     /tmp/ccTFBKyz.s:56     .text:0000000000000040 .LVL4
     /tmp/ccTFBKyz.s:65     .text:0000000000000050 .LVL5
     /tmp/ccTFBKyz.s:243    .text:0000000000000160 .LVL19
     /tmp/ccTFBKyz.s:288    .text:000000000000019c .LVL25
     /tmp/ccTFBKyz.s:292    .text:00000000000001a4 .LVL26
     /tmp/ccTFBKyz.s:250    .text:0000000000000164 .LVL20
     /tmp/ccTFBKyz.s:255    .text:0000000000000168 .LVL21
     /tmp/ccTFBKyz.s:261    .text:000000000000016c .LVL22
     /tmp/ccTFBKyz.s:93     .text:0000000000000068 .LVL7
     /tmp/ccTFBKyz.s:113    .text:0000000000000090 .LVL8
     /tmp/ccTFBKyz.s:168    .text:000000000000010c .LVL13
     /tmp/ccTFBKyz.s:193    .text:0000000000000138 .LVL17
     /tmp/ccTFBKyz.s:196    .text:000000000000013c .LVL18
     /tmp/ccTFBKyz.s:119    .text:000000000000009c .LVL10
     /tmp/ccTFBKyz.s:190    .text:0000000000000134 .LVL16
     /tmp/ccTFBKyz.s:418    .debug_info:0000000000000000 .Ldebug_info0
     /tmp/ccTFBKyz.s:204    .gcc_except_table:0000000000000000 .LLSDA34

UNDEFINED SYMBOLS
_ZN5Riscv10popSppSpieEv
_Z15thread_dispatchv
_Znwm
_Znam
_ZN9Scheduler3putEP7_thread
_ZdlPv
_Unwind_Resume
__gxx_personality_v0
_ZN9Scheduler3getEv
_ZN7_thread13contextSwitchEPNS_7ContextES1_
