GAS LISTING /tmp/ccX2HTLA.s 			page 1


   1              		.file	"_thread.cpp"
   2              		.option pic
   3              		.option norelax
   4              		.text
   5              	.Ltext0:
   6              		.align	2
   7              		.globl	_ZN7_thread12createThreadEPFvvEPv
   9              	_ZN7_thread12createThreadEPFvvEPv:
  10              	.LFB32:
  11              		.file 1 "src/_thread.cpp"
   1:src/_thread.cpp **** 
   2:src/_thread.cpp **** 
   3:src/_thread.cpp **** #include "../h/_thread.hpp"
   4:src/_thread.cpp **** #include "../h/riscv.hpp"
   5:src/_thread.cpp **** 
   6:src/_thread.cpp **** _thread *_thread::running = nullptr;
   7:src/_thread.cpp **** 
   8:src/_thread.cpp **** 
   9:src/_thread.cpp **** _thread *_thread::createThread(Body body, void* args)
  10:src/_thread.cpp **** {
  12              		.loc 1 10 1
  13              		.cfi_startproc
  14              		.cfi_personality 0x9b,DW.ref.__gxx_personality_v0
  15              		.cfi_lsda 0x1b,.LLSDA32
  16              	.LVL0:
  17 0000 130101FD 		addi	sp,sp,-48
  18              		.cfi_def_cfa_offset 48
  19 0004 23341102 		sd	ra,40(sp)
  20 0008 23308102 		sd	s0,32(sp)
  21 000c 233C9100 		sd	s1,24(sp)
  22 0010 23382101 		sd	s2,16(sp)
  23 0014 23343101 		sd	s3,8(sp)
  24              		.cfi_offset 1, -8
  25              		.cfi_offset 8, -16
  26              		.cfi_offset 9, -24
  27              		.cfi_offset 18, -32
  28              		.cfi_offset 19, -40
  29 0018 13040103 		addi	s0,sp,48
  30              		.cfi_def_cfa 8, 0
  31 001c 13090500 		mv	s2,a0
  32 0020 93890500 		mv	s3,a1
  11:src/_thread.cpp ****     _thread* newThread = new _thread(body, args);
  33              		.loc 1 11 5
  34              		.loc 1 11 48 is_stmt 0
  35 0024 13058003 		li	a0,56
  36              	.LVL1:
  37              	.LEHB0:
  38 0028 97000000 		call	_Znwm@plt
  38      E7800000 
  39              	.LVL2:
  40              	.LEHE0:
  41 0030 93040500 		mv	s1,a0
  42              	.LVL3:
  43              	.LBB11:
  44              	.LBB12:
  45              		.file 2 "src/../h/_thread.hpp"
   1:src/../h/_thread.hpp **** 
GAS LISTING /tmp/ccX2HTLA.s 			page 2


   2:src/../h/_thread.hpp **** 
   3:src/../h/_thread.hpp **** #ifndef OS1_VEZBE07_RISCV_CONTEXT_SWITCH_2_INTERRUPT_TCB_HPP
   4:src/../h/_thread.hpp **** #define OS1_VEZBE07_RISCV_CONTEXT_SWITCH_2_INTERRUPT_TCB_HPP
   5:src/../h/_thread.hpp **** 
   6:src/../h/_thread.hpp **** #include "../lib/hw.h"
   7:src/../h/_thread.hpp **** #include "scheduler.hpp"
   8:src/../h/_thread.hpp **** 
   9:src/../h/_thread.hpp **** typedef _thread* thread_t;
  10:src/../h/_thread.hpp **** 
  11:src/../h/_thread.hpp **** // Thread Control Block
  12:src/../h/_thread.hpp **** class _thread
  13:src/../h/_thread.hpp **** {
  14:src/../h/_thread.hpp **** public:
  15:src/../h/_thread.hpp ****     ~_thread() { delete[] stack; }
  16:src/../h/_thread.hpp **** 
  17:src/../h/_thread.hpp ****     bool isFinished() const { return finished; }
  18:src/../h/_thread.hpp **** 
  19:src/../h/_thread.hpp ****     void setFinished(bool value) { finished = value; }
  20:src/../h/_thread.hpp **** 
  21:src/../h/_thread.hpp ****     using Body = void (*)();
  22:src/../h/_thread.hpp **** 
  23:src/../h/_thread.hpp ****     static _thread *createThread(Body body, void* args);
  24:src/../h/_thread.hpp **** 
  25:src/../h/_thread.hpp ****     static void yield();
  26:src/../h/_thread.hpp **** 
  27:src/../h/_thread.hpp ****     static _thread *running;
  28:src/../h/_thread.hpp **** 
  29:src/../h/_thread.hpp ****     static int exitThread();
  30:src/../h/_thread.hpp **** 
  31:src/../h/_thread.hpp ****     void setStart(bool b);
  32:src/../h/_thread.hpp **** 
  33:src/../h/_thread.hpp **** private:
  34:src/../h/_thread.hpp ****     _thread(Body body, void* args) :
  35:src/../h/_thread.hpp ****             body(body),
  36:src/../h/_thread.hpp ****             args(args),
  37:src/../h/_thread.hpp ****             stack(body != nullptr ? new uint64[DEFAULT_STACK_SIZE] : nullptr),
  38:src/../h/_thread.hpp ****             context({
  39:src/../h/_thread.hpp ****                 (uint64) &threadWrapper,
  40:src/../h/_thread.hpp ****                 stack != nullptr ? (uint64) &stack[DEFAULT_STACK_SIZE] : 0
  41:src/../h/_thread.hpp ****             }),
  42:src/../h/_thread.hpp ****             finished(false),
  43:src/../h/_thread.hpp ****             started(true)
  46              		.loc 2 43 25
  47 0034 23302501 		sd	s2,0(a0)
  48 0038 23343501 		sd	s3,8(a0)
  37:src/../h/_thread.hpp ****             context({
  49              		.loc 2 37 35
  50 003c 630A0900 		beqz	s2,.L6
  37:src/../h/_thread.hpp ****             context({
  51              		.loc 2 37 66
  52 0040 37850000 		li	a0,32768
  53              	.LEHB1:
  54 0044 97000000 		call	_Znam@plt
  54      E7800000 
  55              	.LVL4:
  56 004c 6F008000 		j	.L2
  57              	.L6:
GAS LISTING /tmp/ccX2HTLA.s 			page 3


  37:src/../h/_thread.hpp ****             context({
  58              		.loc 2 37 35
  59 0050 13050000 		li	a0,0
  60              	.L2:
  61              		.loc 2 43 25
  62 0054 23B8A400 		sd	a0,16(s1)
  63 0058 97070000 		lla	a5,_ZN7_thread13threadWrapperEv
  63      93870700 
  64 0060 23BCF400 		sd	a5,24(s1)
  40:src/../h/_thread.hpp ****             }),
  65              		.loc 2 40 34
  66 0064 63080502 		beqz	a0,.L7
  40:src/../h/_thread.hpp ****             }),
  67              		.loc 2 40 45
  68 0068 B7870000 		li	a5,32768
  69 006c B307F500 		add	a5,a0,a5
  70              	.L3:
  71              		.loc 2 43 25
  72 0070 23B0F402 		sd	a5,32(s1)
  73 0074 23880402 		sb	zero,48(s1)
  74 0078 93071000 		li	a5,1
  75 007c A388F402 		sb	a5,49(s1)
  44:src/../h/_thread.hpp ****     {
  45:src/../h/_thread.hpp ****             if (body != nullptr) { Scheduler::put(this);}
  76              		.loc 2 45 13 is_stmt 1
  77 0080 630C0902 		beqz	s2,.L1
  78              		.loc 2 45 36
  79              		.loc 2 45 50 is_stmt 0
  80 0084 13850400 		mv	a0,s1
  81 0088 97000000 		call	_ZN9Scheduler3putEP7_thread@plt
  81      E7800000 
  82              	.LVL5:
  83              	.LEHE1:
  84 0090 6F008002 		j	.L1
  85              	.L7:
  40:src/../h/_thread.hpp ****             }),
  86              		.loc 2 40 34
  87 0094 93070000 		li	a5,0
  88 0098 6FF09FFD 		j	.L3
  89              	.L8:
  90 009c 13090500 		mv	s2,a0
  91              	.LVL6:
  92              	.LBE12:
  93              	.LBE11:
  94              		.loc 1 11 48
  95 00a0 13850400 		mv	a0,s1
  96 00a4 97000000 		call	_ZdlPv@plt
  96      E7800000 
  97              	.LVL7:
  98 00ac 13050900 		mv	a0,s2
  99              	.LEHB2:
 100 00b0 97000000 		call	_Unwind_Resume@plt
 100      E7800000 
 101              	.LVL8:
 102              	.LEHE2:
 103              	.L1:
  12:src/_thread.cpp ****     return newThread;
GAS LISTING /tmp/ccX2HTLA.s 			page 4


  13:src/_thread.cpp **** }
 104              		.loc 1 13 1
 105 00b8 13850400 		mv	a0,s1
 106 00bc 83308102 		ld	ra,40(sp)
 107              		.cfi_restore 1
 108 00c0 03340102 		ld	s0,32(sp)
 109              		.cfi_restore 8
 110              		.cfi_def_cfa 2, 48
 111 00c4 83348101 		ld	s1,24(sp)
 112              		.cfi_restore 9
 113              	.LVL9:
 114 00c8 03390101 		ld	s2,16(sp)
 115              		.cfi_restore 18
 116              	.LVL10:
 117 00cc 83398100 		ld	s3,8(sp)
 118              		.cfi_restore 19
 119              	.LVL11:
 120 00d0 13010103 		addi	sp,sp,48
 121              		.cfi_def_cfa_offset 0
 122 00d4 67800000 		jr	ra
 123              		.cfi_endproc
 124              	.LFE32:
 125              		.globl	__gxx_personality_v0
 126              		.section	.gcc_except_table,"a",@progbits
 127              	.LLSDA32:
 128 0000 FF       		.byte	0xff
 129 0001 FF       		.byte	0xff
 130 0002 03       		.byte	0x3
 131 0003 27       		.byte	0x27
 132 0004 00000000 		.4byte	.LEHB0-.LFB32
 133 0008 00000000 		.4byte	.LEHE0-.LEHB0
 134 000c 00000000 		.4byte	0
 135 0010 00       		.byte	0
 136 0011 00000000 		.4byte	.LEHB1-.LFB32
 137 0015 00000000 		.4byte	.LEHE1-.LEHB1
 138 0019 00000000 		.4byte	.L8-.LFB32
 139 001d 00       		.byte	0
 140 001e 00000000 		.4byte	.LEHB2-.LFB32
 141 0022 00000000 		.4byte	.LEHE2-.LEHB2
 142 0026 00000000 		.4byte	0
 143 002a 00       		.byte	0
 144              		.text
 146              		.align	2
 147              		.globl	_ZN7_thread8dispatchEv
 149              	_ZN7_thread8dispatchEv:
 150              	.LFB33:
  14:src/_thread.cpp **** 
  15:src/_thread.cpp **** void _thread::dispatch()
  16:src/_thread.cpp **** {
 151              		.loc 1 16 1 is_stmt 1
 152              		.cfi_startproc
 153 00d8 130101FE 		addi	sp,sp,-32
 154              		.cfi_def_cfa_offset 32
 155 00dc 233C1100 		sd	ra,24(sp)
 156 00e0 23388100 		sd	s0,16(sp)
 157 00e4 23349100 		sd	s1,8(sp)
 158              		.cfi_offset 1, -8
GAS LISTING /tmp/ccX2HTLA.s 			page 5


 159              		.cfi_offset 8, -16
 160              		.cfi_offset 9, -24
 161 00e8 13040102 		addi	s0,sp,32
 162              		.cfi_def_cfa 8, 0
  17:src/_thread.cpp ****     _thread *old = running;
 163              		.loc 1 17 5
 164              		.loc 1 17 14 is_stmt 0
 165 00ec 97040000 		ld	s1,.LANCHOR0
 165      83B40400 
 166              	.LVL12:
  18:src/_thread.cpp ****     if (!old->isFinished()) { Scheduler::put(old); }
 167              		.loc 1 18 5 is_stmt 1
 168              	.LBB13:
 169              	.LBB14:
  17:src/../h/_thread.hpp **** 
 170              		.loc 2 17 31
  17:src/../h/_thread.hpp **** 
 171              		.loc 2 17 38 is_stmt 0
 172 00f4 83C70403 		lbu	a5,48(s1)
 173              	.LVL13:
 174              	.LBE14:
 175              	.LBE13:
 176              		.loc 1 18 5
 177 00f8 638C0702 		beqz	a5,.L13
 178              	.L11:
  19:src/_thread.cpp ****     running = Scheduler::get();
 179              		.loc 1 19 5 is_stmt 1
 180              		.loc 1 19 29 is_stmt 0
 181 00fc 97000000 		call	_ZN9Scheduler3getEv@plt
 181      E7800000 
 182              	.LVL14:
 183              		.loc 1 19 13
 184 0104 97070000 		sd	a0,.LANCHOR0,a5
 184      23B0A700 
  20:src/_thread.cpp **** 
  21:src/_thread.cpp ****     _thread::contextSwitch(&old->context, &running->context);
 185              		.loc 1 21 5 is_stmt 1
 186              		.loc 1 21 27 is_stmt 0
 187 010c 93058501 		addi	a1,a0,24
 188 0110 13858401 		addi	a0,s1,24
 189 0114 97000000 		call	_ZN7_thread13contextSwitchEPNS_7ContextES1_@plt
 189      E7800000 
 190              	.LVL15:
  22:src/_thread.cpp **** }
 191              		.loc 1 22 1
 192 011c 83308101 		ld	ra,24(sp)
 193              		.cfi_remember_state
 194              		.cfi_restore 1
 195 0120 03340101 		ld	s0,16(sp)
 196              		.cfi_restore 8
 197              		.cfi_def_cfa 2, 32
 198 0124 83348100 		ld	s1,8(sp)
 199              		.cfi_restore 9
 200              	.LVL16:
 201 0128 13010102 		addi	sp,sp,32
 202              		.cfi_def_cfa_offset 0
 203 012c 67800000 		jr	ra
GAS LISTING /tmp/ccX2HTLA.s 			page 6


 204              	.LVL17:
 205              	.L13:
 206              		.cfi_restore_state
  18:src/_thread.cpp ****     running = Scheduler::get();
 207              		.loc 1 18 31 is_stmt 1 discriminator 1
  18:src/_thread.cpp ****     running = Scheduler::get();
 208              		.loc 1 18 45 is_stmt 0 discriminator 1
 209 0130 13850400 		mv	a0,s1
 210 0134 97000000 		call	_ZN9Scheduler3putEP7_thread@plt
 210      E7800000 
 211              	.LVL18:
 212 013c 6FF01FFC 		j	.L11
 213              		.cfi_endproc
 214              	.LFE33:
 216              		.align	2
 217              		.globl	_ZN7_thread13threadWrapperEv
 219              	_ZN7_thread13threadWrapperEv:
 220              	.LFB34:
  23:src/_thread.cpp **** 
  24:src/_thread.cpp **** void _thread::threadWrapper()
  25:src/_thread.cpp **** {
 221              		.loc 1 25 1 is_stmt 1
 222              		.cfi_startproc
 223 0140 130101FF 		addi	sp,sp,-16
 224              		.cfi_def_cfa_offset 16
 225 0144 23341100 		sd	ra,8(sp)
 226 0148 23308100 		sd	s0,0(sp)
 227              		.cfi_offset 1, -8
 228              		.cfi_offset 8, -16
 229 014c 13040101 		addi	s0,sp,16
 230              		.cfi_def_cfa 8, 0
  26:src/_thread.cpp ****     Riscv::popSppSpie();
 231              		.loc 1 26 5
 232              		.loc 1 26 22 is_stmt 0
 233 0150 97000000 		call	_ZN5Riscv10popSppSpieEv@plt
 233      E7800000 
 234              	.LVL19:
 235              	.L16:
  27:src/_thread.cpp ****     while(!running->started) _thread::dispatch();
 236              		.loc 1 27 5 is_stmt 1 discriminator 2
 237              		.loc 1 27 11 discriminator 2
 238              		.loc 1 27 21 is_stmt 0 discriminator 2
 239 0158 97070000 		ld	a5,.LANCHOR0
 239      83B70700 
 240 0160 03C71703 		lbu	a4,49(a5)
 241              		.loc 1 27 11 discriminator 2
 242 0164 63180700 		bnez	a4,.L15
 243              		.loc 1 27 30 is_stmt 1 discriminator 1
 244              		.loc 1 27 47 is_stmt 0 discriminator 1
 245 0168 97000000 		call	_ZN7_thread8dispatchEv
 245      E7800000 
 246              	.LVL20:
 247              		.loc 1 27 5 discriminator 1
 248 0170 6FF09FFE 		j	.L16
 249              	.L15:
  28:src/_thread.cpp ****     running->body();
 250              		.loc 1 28 5 is_stmt 1
GAS LISTING /tmp/ccX2HTLA.s 			page 7


 251              		.loc 1 28 14 is_stmt 0
 252 0174 83B70700 		ld	a5,0(a5)
 253              		.loc 1 28 18
 254 0178 E7800700 		jalr	a5
 255              	.LVL21:
  29:src/_thread.cpp ****     running->setFinished(true);
 256              		.loc 1 29 5 is_stmt 1
 257              	.LBB15:
 258              	.LBB16:
  19:src/../h/_thread.hpp **** 
 259              		.loc 2 19 36
  19:src/../h/_thread.hpp **** 
 260              		.loc 2 19 45 is_stmt 0
 261 017c 97070000 		ld	a5,.LANCHOR0
 261      83B70700 
 262 0184 13071000 		li	a4,1
 263 0188 2388E702 		sb	a4,48(a5)
 264              	.LVL22:
 265              	.LBE16:
 266              	.LBE15:
  30:src/_thread.cpp ****     _thread::dispatch();
 267              		.loc 1 30 5 is_stmt 1
 268              		.loc 1 30 22 is_stmt 0
 269 018c 97000000 		call	_ZN7_thread8dispatchEv
 269      E7800000 
 270              	.LVL23:
  31:src/_thread.cpp **** }
 271              		.loc 1 31 1
 272 0194 83308100 		ld	ra,8(sp)
 273              		.cfi_restore 1
 274 0198 03340100 		ld	s0,0(sp)
 275              		.cfi_restore 8
 276              		.cfi_def_cfa 2, 16
 277 019c 13010101 		addi	sp,sp,16
 278              		.cfi_def_cfa_offset 0
 279 01a0 67800000 		jr	ra
 280              		.cfi_endproc
 281              	.LFE34:
 283              		.align	2
 284              		.globl	_ZN7_thread10exitThreadEv
 286              	_ZN7_thread10exitThreadEv:
 287              	.LFB35:
  32:src/_thread.cpp **** 
  33:src/_thread.cpp **** int _thread::exitThread() {
 288              		.loc 1 33 27 is_stmt 1
 289              		.cfi_startproc
 290 01a4 130101FF 		addi	sp,sp,-16
 291              		.cfi_def_cfa_offset 16
 292 01a8 23341100 		sd	ra,8(sp)
 293 01ac 23308100 		sd	s0,0(sp)
 294              		.cfi_offset 1, -8
 295              		.cfi_offset 8, -16
 296 01b0 13040101 		addi	s0,sp,16
 297              		.cfi_def_cfa 8, 0
  34:src/_thread.cpp ****     _thread::running->setFinished(true);
 298              		.loc 1 34 5
 299              	.LVL24:
GAS LISTING /tmp/ccX2HTLA.s 			page 8


 300              	.LBB17:
 301              	.LBB18:
  19:src/../h/_thread.hpp **** 
 302              		.loc 2 19 36
  19:src/../h/_thread.hpp **** 
 303              		.loc 2 19 45 is_stmt 0
 304 01b4 97070000 		ld	a5,.LANCHOR0
 304      83B70700 
 305 01bc 13071000 		li	a4,1
 306 01c0 2388E702 		sb	a4,48(a5)
 307              	.LVL25:
 308              	.LBE18:
 309              	.LBE17:
  35:src/_thread.cpp ****     _thread::dispatch();
 310              		.loc 1 35 5 is_stmt 1
 311              		.loc 1 35 22 is_stmt 0
 312 01c4 97000000 		call	_ZN7_thread8dispatchEv
 312      E7800000 
 313              	.LVL26:
  36:src/_thread.cpp ****     return 0;
 314              		.loc 1 36 5 is_stmt 1
  37:src/_thread.cpp **** }
 315              		.loc 1 37 1 is_stmt 0
 316 01cc 13050000 		li	a0,0
 317 01d0 83308100 		ld	ra,8(sp)
 318              		.cfi_restore 1
 319 01d4 03340100 		ld	s0,0(sp)
 320              		.cfi_restore 8
 321              		.cfi_def_cfa 2, 16
 322 01d8 13010101 		addi	sp,sp,16
 323              		.cfi_def_cfa_offset 0
 324 01dc 67800000 		jr	ra
 325              		.cfi_endproc
 326              	.LFE35:
 328              		.align	2
 329              		.globl	_ZN7_thread8setStartEb
 331              	_ZN7_thread8setStartEb:
 332              	.LFB36:
  38:src/_thread.cpp **** 
  39:src/_thread.cpp **** void _thread::setStart(bool b) {
 333              		.loc 1 39 32 is_stmt 1
 334              		.cfi_startproc
 335              	.LVL27:
 336 01e0 130101FF 		addi	sp,sp,-16
 337              		.cfi_def_cfa_offset 16
 338 01e4 23348100 		sd	s0,8(sp)
 339              		.cfi_offset 8, -8
 340 01e8 13040101 		addi	s0,sp,16
 341              		.cfi_def_cfa 8, 0
  40:src/_thread.cpp ****     this->started = b;
 342              		.loc 1 40 5
 343              		.loc 1 40 19 is_stmt 0
 344 01ec A308B502 		sb	a1,49(a0)
  41:src/_thread.cpp **** }
 345              		.loc 1 41 1
 346 01f0 03348100 		ld	s0,8(sp)
 347              		.cfi_restore 8
GAS LISTING /tmp/ccX2HTLA.s 			page 9


 348              		.cfi_def_cfa 2, 16
 349 01f4 13010101 		addi	sp,sp,16
 350              		.cfi_def_cfa_offset 0
 351 01f8 67800000 		jr	ra
 352              		.cfi_endproc
 353              	.LFE36:
 355              		.globl	_ZN7_thread7runningE
 356              		.bss
 357              		.align	3
 358              		.set	.LANCHOR0,. + 0
 361              	_ZN7_thread7runningE:
 362 0000 00000000 		.zero	8
 362      00000000 
 363              		.text
 364              	.Letext0:
 365              		.file 3 "src/../h/../lib/hw.h"
 366              		.file 4 "src/../h/scheduler.hpp"
 367              		.file 5 "src/../h/riscv.hpp"
 2701              		.align	3
 2704              	DW.ref.__gxx_personality_v0:
 2705 0000 00000000 		.dword	__gxx_personality_v0
 2705      00000000 
 2706              		.ident	"GCC: (Ubuntu 9.4.0-1ubuntu1~20.04) 9.4.0"
 2707              		.section	.note.GNU-stack,"",@progbits
GAS LISTING /tmp/ccX2HTLA.s 			page 10


DEFINED SYMBOLS
                            *ABS*:0000000000000000 _thread.cpp
     /tmp/ccX2HTLA.s:9      .text:0000000000000000 _ZN7_thread12createThreadEPFvvEPv
     /tmp/ccX2HTLA.s:13     .text:0000000000000000 .L0 
     /tmp/ccX2HTLA.s:2704   .data.rel.local.DW.ref.__gxx_personality_v0:0000000000000000 DW.ref.__gxx_personality_v0
     /tmp/ccX2HTLA.s:17     .text:0000000000000000 .L0 
     /tmp/ccX2HTLA.s:18     .text:0000000000000004 .L0 
     /tmp/ccX2HTLA.s:24     .text:0000000000000018 .L0 
     /tmp/ccX2HTLA.s:25     .text:0000000000000018 .L0 
     /tmp/ccX2HTLA.s:26     .text:0000000000000018 .L0 
     /tmp/ccX2HTLA.s:27     .text:0000000000000018 .L0 
     /tmp/ccX2HTLA.s:28     .text:0000000000000018 .L0 
     /tmp/ccX2HTLA.s:30     .text:000000000000001c .L0 
     /tmp/ccX2HTLA.s:34     .text:0000000000000024 .L0 
     /tmp/ccX2HTLA.s:35     .text:0000000000000024 .L0 
     /tmp/ccX2HTLA.s:47     .text:0000000000000034 .L0 
     /tmp/ccX2HTLA.s:50     .text:000000000000003c .L0 
     /tmp/ccX2HTLA.s:52     .text:0000000000000040 .L0 
     /tmp/ccX2HTLA.s:59     .text:0000000000000050 .L0 
     /tmp/ccX2HTLA.s:62     .text:0000000000000054 .L0 
     /tmp/ccX2HTLA.s:219    .text:0000000000000140 _ZN7_thread13threadWrapperEv
     /tmp/ccX2HTLA.s:66     .text:0000000000000064 .L0 
     /tmp/ccX2HTLA.s:68     .text:0000000000000068 .L0 
     /tmp/ccX2HTLA.s:72     .text:0000000000000070 .L0 
     /tmp/ccX2HTLA.s:77     .text:0000000000000080 .L0 
     /tmp/ccX2HTLA.s:79     .text:0000000000000084 .L0 
     /tmp/ccX2HTLA.s:80     .text:0000000000000084 .L0 
     /tmp/ccX2HTLA.s:87     .text:0000000000000094 .L0 
     /tmp/ccX2HTLA.s:95     .text:00000000000000a0 .L0 
     /tmp/ccX2HTLA.s:105    .text:00000000000000b8 .L0 
     /tmp/ccX2HTLA.s:107    .text:00000000000000c0 .L0 
     /tmp/ccX2HTLA.s:109    .text:00000000000000c4 .L0 
     /tmp/ccX2HTLA.s:110    .text:00000000000000c4 .L0 
     /tmp/ccX2HTLA.s:112    .text:00000000000000c8 .L0 
     /tmp/ccX2HTLA.s:115    .text:00000000000000cc .L0 
     /tmp/ccX2HTLA.s:118    .text:00000000000000d0 .L0 
     /tmp/ccX2HTLA.s:121    .text:00000000000000d4 .L0 
     /tmp/ccX2HTLA.s:123    .text:00000000000000d8 .L0 
     /tmp/ccX2HTLA.s:149    .text:00000000000000d8 _ZN7_thread8dispatchEv
     /tmp/ccX2HTLA.s:152    .text:00000000000000d8 .L0 
     /tmp/ccX2HTLA.s:153    .text:00000000000000d8 .L0 
     /tmp/ccX2HTLA.s:154    .text:00000000000000dc .L0 
     /tmp/ccX2HTLA.s:158    .text:00000000000000e8 .L0 
     /tmp/ccX2HTLA.s:159    .text:00000000000000e8 .L0 
     /tmp/ccX2HTLA.s:160    .text:00000000000000e8 .L0 
     /tmp/ccX2HTLA.s:162    .text:00000000000000ec .L0 
     /tmp/ccX2HTLA.s:164    .text:00000000000000ec .L0 
     /tmp/ccX2HTLA.s:165    .text:00000000000000ec .L0 
     /tmp/ccX2HTLA.s:170    .text:00000000000000f4 .L0 
     /tmp/ccX2HTLA.s:171    .text:00000000000000f4 .L0 
     /tmp/ccX2HTLA.s:172    .text:00000000000000f4 .L0 
     /tmp/ccX2HTLA.s:177    .text:00000000000000f8 .L0 
     /tmp/ccX2HTLA.s:180    .text:00000000000000fc .L0 
     /tmp/ccX2HTLA.s:181    .text:00000000000000fc .L0 
     /tmp/ccX2HTLA.s:184    .text:0000000000000104 .L0 
     /tmp/ccX2HTLA.s:186    .text:000000000000010c .L0 
     /tmp/ccX2HTLA.s:187    .text:000000000000010c .L0 
GAS LISTING /tmp/ccX2HTLA.s 			page 11


     /tmp/ccX2HTLA.s:192    .text:000000000000011c .L0 
     /tmp/ccX2HTLA.s:193    .text:0000000000000120 .L0 
     /tmp/ccX2HTLA.s:194    .text:0000000000000120 .L0 
     /tmp/ccX2HTLA.s:196    .text:0000000000000124 .L0 
     /tmp/ccX2HTLA.s:197    .text:0000000000000124 .L0 
     /tmp/ccX2HTLA.s:199    .text:0000000000000128 .L0 
     /tmp/ccX2HTLA.s:202    .text:000000000000012c .L0 
     /tmp/ccX2HTLA.s:206    .text:0000000000000130 .L0 
     /tmp/ccX2HTLA.s:208    .text:0000000000000130 .L0 
     /tmp/ccX2HTLA.s:209    .text:0000000000000130 .L0 
     /tmp/ccX2HTLA.s:213    .text:0000000000000140 .L0 
     /tmp/ccX2HTLA.s:222    .text:0000000000000140 .L0 
     /tmp/ccX2HTLA.s:223    .text:0000000000000140 .L0 
     /tmp/ccX2HTLA.s:224    .text:0000000000000144 .L0 
     /tmp/ccX2HTLA.s:227    .text:000000000000014c .L0 
     /tmp/ccX2HTLA.s:228    .text:000000000000014c .L0 
     /tmp/ccX2HTLA.s:230    .text:0000000000000150 .L0 
     /tmp/ccX2HTLA.s:232    .text:0000000000000150 .L0 
     /tmp/ccX2HTLA.s:233    .text:0000000000000150 .L0 
     /tmp/ccX2HTLA.s:237    .text:0000000000000158 .L0 
     /tmp/ccX2HTLA.s:238    .text:0000000000000158 .L0 
     /tmp/ccX2HTLA.s:239    .text:0000000000000158 .L0 
     /tmp/ccX2HTLA.s:242    .text:0000000000000164 .L0 
     /tmp/ccX2HTLA.s:244    .text:0000000000000168 .L0 
     /tmp/ccX2HTLA.s:245    .text:0000000000000168 .L0 
     /tmp/ccX2HTLA.s:248    .text:0000000000000170 .L0 
     /tmp/ccX2HTLA.s:251    .text:0000000000000174 .L0 
     /tmp/ccX2HTLA.s:252    .text:0000000000000174 .L0 
     /tmp/ccX2HTLA.s:254    .text:0000000000000178 .L0 
     /tmp/ccX2HTLA.s:259    .text:000000000000017c .L0 
     /tmp/ccX2HTLA.s:260    .text:000000000000017c .L0 
     /tmp/ccX2HTLA.s:261    .text:000000000000017c .L0 
     /tmp/ccX2HTLA.s:268    .text:000000000000018c .L0 
     /tmp/ccX2HTLA.s:269    .text:000000000000018c .L0 
     /tmp/ccX2HTLA.s:272    .text:0000000000000194 .L0 
     /tmp/ccX2HTLA.s:273    .text:0000000000000198 .L0 
     /tmp/ccX2HTLA.s:275    .text:000000000000019c .L0 
     /tmp/ccX2HTLA.s:276    .text:000000000000019c .L0 
     /tmp/ccX2HTLA.s:278    .text:00000000000001a0 .L0 
     /tmp/ccX2HTLA.s:280    .text:00000000000001a4 .L0 
     /tmp/ccX2HTLA.s:286    .text:00000000000001a4 _ZN7_thread10exitThreadEv
     /tmp/ccX2HTLA.s:289    .text:00000000000001a4 .L0 
     /tmp/ccX2HTLA.s:290    .text:00000000000001a4 .L0 
     /tmp/ccX2HTLA.s:291    .text:00000000000001a8 .L0 
     /tmp/ccX2HTLA.s:294    .text:00000000000001b0 .L0 
     /tmp/ccX2HTLA.s:295    .text:00000000000001b0 .L0 
     /tmp/ccX2HTLA.s:297    .text:00000000000001b4 .L0 
     /tmp/ccX2HTLA.s:302    .text:00000000000001b4 .L0 
     /tmp/ccX2HTLA.s:303    .text:00000000000001b4 .L0 
     /tmp/ccX2HTLA.s:304    .text:00000000000001b4 .L0 
     /tmp/ccX2HTLA.s:311    .text:00000000000001c4 .L0 
     /tmp/ccX2HTLA.s:312    .text:00000000000001c4 .L0 
     /tmp/ccX2HTLA.s:315    .text:00000000000001cc .L0 
     /tmp/ccX2HTLA.s:316    .text:00000000000001cc .L0 
     /tmp/ccX2HTLA.s:318    .text:00000000000001d4 .L0 
     /tmp/ccX2HTLA.s:320    .text:00000000000001d8 .L0 
     /tmp/ccX2HTLA.s:321    .text:00000000000001d8 .L0 
GAS LISTING /tmp/ccX2HTLA.s 			page 12


     /tmp/ccX2HTLA.s:323    .text:00000000000001dc .L0 
     /tmp/ccX2HTLA.s:325    .text:00000000000001e0 .L0 
     /tmp/ccX2HTLA.s:331    .text:00000000000001e0 _ZN7_thread8setStartEb
     /tmp/ccX2HTLA.s:334    .text:00000000000001e0 .L0 
     /tmp/ccX2HTLA.s:336    .text:00000000000001e0 .L0 
     /tmp/ccX2HTLA.s:337    .text:00000000000001e4 .L0 
     /tmp/ccX2HTLA.s:339    .text:00000000000001e8 .L0 
     /tmp/ccX2HTLA.s:341    .text:00000000000001ec .L0 
     /tmp/ccX2HTLA.s:343    .text:00000000000001ec .L0 
     /tmp/ccX2HTLA.s:344    .text:00000000000001ec .L0 
     /tmp/ccX2HTLA.s:346    .text:00000000000001f0 .L0 
     /tmp/ccX2HTLA.s:347    .text:00000000000001f4 .L0 
     /tmp/ccX2HTLA.s:348    .text:00000000000001f4 .L0 
     /tmp/ccX2HTLA.s:350    .text:00000000000001f8 .L0 
     /tmp/ccX2HTLA.s:352    .text:00000000000001fc .L0 
     /tmp/ccX2HTLA.s:361    .bss:0000000000000000 _ZN7_thread7runningE
     /tmp/ccX2HTLA.s:358    .bss:0000000000000000 .LANCHOR0
     /tmp/ccX2HTLA.s:368    .text:00000000000001fc .L0 
     /tmp/ccX2HTLA.s:63     .text:0000000000000058 .L0 
     /tmp/ccX2HTLA.s:165    .text:00000000000000ec .L0 
     /tmp/ccX2HTLA.s:184    .text:0000000000000104 .L0 
     /tmp/ccX2HTLA.s:239    .text:0000000000000158 .L0 
     /tmp/ccX2HTLA.s:261    .text:000000000000017c .L0 
     /tmp/ccX2HTLA.s:304    .text:00000000000001b4 .L0 
     /tmp/ccX2HTLA.s:57     .text:0000000000000050 .L6
     /tmp/ccX2HTLA.s:60     .text:0000000000000054 .L2
     /tmp/ccX2HTLA.s:85     .text:0000000000000094 .L7
     /tmp/ccX2HTLA.s:103    .text:00000000000000b8 .L1
     /tmp/ccX2HTLA.s:70     .text:0000000000000070 .L3
     /tmp/ccX2HTLA.s:205    .text:0000000000000130 .L13
     /tmp/ccX2HTLA.s:178    .text:00000000000000fc .L11
     /tmp/ccX2HTLA.s:249    .text:0000000000000174 .L15
     /tmp/ccX2HTLA.s:235    .text:0000000000000158 .L16
     /tmp/ccX2HTLA.s:37     .text:0000000000000028 .LEHB0
     /tmp/ccX2HTLA.s:10     .text:0000000000000000 .LFB32
     /tmp/ccX2HTLA.s:40     .text:0000000000000030 .LEHE0
     /tmp/ccX2HTLA.s:53     .text:0000000000000044 .LEHB1
     /tmp/ccX2HTLA.s:83     .text:0000000000000090 .LEHE1
     /tmp/ccX2HTLA.s:89     .text:000000000000009c .L8
     /tmp/ccX2HTLA.s:99     .text:00000000000000b0 .LEHB2
     /tmp/ccX2HTLA.s:102    .text:00000000000000b8 .LEHE2
     /tmp/ccX2HTLA.s:1397   .debug_abbrev:0000000000000000 .Ldebug_abbrev0
     /tmp/ccX2HTLA.s:2660   .debug_str:0000000000000628 .LASF106
     /tmp/ccX2HTLA.s:2674   .debug_str:0000000000000749 .LASF107
     /tmp/ccX2HTLA.s:2522   .debug_str:00000000000001e4 .LASF108
     /tmp/ccX2HTLA.s:5      .text:0000000000000000 .Ltext0
     /tmp/ccX2HTLA.s:364    .text:00000000000001fc .Letext0
     /tmp/ccX2HTLA.s:2452   .debug_line:0000000000000000 .Ldebug_line0
     /tmp/ccX2HTLA.s:2586   .debug_str:00000000000003f3 .LASF0
     /tmp/ccX2HTLA.s:2600   .debug_str:000000000000042d .LASF1
     /tmp/ccX2HTLA.s:2574   .debug_str:00000000000003b2 .LASF2
     /tmp/ccX2HTLA.s:2508   .debug_str:0000000000000192 .LASF3
     /tmp/ccX2HTLA.s:2546   .debug_str:00000000000002b6 .LASF4
     /tmp/ccX2HTLA.s:2634   .debug_str:0000000000000547 .LASF5
     /tmp/ccX2HTLA.s:2474   .debug_str:0000000000000075 .LASF6
     /tmp/ccX2HTLA.s:2604   .debug_str:0000000000000448 .LASF7
     /tmp/ccX2HTLA.s:2584   .debug_str:00000000000003e0 .LASF8
GAS LISTING /tmp/ccX2HTLA.s 			page 13


     /tmp/ccX2HTLA.s:2670   .debug_str:0000000000000732 .LASF9
     /tmp/ccX2HTLA.s:2530   .debug_str:000000000000022c .LASF10
     /tmp/ccX2HTLA.s:2616   .debug_str:00000000000004aa .LASF11
     /tmp/ccX2HTLA.s:2662   .debug_str:00000000000006ec .LASF12
     /tmp/ccX2HTLA.s:2476   .debug_str:000000000000007c .LASF13
     /tmp/ccX2HTLA.s:2458   .debug_str:000000000000001e .LASF14
     /tmp/ccX2HTLA.s:2490   .debug_str:00000000000000e1 .LASF15
     /tmp/ccX2HTLA.s:2626   .debug_str:00000000000004e7 .LASF16
     /tmp/ccX2HTLA.s:2500   .debug_str:0000000000000139 .LASF17
     /tmp/ccX2HTLA.s:2612   .debug_str:000000000000048c .LASF18
     /tmp/ccX2HTLA.s:2524   .debug_str:0000000000000202 .LASF109
     /tmp/ccX2HTLA.s:2540   .debug_str:0000000000000290 .LASF110
     /tmp/ccX2HTLA.s:2668   .debug_str:0000000000000716 .LASF111
     /tmp/ccX2HTLA.s:2552   .debug_str:00000000000002e7 .LASF112
     /tmp/ccX2HTLA.s:2542   .debug_str:00000000000002a4 .LASF19
     /tmp/ccX2HTLA.s:2464   .debug_str:0000000000000040 .LASF113
     /tmp/ccX2HTLA.s:2664   .debug_str:00000000000006fb .LASF20
     /tmp/ccX2HTLA.s:2608   .debug_str:0000000000000466 .LASF22
     /tmp/ccX2HTLA.s:2606   .debug_str:000000000000045b .LASF114
     /tmp/ccX2HTLA.s:2570   .debug_str:0000000000000382 .LASF115
     /tmp/ccX2HTLA.s:2576   .debug_str:00000000000003c0 .LASF21
     /tmp/ccX2HTLA.s:2568   .debug_str:0000000000000367 .LASF23
     /tmp/ccX2HTLA.s:2558   .debug_str:0000000000000308 .LASF24
     /tmp/ccX2HTLA.s:2628   .debug_str:00000000000004fd .LASF25
     /tmp/ccX2HTLA.s:2622   .debug_str:00000000000004d7 .LASF116
     /tmp/ccX2HTLA.s:2578   .debug_str:00000000000003cc .LASF54
     /tmp/ccX2HTLA.s:2654   .debug_str:00000000000005f4 .LASF56
     /tmp/ccX2HTLA.s:2514   .debug_str:00000000000001bb .LASF117
     /tmp/ccX2HTLA.s:2618   .debug_str:00000000000004b9 .LASF26
     /tmp/ccX2HTLA.s:2512   .debug_str:00000000000001a1 .LASF59
     /tmp/ccX2HTLA.s:2462   .debug_str:0000000000000037 .LASF27
     /tmp/ccX2HTLA.s:2682   .debug_str:000000000000078b .LASF28
     /tmp/ccX2HTLA.s:2468   .debug_str:0000000000000052 .LASF62
     /tmp/ccX2HTLA.s:2480   .debug_str:000000000000009c .LASF29
     /tmp/ccX2HTLA.s:2594   .debug_str:0000000000000416 .LASF30
     /tmp/ccX2HTLA.s:2592   .debug_str:0000000000000410 .LASF31
     /tmp/ccX2HTLA.s:2556   .debug_str:0000000000000300 .LASF32
     /tmp/ccX2HTLA.s:2596   .debug_str:000000000000041b .LASF33
     /tmp/ccX2HTLA.s:2550   .debug_str:00000000000002de .LASF34
     /tmp/ccX2HTLA.s:2598   .debug_str:0000000000000425 .LASF35
     /tmp/ccX2HTLA.s:2560   .debug_str:0000000000000315 .LASF37
     /tmp/ccX2HTLA.s:2534   .debug_str:0000000000000250 .LASF39
     /tmp/ccX2HTLA.s:2678   .debug_str:000000000000076e .LASF36
     /tmp/ccX2HTLA.s:2566   .debug_str:000000000000033b .LASF118
     /tmp/ccX2HTLA.s:2590   .debug_str:0000000000000407 .LASF38
     /tmp/ccX2HTLA.s:2652   .debug_str:00000000000005dd .LASF40
     /tmp/ccX2HTLA.s:2520   .debug_str:00000000000001df .LASF41
     /tmp/ccX2HTLA.s:2478   .debug_str:000000000000008c .LASF42
     /tmp/ccX2HTLA.s:2636   .debug_str:0000000000000559 .LASF43
     /tmp/ccX2HTLA.s:2492   .debug_str:00000000000000ed .LASF44
     /tmp/ccX2HTLA.s:2548   .debug_str:00000000000002bd .LASF45
     /tmp/ccX2HTLA.s:2614   .debug_str:0000000000000496 .LASF46
     /tmp/ccX2HTLA.s:2562   .debug_str:0000000000000323 .LASF47
     /tmp/ccX2HTLA.s:2456   .debug_str:0000000000000008 .LASF48
     /tmp/ccX2HTLA.s:2680   .debug_str:000000000000077c .LASF49
     /tmp/ccX2HTLA.s:2638   .debug_str:0000000000000568 .LASF50
     /tmp/ccX2HTLA.s:2658   .debug_str:0000000000000619 .LASF51
GAS LISTING /tmp/ccX2HTLA.s 			page 14


     /tmp/ccX2HTLA.s:2656   .debug_str:0000000000000608 .LASF52
     /tmp/ccX2HTLA.s:2494   .debug_str:0000000000000106 .LASF53
     /tmp/ccX2HTLA.s:2624   .debug_str:00000000000004dc .LASF55
     /tmp/ccX2HTLA.s:2688   .debug_str:00000000000007ba .LASF57
     /tmp/ccX2HTLA.s:2460   .debug_str:000000000000002e .LASF58
     /tmp/ccX2HTLA.s:2646   .debug_str:000000000000059d .LASF60
     /tmp/ccX2HTLA.s:2510   .debug_str:0000000000000198 .LASF61
     /tmp/ccX2HTLA.s:2496   .debug_str:000000000000010c .LASF63
     /tmp/ccX2HTLA.s:2580   .debug_str:00000000000003d2 .LASF64
     /tmp/ccX2HTLA.s:2620   .debug_str:00000000000004c4 .LASF65
     /tmp/ccX2HTLA.s:2672   .debug_str:0000000000000742 .LASF66
     /tmp/ccX2HTLA.s:2650   .debug_str:00000000000005ca .LASF67
     /tmp/ccX2HTLA.s:2602   .debug_str:0000000000000440 .LASF68
     /tmp/ccX2HTLA.s:2502   .debug_str:000000000000014f .LASF69
     /tmp/ccX2HTLA.s:2454   .debug_str:0000000000000000 .LASF70
     /tmp/ccX2HTLA.s:2536   .debug_str:000000000000026d .LASF71
     /tmp/ccX2HTLA.s:2516   .debug_str:00000000000001c3 .LASF72
     /tmp/ccX2HTLA.s:2482   .debug_str:00000000000000a1 .LASF73
     /tmp/ccX2HTLA.s:2692   .debug_str:00000000000007dd .LASF74
     /tmp/ccX2HTLA.s:2518   .debug_str:00000000000001cb .LASF75
     /tmp/ccX2HTLA.s:2588   .debug_str:0000000000000400 .LASF76
     /tmp/ccX2HTLA.s:2684   .debug_str:00000000000007a2 .LASF77
     /tmp/ccX2HTLA.s:2472   .debug_str:000000000000006e .LASF78
     /tmp/ccX2HTLA.s:2526   .debug_str:0000000000000213 .LASF79
     /tmp/ccX2HTLA.s:2528   .debug_str:0000000000000226 .LASF80
     /tmp/ccX2HTLA.s:2666   .debug_str:0000000000000704 .LASF81
     /tmp/ccX2HTLA.s:2470   .debug_str:0000000000000068 .LASF82
     /tmp/ccX2HTLA.s:2696   .debug_str:00000000000007fb .LASF83
     /tmp/ccX2HTLA.s:2690   .debug_str:00000000000007d2 .LASF84
     /tmp/ccX2HTLA.s:2632   .debug_str:000000000000052f .LASF85
     /tmp/ccX2HTLA.s:2554   .debug_str:00000000000002f5 .LASF86
     /tmp/ccX2HTLA.s:2648   .debug_str:00000000000005b2 .LASF87
     /tmp/ccX2HTLA.s:2488   .debug_str:00000000000000d7 .LASF88
     /tmp/ccX2HTLA.s:2610   .debug_str:0000000000000476 .LASF89
     /tmp/ccX2HTLA.s:2466   .debug_str:0000000000000048 .LASF90
     /tmp/ccX2HTLA.s:2532   .debug_str:000000000000023a .LASF91
     /tmp/ccX2HTLA.s:2640   .debug_str:0000000000000578 .LASF92
     /tmp/ccX2HTLA.s:2484   .debug_str:00000000000000b5 .LASF93
     /tmp/ccX2HTLA.s:2676   .debug_str:0000000000000759 .LASF94
     /tmp/ccX2HTLA.s:2506   .debug_str:0000000000000170 .LASF95
     /tmp/ccX2HTLA.s:2572   .debug_str:000000000000039d .LASF119
     /tmp/ccX2HTLA.s:332    .text:00000000000001e0 .LFB36
     /tmp/ccX2HTLA.s:353    .text:00000000000001fc .LFE36
     /tmp/ccX2HTLA.s:2686   .debug_str:00000000000007b5 .LASF96
     /tmp/ccX2HTLA.s:287    .text:00000000000001a4 .LFB35
     /tmp/ccX2HTLA.s:326    .text:00000000000001e0 .LFE35
     /tmp/ccX2HTLA.s:300    .text:00000000000001b4 .LBB17
     /tmp/ccX2HTLA.s:309    .text:00000000000001c4 .LBE17
     /tmp/ccX2HTLA.s:2292   .debug_loc:0000000000000000 .LLST9
     /tmp/ccX2HTLA.s:2300   .debug_loc:0000000000000024 .LLST10
     /tmp/ccX2HTLA.s:313    .text:00000000000001cc .LVL26
     /tmp/ccX2HTLA.s:220    .text:0000000000000140 .LFB34
     /tmp/ccX2HTLA.s:281    .text:00000000000001a4 .LFE34
     /tmp/ccX2HTLA.s:257    .text:000000000000017c .LBB15
     /tmp/ccX2HTLA.s:266    .text:000000000000018c .LBE15
     /tmp/ccX2HTLA.s:2308   .debug_loc:000000000000004f .LLST7
     /tmp/ccX2HTLA.s:2316   .debug_loc:0000000000000073 .LLST8
GAS LISTING /tmp/ccX2HTLA.s 			page 15


     /tmp/ccX2HTLA.s:234    .text:0000000000000158 .LVL19
     /tmp/ccX2HTLA.s:246    .text:0000000000000170 .LVL20
     /tmp/ccX2HTLA.s:270    .text:0000000000000194 .LVL23
     /tmp/ccX2HTLA.s:150    .text:00000000000000d8 .LFB33
     /tmp/ccX2HTLA.s:214    .text:0000000000000140 .LFE33
     /tmp/ccX2HTLA.s:2324   .debug_loc:000000000000009e .LLST5
     /tmp/ccX2HTLA.s:168    .text:00000000000000f4 .LBB13
     /tmp/ccX2HTLA.s:175    .text:00000000000000f8 .LBE13
     /tmp/ccX2HTLA.s:2335   .debug_loc:00000000000000d4 .LLST6
     /tmp/ccX2HTLA.s:182    .text:0000000000000104 .LVL14
     /tmp/ccX2HTLA.s:190    .text:000000000000011c .LVL15
     /tmp/ccX2HTLA.s:211    .text:000000000000013c .LVL18
     /tmp/ccX2HTLA.s:124    .text:00000000000000d8 .LFE32
     /tmp/ccX2HTLA.s:2342   .debug_loc:00000000000000f7 .LLST0
     /tmp/ccX2HTLA.s:2371   .debug_loc:000000000000016c .LLST1
     /tmp/ccX2HTLA.s:2544   .debug_str:00000000000002ac .LASF120
     /tmp/ccX2HTLA.s:43     .text:0000000000000034 .LBB11
     /tmp/ccX2HTLA.s:93     .text:00000000000000a0 .LBE11
     /tmp/ccX2HTLA.s:2389   .debug_loc:00000000000001b8 .LLST2
     /tmp/ccX2HTLA.s:2403   .debug_loc:00000000000001f1 .LLST3
     /tmp/ccX2HTLA.s:2428   .debug_loc:0000000000000253 .LLST4
     /tmp/ccX2HTLA.s:55     .text:000000000000004c .LVL4
     /tmp/ccX2HTLA.s:82     .text:0000000000000090 .LVL5
     /tmp/ccX2HTLA.s:39     .text:0000000000000030 .LVL2
     /tmp/ccX2HTLA.s:97     .text:00000000000000ac .LVL7
     /tmp/ccX2HTLA.s:101    .text:00000000000000b8 .LVL8
     /tmp/ccX2HTLA.s:2694   .debug_str:00000000000007e5 .LASF121
     /tmp/ccX2HTLA.s:2486   .debug_str:00000000000000d1 .LASF97
     /tmp/ccX2HTLA.s:2644   .debug_str:0000000000000597 .LASF98
     /tmp/ccX2HTLA.s:2630   .debug_str:000000000000051f .LASF100
     /tmp/ccX2HTLA.s:2564   .debug_str:0000000000000335 .LASF99
     /tmp/ccX2HTLA.s:2504   .debug_str:0000000000000163 .LASF101
     /tmp/ccX2HTLA.s:2582   .debug_str:00000000000003d9 .LASF102
     /tmp/ccX2HTLA.s:2642   .debug_str:0000000000000587 .LASF103
     /tmp/ccX2HTLA.s:2538   .debug_str:0000000000000281 .LASF104
     /tmp/ccX2HTLA.s:2498   .debug_str:0000000000000121 .LASF105
     /tmp/ccX2HTLA.s:299    .text:00000000000001b4 .LVL24
     /tmp/ccX2HTLA.s:307    .text:00000000000001c4 .LVL25
     /tmp/ccX2HTLA.s:255    .text:000000000000017c .LVL21
     /tmp/ccX2HTLA.s:264    .text:000000000000018c .LVL22
     /tmp/ccX2HTLA.s:166    .text:00000000000000f4 .LVL12
     /tmp/ccX2HTLA.s:200    .text:0000000000000128 .LVL16
     /tmp/ccX2HTLA.s:204    .text:0000000000000130 .LVL17
     /tmp/ccX2HTLA.s:173    .text:00000000000000f8 .LVL13
     /tmp/ccX2HTLA.s:16     .text:0000000000000000 .LVL0
     /tmp/ccX2HTLA.s:36     .text:0000000000000028 .LVL1
     /tmp/ccX2HTLA.s:91     .text:00000000000000a0 .LVL6
     /tmp/ccX2HTLA.s:116    .text:00000000000000cc .LVL10
     /tmp/ccX2HTLA.s:119    .text:00000000000000d0 .LVL11
     /tmp/ccX2HTLA.s:42     .text:0000000000000034 .LVL3
     /tmp/ccX2HTLA.s:113    .text:00000000000000c8 .LVL9
     /tmp/ccX2HTLA.s:369    .debug_info:0000000000000000 .Ldebug_info0
     /tmp/ccX2HTLA.s:127    .gcc_except_table:0000000000000000 .LLSDA32

UNDEFINED SYMBOLS
_Znwm
_Znam
GAS LISTING /tmp/ccX2HTLA.s 			page 16


_ZN9Scheduler3putEP7_thread
_ZdlPv
_Unwind_Resume
__gxx_personality_v0
_ZN9Scheduler3getEv
_ZN7_thread13contextSwitchEPNS_7ContextES1_
_ZN5Riscv10popSppSpieEv
