GAS LISTING /tmp/ccWXH52e.s 			page 1


   1              		.file	"_thread.cpp"
   2              		.option pic
   3              		.option norelax
   4              		.text
   5              	.Ltext0:
   6              		.align	2
   7              		.globl	_ZN7_thread13threadWrapperEv
   9              	_ZN7_thread13threadWrapperEv:
  10              	.LFB37:
  11              		.file 1 "src/_thread.cpp"
   1:src/_thread.cpp **** 
   2:src/_thread.cpp **** 
   3:src/_thread.cpp **** #include "../h/_thread.hpp"
   4:src/_thread.cpp **** #include "../h/riscv.hpp"
   5:src/_thread.cpp **** #include "../h/syscall_c.hpp"
   6:src/_thread.cpp **** #include "../test/printing.hpp"
   7:src/_thread.cpp **** 
   8:src/_thread.cpp **** _thread *_thread::running = nullptr;
   9:src/_thread.cpp **** 
  10:src/_thread.cpp **** 
  11:src/_thread.cpp **** _thread *_thread::createThread(Body body, void* args)
  12:src/_thread.cpp **** {
  13:src/_thread.cpp ****     _thread* newThread = new _thread(body, args);
  14:src/_thread.cpp ****     return newThread;
  15:src/_thread.cpp **** }
  16:src/_thread.cpp **** 
  17:src/_thread.cpp **** void _thread::dispatch()
  18:src/_thread.cpp **** {
  19:src/_thread.cpp ****     _thread *old = running;
  20:src/_thread.cpp ****     if (!old->isFinished() && !old->isBlocked()) { Scheduler::put(old); }
  21:src/_thread.cpp ****     running = Scheduler::get();
  22:src/_thread.cpp ****     if (running == nullptr) {
  23:src/_thread.cpp ****         printString("vratili smo null\n");
  24:src/_thread.cpp ****     }
  25:src/_thread.cpp **** 
  26:src/_thread.cpp ****     _thread::contextSwitch(&old->context, &running->context);
  27:src/_thread.cpp **** }
  28:src/_thread.cpp **** 
  29:src/_thread.cpp **** void _thread::threadWrapper()
  30:src/_thread.cpp **** {
  12              		.loc 1 30 1
  13              		.cfi_startproc
  14 0000 130101FF 		addi	sp,sp,-16
  15              		.cfi_def_cfa_offset 16
  16 0004 23341100 		sd	ra,8(sp)
  17 0008 23308100 		sd	s0,0(sp)
  18              		.cfi_offset 1, -8
  19              		.cfi_offset 8, -16
  20 000c 13040101 		addi	s0,sp,16
  21              		.cfi_def_cfa 8, 0
  31:src/_thread.cpp **** 
  32:src/_thread.cpp ****     Riscv::popSppSpie();
  22              		.loc 1 32 5
  23              		.loc 1 32 22 is_stmt 0
  24 0010 97000000 		call	_ZN5Riscv10popSppSpieEv@plt
  24      E7800000 
  25              	.LVL0:
GAS LISTING /tmp/ccWXH52e.s 			page 2


  26              	.L3:
  33:src/_thread.cpp ****     while(!running->isStarted()) thread_dispatch();
  27              		.loc 1 33 5 is_stmt 1 discriminator 2
  28              		.loc 1 33 11 discriminator 2
  29              		.loc 1 33 30 is_stmt 0 discriminator 2
  30 0018 97070000 		ld	a5,.LANCHOR0
  30      83B70700 
  31              	.LVL1:
  32              	.LBB10:
  33              	.LBB11:
  34              		.file 2 "src/../h/_thread.hpp"
   1:src/../h/_thread.hpp **** 
   2:src/../h/_thread.hpp **** 
   3:src/../h/_thread.hpp **** #ifndef OS1_VEZBE07_RISCV_CONTEXT_SWITCH_2_INTERRUPT_TCB_HPP
   4:src/../h/_thread.hpp **** #define OS1_VEZBE07_RISCV_CONTEXT_SWITCH_2_INTERRUPT_TCB_HPP
   5:src/../h/_thread.hpp **** 
   6:src/../h/_thread.hpp **** #include "../lib/hw.h"
   7:src/../h/_thread.hpp **** #include "scheduler.hpp"
   8:src/../h/_thread.hpp **** 
   9:src/../h/_thread.hpp **** typedef _thread* thread_t;
  10:src/../h/_thread.hpp **** 
  11:src/../h/_thread.hpp **** // Thread Control Block
  12:src/../h/_thread.hpp **** class _thread
  13:src/../h/_thread.hpp **** {
  14:src/../h/_thread.hpp **** public:
  15:src/../h/_thread.hpp ****     ~_thread() { delete[] stack; }
  16:src/../h/_thread.hpp **** 
  17:src/../h/_thread.hpp ****     bool isFinished() const { return finished; }
  18:src/../h/_thread.hpp **** 
  19:src/../h/_thread.hpp ****     void setFinished(bool value) { finished = value; }
  20:src/../h/_thread.hpp **** 
  21:src/../h/_thread.hpp ****     using Body = void (*)(void*);
  22:src/../h/_thread.hpp **** 
  23:src/../h/_thread.hpp ****     static _thread *createThread(Body body, void* args);
  24:src/../h/_thread.hpp **** 
  25:src/../h/_thread.hpp ****     static void yield();
  26:src/../h/_thread.hpp **** 
  27:src/../h/_thread.hpp ****     static _thread *running;
  28:src/../h/_thread.hpp **** 
  29:src/../h/_thread.hpp ****     static int exitThread();
  30:src/../h/_thread.hpp **** 
  31:src/../h/_thread.hpp ****     void setStart(bool b);
  32:src/../h/_thread.hpp **** 
  33:src/../h/_thread.hpp ****     bool isStarted() const { return started; }
  35              		.loc 2 33 30 is_stmt 1 discriminator 2
  36              		.loc 2 33 37 is_stmt 0 discriminator 2
  37 0020 03C79702 		lbu	a4,41(a5)
  38              	.LVL2:
  39              	.LBE11:
  40              	.LBE10:
  41              		.loc 1 33 11 discriminator 2
  42 0024 63180700 		bnez	a4,.L2
  43              		.loc 1 33 34 is_stmt 1 discriminator 1
  44              		.loc 1 33 49 is_stmt 0 discriminator 1
  45 0028 97000000 		call	_Z15thread_dispatchv@plt
  45      E7800000 
  46              	.LVL3:
GAS LISTING /tmp/ccWXH52e.s 			page 3


  47              		.loc 1 33 5 discriminator 1
  48 0030 6FF09FFE 		j	.L3
  49              	.L2:
  34:src/_thread.cpp ****     running->body(running->args);
  50              		.loc 1 34 5 is_stmt 1
  51              		.loc 1 34 14 is_stmt 0
  52 0034 03B70700 		ld	a4,0(a5)
  53              		.loc 1 34 18
  54 0038 03B58700 		ld	a0,8(a5)
  55 003c E7000700 		jalr	a4
  56              	.LVL4:
  35:src/_thread.cpp ****     thread_exit();
  57              		.loc 1 35 5 is_stmt 1
  58              		.loc 1 35 16 is_stmt 0
  59 0040 97000000 		call	_Z11thread_exitv@plt
  59      E7800000 
  60              	.LVL5:
  36:src/_thread.cpp **** }
  61              		.loc 1 36 1
  62 0048 83308100 		ld	ra,8(sp)
  63              		.cfi_restore 1
  64 004c 03340100 		ld	s0,0(sp)
  65              		.cfi_restore 8
  66              		.cfi_def_cfa 2, 16
  67 0050 13010101 		addi	sp,sp,16
  68              		.cfi_def_cfa_offset 0
  69 0054 67800000 		jr	ra
  70              		.cfi_endproc
  71              	.LFE37:
  73              		.align	2
  74              		.globl	_ZN7_thread12createThreadEPFvPvES0_
  76              	_ZN7_thread12createThreadEPFvPvES0_:
  77              	.LFB35:
  12:src/_thread.cpp ****     _thread* newThread = new _thread(body, args);
  78              		.loc 1 12 1 is_stmt 1
  79              		.cfi_startproc
  80              		.cfi_personality 0x9b,DW.ref.__gxx_personality_v0
  81              		.cfi_lsda 0x1b,.LLSDA35
  82              	.LVL6:
  83 0058 130101FD 		addi	sp,sp,-48
  84              		.cfi_def_cfa_offset 48
  85 005c 23341102 		sd	ra,40(sp)
  86 0060 23308102 		sd	s0,32(sp)
  87 0064 233C9100 		sd	s1,24(sp)
  88 0068 23382101 		sd	s2,16(sp)
  89 006c 23343101 		sd	s3,8(sp)
  90              		.cfi_offset 1, -8
  91              		.cfi_offset 8, -16
  92              		.cfi_offset 9, -24
  93              		.cfi_offset 18, -32
  94              		.cfi_offset 19, -40
  95 0070 13040103 		addi	s0,sp,48
  96              		.cfi_def_cfa 8, 0
  97 0074 13090500 		mv	s2,a0
  98 0078 93890500 		mv	s3,a1
  13:src/_thread.cpp ****     return newThread;
  99              		.loc 1 13 5
GAS LISTING /tmp/ccWXH52e.s 			page 4


  13:src/_thread.cpp ****     return newThread;
 100              		.loc 1 13 48 is_stmt 0
 101 007c 13050003 		li	a0,48
 102              	.LVL7:
 103              	.LEHB0:
 104 0080 97000000 		call	_Znwm@plt
 104      E7800000 
 105              	.LVL8:
 106              	.LEHE0:
 107 0088 93040500 		mv	s1,a0
 108              	.LVL9:
 109              	.LBB15:
 110              	.LBB16:
  34:src/../h/_thread.hpp **** 
  35:src/../h/_thread.hpp ****     void setBlock(bool b);
  36:src/../h/_thread.hpp **** 
  37:src/../h/_thread.hpp ****     bool isBlocked() const { return blocked; }
  38:src/../h/_thread.hpp **** 
  39:src/../h/_thread.hpp **** private:
  40:src/../h/_thread.hpp ****     _thread(Body body, void* args) :
  41:src/../h/_thread.hpp ****             body(body),
  42:src/../h/_thread.hpp ****             args(args),
  43:src/../h/_thread.hpp ****             stack(body != nullptr ? new uint64[DEFAULT_STACK_SIZE] : nullptr),
  44:src/../h/_thread.hpp ****             context({
  45:src/../h/_thread.hpp ****                 (uint64) &threadWrapper,
  46:src/../h/_thread.hpp ****                 stack != nullptr ? (uint64) &stack[DEFAULT_STACK_SIZE] : 0
  47:src/../h/_thread.hpp ****             }),
  48:src/../h/_thread.hpp ****             finished(false),
  49:src/../h/_thread.hpp ****             started(true),
  50:src/../h/_thread.hpp ****             blocked(false)
 111              		.loc 2 50 26
 112 008c 23302501 		sd	s2,0(a0)
 113 0090 23343501 		sd	s3,8(a0)
  43:src/../h/_thread.hpp ****             context({
 114              		.loc 2 43 35
 115 0094 630A0900 		beqz	s2,.L10
  43:src/../h/_thread.hpp ****             context({
 116              		.loc 2 43 66
 117 0098 37850000 		li	a0,32768
 118              	.LEHB1:
 119 009c 97000000 		call	_Znam@plt
 119      E7800000 
 120              	.LVL10:
 121 00a4 6F008000 		j	.L6
 122              	.L10:
  43:src/../h/_thread.hpp ****             context({
 123              		.loc 2 43 35
 124 00a8 13050000 		li	a0,0
 125              	.L6:
 126              		.loc 2 50 26
 127 00ac 23B8A400 		sd	a0,16(s1)
 128 00b0 97070000 		lla	a5,_ZN7_thread13threadWrapperEv
 128      93870700 
 129 00b8 23BCF400 		sd	a5,24(s1)
  46:src/../h/_thread.hpp ****             }),
 130              		.loc 2 46 34
 131 00bc 630A0502 		beqz	a0,.L11
GAS LISTING /tmp/ccWXH52e.s 			page 5


  46:src/../h/_thread.hpp ****             }),
 132              		.loc 2 46 45
 133 00c0 B7870000 		li	a5,32768
 134 00c4 B307F500 		add	a5,a0,a5
 135              	.L7:
 136              		.loc 2 50 26
 137 00c8 23B0F402 		sd	a5,32(s1)
 138 00cc 23840402 		sb	zero,40(s1)
 139 00d0 93071000 		li	a5,1
 140 00d4 A384F402 		sb	a5,41(s1)
 141 00d8 23850402 		sb	zero,42(s1)
  51:src/../h/_thread.hpp ****     {
  52:src/../h/_thread.hpp ****             if (body != nullptr) { Scheduler::put(this);}
 142              		.loc 2 52 13 is_stmt 1
 143 00dc 630C0902 		beqz	s2,.L5
 144              		.loc 2 52 36
 145              		.loc 2 52 50 is_stmt 0
 146 00e0 13850400 		mv	a0,s1
 147 00e4 97000000 		call	_ZN9Scheduler3putEP7_thread@plt
 147      E7800000 
 148              	.LVL11:
 149              	.LEHE1:
 150 00ec 6F008002 		j	.L5
 151              	.L11:
  46:src/../h/_thread.hpp ****             }),
 152              		.loc 2 46 34
 153 00f0 93070000 		li	a5,0
 154 00f4 6FF05FFD 		j	.L7
 155              	.L12:
 156 00f8 13090500 		mv	s2,a0
 157              	.LVL12:
 158              	.LBE16:
 159              	.LBE15:
  13:src/_thread.cpp ****     return newThread;
 160              		.loc 1 13 48
 161 00fc 13850400 		mv	a0,s1
 162 0100 97000000 		call	_ZdlPv@plt
 162      E7800000 
 163              	.LVL13:
 164 0108 13050900 		mv	a0,s2
 165              	.LEHB2:
 166 010c 97000000 		call	_Unwind_Resume@plt
 166      E7800000 
 167              	.LVL14:
 168              	.LEHE2:
 169              	.L5:
  15:src/_thread.cpp **** 
 170              		.loc 1 15 1
 171 0114 13850400 		mv	a0,s1
 172 0118 83308102 		ld	ra,40(sp)
 173              		.cfi_restore 1
 174 011c 03340102 		ld	s0,32(sp)
 175              		.cfi_restore 8
 176              		.cfi_def_cfa 2, 48
 177 0120 83348101 		ld	s1,24(sp)
 178              		.cfi_restore 9
 179              	.LVL15:
GAS LISTING /tmp/ccWXH52e.s 			page 6


 180 0124 03390101 		ld	s2,16(sp)
 181              		.cfi_restore 18
 182              	.LVL16:
 183 0128 83398100 		ld	s3,8(sp)
 184              		.cfi_restore 19
 185              	.LVL17:
 186 012c 13010103 		addi	sp,sp,48
 187              		.cfi_def_cfa_offset 0
 188 0130 67800000 		jr	ra
 189              		.cfi_endproc
 190              	.LFE35:
 191              		.globl	__gxx_personality_v0
 192              		.section	.gcc_except_table,"a",@progbits
 193              	.LLSDA35:
 194 0000 FF       		.byte	0xff
 195 0001 FF       		.byte	0xff
 196 0002 03       		.byte	0x3
 197 0003 27       		.byte	0x27
 198 0004 00000000 		.4byte	.LEHB0-.LFB35
 199 0008 00000000 		.4byte	.LEHE0-.LEHB0
 200 000c 00000000 		.4byte	0
 201 0010 00       		.byte	0
 202 0011 00000000 		.4byte	.LEHB1-.LFB35
 203 0015 00000000 		.4byte	.LEHE1-.LEHB1
 204 0019 00000000 		.4byte	.L12-.LFB35
 205 001d 00       		.byte	0
 206 001e 00000000 		.4byte	.LEHB2-.LFB35
 207 0022 00000000 		.4byte	.LEHE2-.LEHB2
 208 0026 00000000 		.4byte	0
 209 002a 00       		.byte	0
 210              		.text
 212              		.section	.rodata.str1.8,"aMS",@progbits,1
 213              		.align	3
 214              	.LC0:
 215 0000 76726174 		.string	"vratili smo null\n"
 215      696C6920 
 215      736D6F20 
 215      6E756C6C 
 215      0A00
 216              		.text
 217              		.align	2
 218              		.globl	_ZN7_thread8dispatchEv
 220              	_ZN7_thread8dispatchEv:
 221              	.LFB36:
  18:src/_thread.cpp ****     _thread *old = running;
 222              		.loc 1 18 1 is_stmt 1
 223              		.cfi_startproc
 224 0134 130101FE 		addi	sp,sp,-32
 225              		.cfi_def_cfa_offset 32
 226 0138 233C1100 		sd	ra,24(sp)
 227 013c 23388100 		sd	s0,16(sp)
 228 0140 23349100 		sd	s1,8(sp)
 229              		.cfi_offset 1, -8
 230              		.cfi_offset 8, -16
 231              		.cfi_offset 9, -24
 232 0144 13040102 		addi	s0,sp,32
 233              		.cfi_def_cfa 8, 0
GAS LISTING /tmp/ccWXH52e.s 			page 7


  19:src/_thread.cpp ****     if (!old->isFinished() && !old->isBlocked()) { Scheduler::put(old); }
 234              		.loc 1 19 5
  19:src/_thread.cpp ****     if (!old->isFinished() && !old->isBlocked()) { Scheduler::put(old); }
 235              		.loc 1 19 14 is_stmt 0
 236 0148 97040000 		ld	s1,.LANCHOR0
 236      83B40400 
 237              	.LVL18:
  20:src/_thread.cpp ****     running = Scheduler::get();
 238              		.loc 1 20 5 is_stmt 1
 239              	.LBB17:
 240              	.LBB18:
  17:src/../h/_thread.hpp **** 
 241              		.loc 2 17 31
  17:src/../h/_thread.hpp **** 
 242              		.loc 2 17 38 is_stmt 0
 243 0150 83C78402 		lbu	a5,40(s1)
 244              	.LVL19:
 245              	.LBE18:
 246              	.LBE17:
  20:src/_thread.cpp ****     running = Scheduler::get();
 247              		.loc 1 20 28
 248 0154 63960700 		bnez	a5,.L15
 249              	.LVL20:
 250              	.LBB19:
 251              	.LBB20:
  37:src/../h/_thread.hpp **** 
 252              		.loc 2 37 30 is_stmt 1
  37:src/../h/_thread.hpp **** 
 253              		.loc 2 37 37 is_stmt 0
 254 0158 83C7A402 		lbu	a5,42(s1)
 255              	.LVL21:
 256              	.LBE20:
 257              	.LBE19:
  20:src/_thread.cpp ****     running = Scheduler::get();
 258              		.loc 1 20 28
 259 015c 63820704 		beqz	a5,.L18
 260              	.L15:
  21:src/_thread.cpp ****     if (running == nullptr) {
 261              		.loc 1 21 5 is_stmt 1
  21:src/_thread.cpp ****     if (running == nullptr) {
 262              		.loc 1 21 29 is_stmt 0
 263 0160 97000000 		call	_ZN9Scheduler3getEv@plt
 263      E7800000 
 264              	.LVL22:
  21:src/_thread.cpp ****     if (running == nullptr) {
 265              		.loc 1 21 13
 266 0168 97070000 		sd	a0,.LANCHOR0,a5
 266      23B0A700 
  22:src/_thread.cpp ****         printString("vratili smo null\n");
 267              		.loc 1 22 5 is_stmt 1
 268 0170 63000504 		beqz	a0,.L19
 269              	.L16:
  26:src/_thread.cpp **** }
 270              		.loc 1 26 5
  26:src/_thread.cpp **** }
 271              		.loc 1 26 27 is_stmt 0
 272 0174 97050000 		ld	a1,.LANCHOR0
GAS LISTING /tmp/ccWXH52e.s 			page 8


 272      83B50500 
 273 017c 93858501 		addi	a1,a1,24
 274 0180 13858401 		addi	a0,s1,24
 275 0184 97000000 		call	_ZN7_thread13contextSwitchEPNS_7ContextES1_@plt
 275      E7800000 
 276              	.LVL23:
  27:src/_thread.cpp **** 
 277              		.loc 1 27 1
 278 018c 83308101 		ld	ra,24(sp)
 279              		.cfi_remember_state
 280              		.cfi_restore 1
 281 0190 03340101 		ld	s0,16(sp)
 282              		.cfi_restore 8
 283              		.cfi_def_cfa 2, 32
 284 0194 83348100 		ld	s1,8(sp)
 285              		.cfi_restore 9
 286              	.LVL24:
 287 0198 13010102 		addi	sp,sp,32
 288              		.cfi_def_cfa_offset 0
 289 019c 67800000 		jr	ra
 290              	.LVL25:
 291              	.L18:
 292              		.cfi_restore_state
  20:src/_thread.cpp ****     running = Scheduler::get();
 293              		.loc 1 20 52 is_stmt 1
  20:src/_thread.cpp ****     running = Scheduler::get();
 294              		.loc 1 20 66 is_stmt 0
 295 01a0 13850400 		mv	a0,s1
 296 01a4 97000000 		call	_ZN9Scheduler3putEP7_thread@plt
 296      E7800000 
 297              	.LVL26:
 298 01ac 6FF05FFB 		j	.L15
 299              	.L19:
  23:src/_thread.cpp ****     }
 300              		.loc 1 23 9 is_stmt 1
  23:src/_thread.cpp ****     }
 301              		.loc 1 23 20 is_stmt 0
 302 01b0 17050000 		lla	a0,.LC0
 302      13050500 
 303 01b8 97000000 		call	_Z11printStringPKc@plt
 303      E7800000 
 304              	.LVL27:
 305 01c0 6FF05FFB 		j	.L16
 306              		.cfi_endproc
 307              	.LFE36:
 309              		.align	2
 310              		.globl	_ZN7_thread10exitThreadEv
 312              	_ZN7_thread10exitThreadEv:
 313              	.LFB38:
  37:src/_thread.cpp **** 
  38:src/_thread.cpp **** int _thread::exitThread() {
 314              		.loc 1 38 27 is_stmt 1
 315              		.cfi_startproc
 316 01c4 130101FF 		addi	sp,sp,-16
 317              		.cfi_def_cfa_offset 16
 318 01c8 23341100 		sd	ra,8(sp)
 319 01cc 23308100 		sd	s0,0(sp)
GAS LISTING /tmp/ccWXH52e.s 			page 9


 320              		.cfi_offset 1, -8
 321              		.cfi_offset 8, -16
 322 01d0 13040101 		addi	s0,sp,16
 323              		.cfi_def_cfa 8, 0
  39:src/_thread.cpp ****     _thread::running->setFinished(true);
 324              		.loc 1 39 5
 325              	.LVL28:
 326              	.LBB21:
 327              	.LBB22:
  19:src/../h/_thread.hpp **** 
 328              		.loc 2 19 36
  19:src/../h/_thread.hpp **** 
 329              		.loc 2 19 45 is_stmt 0
 330 01d4 97070000 		ld	a5,.LANCHOR0
 330      83B70700 
 331 01dc 13071000 		li	a4,1
 332 01e0 2384E702 		sb	a4,40(a5)
 333              	.LVL29:
 334              	.LBE22:
 335              	.LBE21:
  40:src/_thread.cpp ****     thread_dispatch();
 336              		.loc 1 40 5 is_stmt 1
 337              		.loc 1 40 20 is_stmt 0
 338 01e4 97000000 		call	_Z15thread_dispatchv@plt
 338      E7800000 
 339              	.LVL30:
  41:src/_thread.cpp ****     return 0;
 340              		.loc 1 41 5 is_stmt 1
  42:src/_thread.cpp **** }
 341              		.loc 1 42 1 is_stmt 0
 342 01ec 13050000 		li	a0,0
 343 01f0 83308100 		ld	ra,8(sp)
 344              		.cfi_restore 1
 345 01f4 03340100 		ld	s0,0(sp)
 346              		.cfi_restore 8
 347              		.cfi_def_cfa 2, 16
 348 01f8 13010101 		addi	sp,sp,16
 349              		.cfi_def_cfa_offset 0
 350 01fc 67800000 		jr	ra
 351              		.cfi_endproc
 352              	.LFE38:
 354              		.align	2
 355              		.globl	_ZN7_thread8setStartEb
 357              	_ZN7_thread8setStartEb:
 358              	.LFB39:
  43:src/_thread.cpp **** 
  44:src/_thread.cpp **** void _thread::setStart(bool b) {
 359              		.loc 1 44 32 is_stmt 1
 360              		.cfi_startproc
 361              	.LVL31:
 362 0200 130101FF 		addi	sp,sp,-16
 363              		.cfi_def_cfa_offset 16
 364 0204 23348100 		sd	s0,8(sp)
 365              		.cfi_offset 8, -8
 366 0208 13040101 		addi	s0,sp,16
 367              		.cfi_def_cfa 8, 0
  45:src/_thread.cpp ****     this->started = b;
GAS LISTING /tmp/ccWXH52e.s 			page 10


 368              		.loc 1 45 5
 369              		.loc 1 45 19 is_stmt 0
 370 020c A304B502 		sb	a1,41(a0)
  46:src/_thread.cpp **** }
 371              		.loc 1 46 1
 372 0210 03348100 		ld	s0,8(sp)
 373              		.cfi_restore 8
 374              		.cfi_def_cfa 2, 16
 375 0214 13010101 		addi	sp,sp,16
 376              		.cfi_def_cfa_offset 0
 377 0218 67800000 		jr	ra
 378              		.cfi_endproc
 379              	.LFE39:
 381              		.align	2
 382              		.globl	_ZN7_thread8setBlockEb
 384              	_ZN7_thread8setBlockEb:
 385              	.LFB40:
  47:src/_thread.cpp **** 
  48:src/_thread.cpp **** void _thread::setBlock(bool b) {
 386              		.loc 1 48 32 is_stmt 1
 387              		.cfi_startproc
 388              	.LVL32:
 389 021c 130101FF 		addi	sp,sp,-16
 390              		.cfi_def_cfa_offset 16
 391 0220 23348100 		sd	s0,8(sp)
 392              		.cfi_offset 8, -8
 393 0224 13040101 		addi	s0,sp,16
 394              		.cfi_def_cfa 8, 0
  49:src/_thread.cpp ****     this->blocked = b;
 395              		.loc 1 49 5
 396              		.loc 1 49 19 is_stmt 0
 397 0228 2305B502 		sb	a1,42(a0)
  50:src/_thread.cpp **** }
 398              		.loc 1 50 1
 399 022c 03348100 		ld	s0,8(sp)
 400              		.cfi_restore 8
 401              		.cfi_def_cfa 2, 16
 402 0230 13010101 		addi	sp,sp,16
 403              		.cfi_def_cfa_offset 0
 404 0234 67800000 		jr	ra
 405              		.cfi_endproc
 406              	.LFE40:
 408              		.globl	_ZN7_thread7runningE
 409              		.bss
 410              		.align	3
 411              		.set	.LANCHOR0,. + 0
 414              	_ZN7_thread7runningE:
 415 0000 00000000 		.zero	8
 415      00000000 
 416              		.text
 417              	.Letext0:
 418              		.file 3 "src/../h/../lib/hw.h"
 419              		.file 4 "src/../h/scheduler.hpp"
 420              		.file 5 "src/../h/riscv.hpp"
 421              		.file 6 "src/../h/syscall_c.hpp"
 422              		.file 7 "src/../test/printing.hpp"
 2980              		.align	3
GAS LISTING /tmp/ccWXH52e.s 			page 11


 2983              	DW.ref.__gxx_personality_v0:
 2984 0000 00000000 		.dword	__gxx_personality_v0
 2984      00000000 
 2985              		.ident	"GCC: (Ubuntu 9.4.0-1ubuntu1~20.04) 9.4.0"
 2986              		.section	.note.GNU-stack,"",@progbits
GAS LISTING /tmp/ccWXH52e.s 			page 12


DEFINED SYMBOLS
                            *ABS*:0000000000000000 _thread.cpp
     /tmp/ccWXH52e.s:9      .text:0000000000000000 _ZN7_thread13threadWrapperEv
     /tmp/ccWXH52e.s:13     .text:0000000000000000 .L0 
     /tmp/ccWXH52e.s:14     .text:0000000000000000 .L0 
     /tmp/ccWXH52e.s:15     .text:0000000000000004 .L0 
     /tmp/ccWXH52e.s:18     .text:000000000000000c .L0 
     /tmp/ccWXH52e.s:19     .text:000000000000000c .L0 
     /tmp/ccWXH52e.s:21     .text:0000000000000010 .L0 
     /tmp/ccWXH52e.s:23     .text:0000000000000010 .L0 
     /tmp/ccWXH52e.s:24     .text:0000000000000010 .L0 
     /tmp/ccWXH52e.s:28     .text:0000000000000018 .L0 
     /tmp/ccWXH52e.s:29     .text:0000000000000018 .L0 
     /tmp/ccWXH52e.s:30     .text:0000000000000018 .L0 
     /tmp/ccWXH52e.s:36     .text:0000000000000020 .L0 
     /tmp/ccWXH52e.s:37     .text:0000000000000020 .L0 
     /tmp/ccWXH52e.s:42     .text:0000000000000024 .L0 
     /tmp/ccWXH52e.s:44     .text:0000000000000028 .L0 
     /tmp/ccWXH52e.s:45     .text:0000000000000028 .L0 
     /tmp/ccWXH52e.s:48     .text:0000000000000030 .L0 
     /tmp/ccWXH52e.s:51     .text:0000000000000034 .L0 
     /tmp/ccWXH52e.s:52     .text:0000000000000034 .L0 
     /tmp/ccWXH52e.s:54     .text:0000000000000038 .L0 
     /tmp/ccWXH52e.s:58     .text:0000000000000040 .L0 
     /tmp/ccWXH52e.s:59     .text:0000000000000040 .L0 
     /tmp/ccWXH52e.s:62     .text:0000000000000048 .L0 
     /tmp/ccWXH52e.s:63     .text:000000000000004c .L0 
     /tmp/ccWXH52e.s:65     .text:0000000000000050 .L0 
     /tmp/ccWXH52e.s:66     .text:0000000000000050 .L0 
     /tmp/ccWXH52e.s:68     .text:0000000000000054 .L0 
     /tmp/ccWXH52e.s:70     .text:0000000000000058 .L0 
     /tmp/ccWXH52e.s:76     .text:0000000000000058 _ZN7_thread12createThreadEPFvPvES0_
     /tmp/ccWXH52e.s:79     .text:0000000000000058 .L0 
     /tmp/ccWXH52e.s:2983   .data.rel.local.DW.ref.__gxx_personality_v0:0000000000000000 DW.ref.__gxx_personality_v0
     /tmp/ccWXH52e.s:83     .text:0000000000000058 .L0 
     /tmp/ccWXH52e.s:84     .text:000000000000005c .L0 
     /tmp/ccWXH52e.s:90     .text:0000000000000070 .L0 
     /tmp/ccWXH52e.s:91     .text:0000000000000070 .L0 
     /tmp/ccWXH52e.s:92     .text:0000000000000070 .L0 
     /tmp/ccWXH52e.s:93     .text:0000000000000070 .L0 
     /tmp/ccWXH52e.s:94     .text:0000000000000070 .L0 
     /tmp/ccWXH52e.s:96     .text:0000000000000074 .L0 
     /tmp/ccWXH52e.s:100    .text:000000000000007c .L0 
     /tmp/ccWXH52e.s:101    .text:000000000000007c .L0 
     /tmp/ccWXH52e.s:112    .text:000000000000008c .L0 
     /tmp/ccWXH52e.s:115    .text:0000000000000094 .L0 
     /tmp/ccWXH52e.s:117    .text:0000000000000098 .L0 
     /tmp/ccWXH52e.s:124    .text:00000000000000a8 .L0 
     /tmp/ccWXH52e.s:127    .text:00000000000000ac .L0 
     /tmp/ccWXH52e.s:131    .text:00000000000000bc .L0 
     /tmp/ccWXH52e.s:133    .text:00000000000000c0 .L0 
     /tmp/ccWXH52e.s:137    .text:00000000000000c8 .L0 
     /tmp/ccWXH52e.s:143    .text:00000000000000dc .L0 
     /tmp/ccWXH52e.s:145    .text:00000000000000e0 .L0 
     /tmp/ccWXH52e.s:146    .text:00000000000000e0 .L0 
     /tmp/ccWXH52e.s:153    .text:00000000000000f0 .L0 
     /tmp/ccWXH52e.s:161    .text:00000000000000fc .L0 
GAS LISTING /tmp/ccWXH52e.s 			page 13


     /tmp/ccWXH52e.s:171    .text:0000000000000114 .L0 
     /tmp/ccWXH52e.s:173    .text:000000000000011c .L0 
     /tmp/ccWXH52e.s:175    .text:0000000000000120 .L0 
     /tmp/ccWXH52e.s:176    .text:0000000000000120 .L0 
     /tmp/ccWXH52e.s:178    .text:0000000000000124 .L0 
     /tmp/ccWXH52e.s:181    .text:0000000000000128 .L0 
     /tmp/ccWXH52e.s:184    .text:000000000000012c .L0 
     /tmp/ccWXH52e.s:187    .text:0000000000000130 .L0 
     /tmp/ccWXH52e.s:189    .text:0000000000000134 .L0 
     /tmp/ccWXH52e.s:220    .text:0000000000000134 _ZN7_thread8dispatchEv
     /tmp/ccWXH52e.s:223    .text:0000000000000134 .L0 
     /tmp/ccWXH52e.s:224    .text:0000000000000134 .L0 
     /tmp/ccWXH52e.s:225    .text:0000000000000138 .L0 
     /tmp/ccWXH52e.s:229    .text:0000000000000144 .L0 
     /tmp/ccWXH52e.s:230    .text:0000000000000144 .L0 
     /tmp/ccWXH52e.s:231    .text:0000000000000144 .L0 
     /tmp/ccWXH52e.s:233    .text:0000000000000148 .L0 
     /tmp/ccWXH52e.s:235    .text:0000000000000148 .L0 
     /tmp/ccWXH52e.s:236    .text:0000000000000148 .L0 
     /tmp/ccWXH52e.s:241    .text:0000000000000150 .L0 
     /tmp/ccWXH52e.s:242    .text:0000000000000150 .L0 
     /tmp/ccWXH52e.s:243    .text:0000000000000150 .L0 
     /tmp/ccWXH52e.s:248    .text:0000000000000154 .L0 
     /tmp/ccWXH52e.s:253    .text:0000000000000158 .L0 
     /tmp/ccWXH52e.s:254    .text:0000000000000158 .L0 
     /tmp/ccWXH52e.s:259    .text:000000000000015c .L0 
     /tmp/ccWXH52e.s:262    .text:0000000000000160 .L0 
     /tmp/ccWXH52e.s:263    .text:0000000000000160 .L0 
     /tmp/ccWXH52e.s:266    .text:0000000000000168 .L0 
     /tmp/ccWXH52e.s:268    .text:0000000000000170 .L0 
     /tmp/ccWXH52e.s:271    .text:0000000000000174 .L0 
     /tmp/ccWXH52e.s:272    .text:0000000000000174 .L0 
     /tmp/ccWXH52e.s:278    .text:000000000000018c .L0 
     /tmp/ccWXH52e.s:279    .text:0000000000000190 .L0 
     /tmp/ccWXH52e.s:280    .text:0000000000000190 .L0 
     /tmp/ccWXH52e.s:282    .text:0000000000000194 .L0 
     /tmp/ccWXH52e.s:283    .text:0000000000000194 .L0 
     /tmp/ccWXH52e.s:285    .text:0000000000000198 .L0 
     /tmp/ccWXH52e.s:288    .text:000000000000019c .L0 
     /tmp/ccWXH52e.s:292    .text:00000000000001a0 .L0 
     /tmp/ccWXH52e.s:294    .text:00000000000001a0 .L0 
     /tmp/ccWXH52e.s:295    .text:00000000000001a0 .L0 
     /tmp/ccWXH52e.s:301    .text:00000000000001b0 .L0 
     /tmp/ccWXH52e.s:302    .text:00000000000001b0 .L0 
     /tmp/ccWXH52e.s:306    .text:00000000000001c4 .L0 
     /tmp/ccWXH52e.s:312    .text:00000000000001c4 _ZN7_thread10exitThreadEv
     /tmp/ccWXH52e.s:315    .text:00000000000001c4 .L0 
     /tmp/ccWXH52e.s:316    .text:00000000000001c4 .L0 
     /tmp/ccWXH52e.s:317    .text:00000000000001c8 .L0 
     /tmp/ccWXH52e.s:320    .text:00000000000001d0 .L0 
     /tmp/ccWXH52e.s:321    .text:00000000000001d0 .L0 
     /tmp/ccWXH52e.s:323    .text:00000000000001d4 .L0 
     /tmp/ccWXH52e.s:328    .text:00000000000001d4 .L0 
     /tmp/ccWXH52e.s:329    .text:00000000000001d4 .L0 
     /tmp/ccWXH52e.s:330    .text:00000000000001d4 .L0 
     /tmp/ccWXH52e.s:337    .text:00000000000001e4 .L0 
     /tmp/ccWXH52e.s:338    .text:00000000000001e4 .L0 
GAS LISTING /tmp/ccWXH52e.s 			page 14


     /tmp/ccWXH52e.s:341    .text:00000000000001ec .L0 
     /tmp/ccWXH52e.s:342    .text:00000000000001ec .L0 
     /tmp/ccWXH52e.s:344    .text:00000000000001f4 .L0 
     /tmp/ccWXH52e.s:346    .text:00000000000001f8 .L0 
     /tmp/ccWXH52e.s:347    .text:00000000000001f8 .L0 
     /tmp/ccWXH52e.s:349    .text:00000000000001fc .L0 
     /tmp/ccWXH52e.s:351    .text:0000000000000200 .L0 
     /tmp/ccWXH52e.s:357    .text:0000000000000200 _ZN7_thread8setStartEb
     /tmp/ccWXH52e.s:360    .text:0000000000000200 .L0 
     /tmp/ccWXH52e.s:362    .text:0000000000000200 .L0 
     /tmp/ccWXH52e.s:363    .text:0000000000000204 .L0 
     /tmp/ccWXH52e.s:365    .text:0000000000000208 .L0 
     /tmp/ccWXH52e.s:367    .text:000000000000020c .L0 
     /tmp/ccWXH52e.s:369    .text:000000000000020c .L0 
     /tmp/ccWXH52e.s:370    .text:000000000000020c .L0 
     /tmp/ccWXH52e.s:372    .text:0000000000000210 .L0 
     /tmp/ccWXH52e.s:373    .text:0000000000000214 .L0 
     /tmp/ccWXH52e.s:374    .text:0000000000000214 .L0 
     /tmp/ccWXH52e.s:376    .text:0000000000000218 .L0 
     /tmp/ccWXH52e.s:378    .text:000000000000021c .L0 
     /tmp/ccWXH52e.s:384    .text:000000000000021c _ZN7_thread8setBlockEb
     /tmp/ccWXH52e.s:387    .text:000000000000021c .L0 
     /tmp/ccWXH52e.s:389    .text:000000000000021c .L0 
     /tmp/ccWXH52e.s:390    .text:0000000000000220 .L0 
     /tmp/ccWXH52e.s:392    .text:0000000000000224 .L0 
     /tmp/ccWXH52e.s:394    .text:0000000000000228 .L0 
     /tmp/ccWXH52e.s:396    .text:0000000000000228 .L0 
     /tmp/ccWXH52e.s:397    .text:0000000000000228 .L0 
     /tmp/ccWXH52e.s:399    .text:000000000000022c .L0 
     /tmp/ccWXH52e.s:400    .text:0000000000000230 .L0 
     /tmp/ccWXH52e.s:401    .text:0000000000000230 .L0 
     /tmp/ccWXH52e.s:403    .text:0000000000000234 .L0 
     /tmp/ccWXH52e.s:405    .text:0000000000000238 .L0 
     /tmp/ccWXH52e.s:414    .bss:0000000000000000 _ZN7_thread7runningE
     /tmp/ccWXH52e.s:411    .bss:0000000000000000 .LANCHOR0
     /tmp/ccWXH52e.s:423    .text:0000000000000238 .L0 
     /tmp/ccWXH52e.s:30     .text:0000000000000018 .L0 
     /tmp/ccWXH52e.s:128    .text:00000000000000b0 .L0 
     /tmp/ccWXH52e.s:236    .text:0000000000000148 .L0 
     /tmp/ccWXH52e.s:266    .text:0000000000000168 .L0 
     /tmp/ccWXH52e.s:272    .text:0000000000000174 .L0 
     /tmp/ccWXH52e.s:214    .rodata.str1.8:0000000000000000 .LC0
     /tmp/ccWXH52e.s:302    .text:00000000000001b0 .L0 
     /tmp/ccWXH52e.s:330    .text:00000000000001d4 .L0 
     /tmp/ccWXH52e.s:49     .text:0000000000000034 .L2
     /tmp/ccWXH52e.s:26     .text:0000000000000018 .L3
     /tmp/ccWXH52e.s:122    .text:00000000000000a8 .L10
     /tmp/ccWXH52e.s:125    .text:00000000000000ac .L6
     /tmp/ccWXH52e.s:151    .text:00000000000000f0 .L11
     /tmp/ccWXH52e.s:169    .text:0000000000000114 .L5
     /tmp/ccWXH52e.s:135    .text:00000000000000c8 .L7
     /tmp/ccWXH52e.s:260    .text:0000000000000160 .L15
     /tmp/ccWXH52e.s:291    .text:00000000000001a0 .L18
     /tmp/ccWXH52e.s:299    .text:00000000000001b0 .L19
     /tmp/ccWXH52e.s:269    .text:0000000000000174 .L16
     /tmp/ccWXH52e.s:103    .text:0000000000000080 .LEHB0
     /tmp/ccWXH52e.s:77     .text:0000000000000058 .LFB35
GAS LISTING /tmp/ccWXH52e.s 			page 15


     /tmp/ccWXH52e.s:106    .text:0000000000000088 .LEHE0
     /tmp/ccWXH52e.s:118    .text:000000000000009c .LEHB1
     /tmp/ccWXH52e.s:149    .text:00000000000000ec .LEHE1
     /tmp/ccWXH52e.s:155    .text:00000000000000f8 .L12
     /tmp/ccWXH52e.s:165    .text:000000000000010c .LEHB2
     /tmp/ccWXH52e.s:168    .text:0000000000000114 .LEHE2
     /tmp/ccWXH52e.s:1621   .debug_abbrev:0000000000000000 .Ldebug_abbrev0
     /tmp/ccWXH52e.s:2931   .debug_str:00000000000006f2 .LASF127
     /tmp/ccWXH52e.s:2949   .debug_str:0000000000000842 .LASF128
     /tmp/ccWXH52e.s:2781   .debug_str:0000000000000259 .LASF129
     /tmp/ccWXH52e.s:5      .text:0000000000000000 .Ltext0
     /tmp/ccWXH52e.s:417    .text:0000000000000238 .Letext0
     /tmp/ccWXH52e.s:2695   .debug_line:0000000000000000 .Ldebug_line0
     /tmp/ccWXH52e.s:2855   .debug_str:00000000000004a9 .LASF0
     /tmp/ccWXH52e.s:2867   .debug_str:00000000000004d9 .LASF1
     /tmp/ccWXH52e.s:2843   .debug_str:0000000000000463 .LASF2
     /tmp/ccWXH52e.s:2767   .debug_str:0000000000000207 .LASF3
     /tmp/ccWXH52e.s:2811   .debug_str:000000000000033e .LASF4
     /tmp/ccWXH52e.s:2903   .debug_str:00000000000005f5 .LASF5
     /tmp/ccWXH52e.s:2727   .debug_str:00000000000000b9 .LASF6
     /tmp/ccWXH52e.s:2871   .debug_str:00000000000004fd .LASF7
     /tmp/ccWXH52e.s:2853   .debug_str:0000000000000496 .LASF8
     /tmp/ccWXH52e.s:2943   .debug_str:0000000000000813 .LASF9
     /tmp/ccWXH52e.s:2791   .debug_str:00000000000002a9 .LASF10
     /tmp/ccWXH52e.s:2883   .debug_str:000000000000055f .LASF11
     /tmp/ccWXH52e.s:2933   .debug_str:00000000000007b6 .LASF12
     /tmp/ccWXH52e.s:2731   .debug_str:00000000000000c9 .LASF13
     /tmp/ccWXH52e.s:2705   .debug_str:000000000000003f .LASF14
     /tmp/ccWXH52e.s:2745   .debug_str:0000000000000133 .LASF15
     /tmp/ccWXH52e.s:2895   .debug_str:00000000000005b1 .LASF16
     /tmp/ccWXH52e.s:2757   .debug_str:000000000000019b .LASF17
     /tmp/ccWXH52e.s:2879   .debug_str:0000000000000541 .LASF18
     /tmp/ccWXH52e.s:2783   .debug_str:0000000000000277 .LASF109
     /tmp/ccWXH52e.s:2803   .debug_str:000000000000030c .LASF130
     /tmp/ccWXH52e.s:2939   .debug_str:00000000000007e0 .LASF131
     /tmp/ccWXH52e.s:2817   .debug_str:000000000000036f .LASF132
     /tmp/ccWXH52e.s:2807   .debug_str:000000000000032c .LASF19
     /tmp/ccWXH52e.s:2713   .debug_str:000000000000006b .LASF133
     /tmp/ccWXH52e.s:2935   .debug_str:00000000000007c5 .LASF20
     /tmp/ccWXH52e.s:2875   .debug_str:000000000000051b .LASF22
     /tmp/ccWXH52e.s:2873   .debug_str:0000000000000510 .LASF29
     /tmp/ccWXH52e.s:2839   .debug_str:0000000000000433 .LASF31
     /tmp/ccWXH52e.s:2845   .debug_str:0000000000000471 .LASF21
     /tmp/ccWXH52e.s:2837   .debug_str:0000000000000418 .LASF23
     /tmp/ccWXH52e.s:2823   .debug_str:0000000000000390 .LASF24
     /tmp/ccWXH52e.s:2959   .debug_str:0000000000000898 .LASF25
     /tmp/ccWXH52e.s:2891   .debug_str:00000000000005a1 .LASF134
     /tmp/ccWXH52e.s:2897   .debug_str:00000000000005c7 .LASF65
     /tmp/ccWXH52e.s:2925   .debug_str:00000000000006b6 .LASF67
     /tmp/ccWXH52e.s:2773   .debug_str:0000000000000230 .LASF135
     /tmp/ccWXH52e.s:2885   .debug_str:000000000000056e .LASF26
     /tmp/ccWXH52e.s:2771   .debug_str:0000000000000216 .LASF70
     /tmp/ccWXH52e.s:2709   .debug_str:0000000000000058 .LASF27
     /tmp/ccWXH52e.s:2941   .debug_str:00000000000007fc .LASF28
     /tmp/ccWXH52e.s:2743   .debug_str:0000000000000129 .LASF30
     /tmp/ccWXH52e.s:2827   .debug_str:00000000000003ab .LASF32
     /tmp/ccWXH52e.s:2797   .debug_str:00000000000002ea .LASF33
GAS LISTING /tmp/ccWXH52e.s 			page 16


     /tmp/ccWXH52e.s:2929   .debug_str:00000000000006db .LASF34
     /tmp/ccWXH52e.s:2711   .debug_str:0000000000000061 .LASF35
     /tmp/ccWXH52e.s:2737   .debug_str:00000000000000ee .LASF36
     /tmp/ccWXH52e.s:2947   .debug_str:000000000000082a .LASF73
     /tmp/ccWXH52e.s:2735   .debug_str:00000000000000e9 .LASF37
     /tmp/ccWXH52e.s:2863   .debug_str:00000000000004cc .LASF38
     /tmp/ccWXH52e.s:2861   .debug_str:00000000000004c6 .LASF39
     /tmp/ccWXH52e.s:2821   .debug_str:0000000000000388 .LASF40
     /tmp/ccWXH52e.s:2815   .debug_str:0000000000000366 .LASF41
     /tmp/ccWXH52e.s:2865   .debug_str:00000000000004d1 .LASF42
     /tmp/ccWXH52e.s:2699   .debug_str:0000000000000019 .LASF43
     /tmp/ccWXH52e.s:2825   .debug_str:000000000000039d .LASF45
     /tmp/ccWXH52e.s:2795   .debug_str:00000000000002cd .LASF47
     /tmp/ccWXH52e.s:2953   .debug_str:0000000000000867 .LASF44
     /tmp/ccWXH52e.s:2833   .debug_str:00000000000003dc .LASF136
     /tmp/ccWXH52e.s:2859   .debug_str:00000000000004bd .LASF46
     /tmp/ccWXH52e.s:2923   .debug_str:000000000000069f .LASF48
     /tmp/ccWXH52e.s:2779   .debug_str:0000000000000254 .LASF49
     /tmp/ccWXH52e.s:2835   .debug_str:0000000000000408 .LASF50
     /tmp/ccWXH52e.s:2733   .debug_str:00000000000000d9 .LASF51
     /tmp/ccWXH52e.s:2905   .debug_str:0000000000000607 .LASF52
     /tmp/ccWXH52e.s:2747   .debug_str:000000000000013f .LASF53
     /tmp/ccWXH52e.s:2813   .debug_str:0000000000000345 .LASF54
     /tmp/ccWXH52e.s:2881   .debug_str:000000000000054b .LASF55
     /tmp/ccWXH52e.s:2829   .debug_str:00000000000003c4 .LASF56
     /tmp/ccWXH52e.s:2703   .debug_str:0000000000000029 .LASF57
     /tmp/ccWXH52e.s:2957   .debug_str:0000000000000889 .LASF58
     /tmp/ccWXH52e.s:2907   .debug_str:0000000000000616 .LASF59
     /tmp/ccWXH52e.s:2963   .debug_str:00000000000008c7 .LASF60
     /tmp/ccWXH52e.s:2927   .debug_str:00000000000006ca .LASF61
     /tmp/ccWXH52e.s:2721   .debug_str:000000000000008f .LASF62
     /tmp/ccWXH52e.s:2961   .debug_str:00000000000008bc .LASF63
     /tmp/ccWXH52e.s:2749   .debug_str:0000000000000158 .LASF64
     /tmp/ccWXH52e.s:2893   .debug_str:00000000000005a6 .LASF66
     /tmp/ccWXH52e.s:2967   .debug_str:00000000000008db .LASF68
     /tmp/ccWXH52e.s:2707   .debug_str:000000000000004f .LASF69
     /tmp/ccWXH52e.s:2917   .debug_str:000000000000065f .LASF71
     /tmp/ccWXH52e.s:2769   .debug_str:000000000000020d .LASF72
     /tmp/ccWXH52e.s:2753   .debug_str:000000000000016e .LASF74
     /tmp/ccWXH52e.s:2847   .debug_str:000000000000047d .LASF75
     /tmp/ccWXH52e.s:2889   .debug_str:000000000000058e .LASF76
     /tmp/ccWXH52e.s:2945   .debug_str:0000000000000823 .LASF77
     /tmp/ccWXH52e.s:2921   .debug_str:000000000000068c .LASF78
     /tmp/ccWXH52e.s:2787   .debug_str:000000000000029b .LASF79
     /tmp/ccWXH52e.s:2759   .debug_str:00000000000001b1 .LASF80
     /tmp/ccWXH52e.s:2701   .debug_str:0000000000000021 .LASF81
     /tmp/ccWXH52e.s:2909   .debug_str:0000000000000626 .LASF82
     /tmp/ccWXH52e.s:2775   .debug_str:0000000000000238 .LASF83
     /tmp/ccWXH52e.s:2955   .debug_str:0000000000000875 .LASF84
     /tmp/ccWXH52e.s:2973   .debug_str:0000000000000912 .LASF85
     /tmp/ccWXH52e.s:2777   .debug_str:0000000000000240 .LASF86
     /tmp/ccWXH52e.s:2857   .debug_str:00000000000004b6 .LASF87
     /tmp/ccWXH52e.s:2971   .debug_str:00000000000008ff .LASF88
     /tmp/ccWXH52e.s:2723   .debug_str:000000000000009a .LASF89
     /tmp/ccWXH52e.s:2785   .debug_str:0000000000000288 .LASF90
     /tmp/ccWXH52e.s:2789   .debug_str:00000000000002a3 .LASF91
     /tmp/ccWXH52e.s:2937   .debug_str:00000000000007ce .LASF92
GAS LISTING /tmp/ccWXH52e.s 			page 17


     /tmp/ccWXH52e.s:2719   .debug_str:0000000000000089 .LASF93
     /tmp/ccWXH52e.s:2975   .debug_str:000000000000091a .LASF94
     /tmp/ccWXH52e.s:2851   .debug_str:000000000000048b .LASF95
     /tmp/ccWXH52e.s:2901   .debug_str:00000000000005dd .LASF96
     /tmp/ccWXH52e.s:2819   .debug_str:000000000000037d .LASF97
     /tmp/ccWXH52e.s:2919   .debug_str:0000000000000674 .LASF98
     /tmp/ccWXH52e.s:2799   .debug_str:00000000000002f3 .LASF99
     /tmp/ccWXH52e.s:2877   .debug_str:000000000000052b .LASF100
     /tmp/ccWXH52e.s:2715   .debug_str:0000000000000073 .LASF101
     /tmp/ccWXH52e.s:2793   .debug_str:00000000000002b7 .LASF102
     /tmp/ccWXH52e.s:2911   .debug_str:000000000000063a .LASF103
     /tmp/ccWXH52e.s:2739   .debug_str:0000000000000107 .LASF104
     /tmp/ccWXH52e.s:2805   .debug_str:0000000000000320 .LASF105
     /tmp/ccWXH52e.s:2697   .debug_str:0000000000000000 .LASF106
     /tmp/ccWXH52e.s:2951   .debug_str:0000000000000852 .LASF107
     /tmp/ccWXH52e.s:2763   .debug_str:00000000000001d2 .LASF108
     /tmp/ccWXH52e.s:2729   .debug_str:00000000000000c0 .LASF110
     /tmp/ccWXH52e.s:2841   .debug_str:000000000000044e .LASF137
     /tmp/ccWXH52e.s:385    .text:000000000000021c .LFB40
     /tmp/ccWXH52e.s:406    .text:0000000000000238 .LFE40
     /tmp/ccWXH52e.s:2965   .debug_str:00000000000008d6 .LASF111
     /tmp/ccWXH52e.s:358    .text:0000000000000200 .LFB39
     /tmp/ccWXH52e.s:379    .text:000000000000021c .LFE39
     /tmp/ccWXH52e.s:313    .text:00000000000001c4 .LFB38
     /tmp/ccWXH52e.s:352    .text:0000000000000200 .LFE38
     /tmp/ccWXH52e.s:326    .text:00000000000001d4 .LBB21
     /tmp/ccWXH52e.s:335    .text:00000000000001e4 .LBE21
     /tmp/ccWXH52e.s:2537   .debug_loc:0000000000000000 .LLST9
     /tmp/ccWXH52e.s:2545   .debug_loc:0000000000000024 .LLST10
     /tmp/ccWXH52e.s:339    .text:00000000000001ec .LVL30
     /tmp/ccWXH52e.s:10     .text:0000000000000000 .LFB37
     /tmp/ccWXH52e.s:71     .text:0000000000000058 .LFE37
     /tmp/ccWXH52e.s:32     .text:0000000000000020 .LBB10
     /tmp/ccWXH52e.s:40     .text:0000000000000024 .LBE10
     /tmp/ccWXH52e.s:2553   .debug_loc:000000000000004f .LLST0
     /tmp/ccWXH52e.s:25     .text:0000000000000018 .LVL0
     /tmp/ccWXH52e.s:46     .text:0000000000000030 .LVL3
     /tmp/ccWXH52e.s:60     .text:0000000000000048 .LVL5
     /tmp/ccWXH52e.s:221    .text:0000000000000134 .LFB36
     /tmp/ccWXH52e.s:307    .text:00000000000001c4 .LFE36
     /tmp/ccWXH52e.s:2560   .debug_loc:0000000000000072 .LLST6
     /tmp/ccWXH52e.s:239    .text:0000000000000150 .LBB17
     /tmp/ccWXH52e.s:246    .text:0000000000000154 .LBE17
     /tmp/ccWXH52e.s:2571   .debug_loc:00000000000000a8 .LLST7
     /tmp/ccWXH52e.s:250    .text:0000000000000158 .LBB19
     /tmp/ccWXH52e.s:257    .text:000000000000015c .LBE19
     /tmp/ccWXH52e.s:2578   .debug_loc:00000000000000cb .LLST8
     /tmp/ccWXH52e.s:264    .text:0000000000000168 .LVL22
     /tmp/ccWXH52e.s:276    .text:000000000000018c .LVL23
     /tmp/ccWXH52e.s:297    .text:00000000000001ac .LVL26
     /tmp/ccWXH52e.s:304    .text:00000000000001c0 .LVL27
     /tmp/ccWXH52e.s:190    .text:0000000000000134 .LFE35
     /tmp/ccWXH52e.s:2585   .debug_loc:00000000000000ee .LLST1
     /tmp/ccWXH52e.s:2614   .debug_loc:0000000000000163 .LLST2
     /tmp/ccWXH52e.s:2809   .debug_str:0000000000000334 .LASF138
     /tmp/ccWXH52e.s:109    .text:000000000000008c .LBB15
     /tmp/ccWXH52e.s:159    .text:00000000000000fc .LBE15
GAS LISTING /tmp/ccWXH52e.s 			page 18


     /tmp/ccWXH52e.s:2632   .debug_loc:00000000000001af .LLST3
     /tmp/ccWXH52e.s:2646   .debug_loc:00000000000001e8 .LLST4
     /tmp/ccWXH52e.s:2671   .debug_loc:000000000000024a .LLST5
     /tmp/ccWXH52e.s:120    .text:00000000000000a4 .LVL10
     /tmp/ccWXH52e.s:148    .text:00000000000000ec .LVL11
     /tmp/ccWXH52e.s:105    .text:0000000000000088 .LVL8
     /tmp/ccWXH52e.s:163    .text:0000000000000108 .LVL13
     /tmp/ccWXH52e.s:167    .text:0000000000000114 .LVL14
     /tmp/ccWXH52e.s:2725   .debug_str:00000000000000a1 .LASF139
     /tmp/ccWXH52e.s:2741   .debug_str:0000000000000123 .LASF112
     /tmp/ccWXH52e.s:2887   .debug_str:0000000000000579 .LASF113
     /tmp/ccWXH52e.s:2751   .debug_str:000000000000015e .LASF115
     /tmp/ccWXH52e.s:2869   .debug_str:00000000000004ec .LASF114
     /tmp/ccWXH52e.s:2717   .debug_str:000000000000007d .LASF116
     /tmp/ccWXH52e.s:2765   .debug_str:00000000000001f4 .LASF117
     /tmp/ccWXH52e.s:2969   .debug_str:00000000000008f3 .LASF118
     /tmp/ccWXH52e.s:2915   .debug_str:0000000000000659 .LASF119
     /tmp/ccWXH52e.s:2899   .debug_str:00000000000005cd .LASF121
     /tmp/ccWXH52e.s:2831   .debug_str:00000000000003d6 .LASF120
     /tmp/ccWXH52e.s:2761   .debug_str:00000000000001c5 .LASF122
     /tmp/ccWXH52e.s:2849   .debug_str:0000000000000484 .LASF123
     /tmp/ccWXH52e.s:2913   .debug_str:0000000000000649 .LASF124
     /tmp/ccWXH52e.s:2801   .debug_str:00000000000002fd .LASF125
     /tmp/ccWXH52e.s:2755   .debug_str:0000000000000183 .LASF126
     /tmp/ccWXH52e.s:325    .text:00000000000001d4 .LVL28
     /tmp/ccWXH52e.s:333    .text:00000000000001e4 .LVL29
     /tmp/ccWXH52e.s:31     .text:0000000000000020 .LVL1
     /tmp/ccWXH52e.s:38     .text:0000000000000024 .LVL2
     /tmp/ccWXH52e.s:237    .text:0000000000000150 .LVL18
     /tmp/ccWXH52e.s:286    .text:0000000000000198 .LVL24
     /tmp/ccWXH52e.s:290    .text:00000000000001a0 .LVL25
     /tmp/ccWXH52e.s:244    .text:0000000000000154 .LVL19
     /tmp/ccWXH52e.s:249    .text:0000000000000158 .LVL20
     /tmp/ccWXH52e.s:255    .text:000000000000015c .LVL21
     /tmp/ccWXH52e.s:82     .text:0000000000000058 .LVL6
     /tmp/ccWXH52e.s:102    .text:0000000000000080 .LVL7
     /tmp/ccWXH52e.s:157    .text:00000000000000fc .LVL12
     /tmp/ccWXH52e.s:182    .text:0000000000000128 .LVL16
     /tmp/ccWXH52e.s:185    .text:000000000000012c .LVL17
     /tmp/ccWXH52e.s:108    .text:000000000000008c .LVL9
     /tmp/ccWXH52e.s:179    .text:0000000000000124 .LVL15
     /tmp/ccWXH52e.s:424    .debug_info:0000000000000000 .Ldebug_info0
     /tmp/ccWXH52e.s:193    .gcc_except_table:0000000000000000 .LLSDA35

UNDEFINED SYMBOLS
_ZN5Riscv10popSppSpieEv
_Z15thread_dispatchv
_Z11thread_exitv
_Znwm
_Znam
_ZN9Scheduler3putEP7_thread
_ZdlPv
_Unwind_Resume
__gxx_personality_v0
_ZN9Scheduler3getEv
_ZN7_thread13contextSwitchEPNS_7ContextES1_
_Z11printStringPKc
GAS LISTING /tmp/ccWXH52e.s 			page 19


