GAS LISTING /tmp/ccbJFmT2.s 			page 1


   1              		.file	"_thread.cpp"
   2              		.option pic
   3              		.option norelax
   4              		.text
   5              	.Ltext0:
   6              		.align	2
   7              		.globl	_ZN7_thread12createThreadEPFvPvES0_
   9              	_ZN7_thread12createThreadEPFvPvES0_:
  10              	.LFB34:
  11              		.file 1 "src/_thread.cpp"
   1:src/_thread.cpp **** 
   2:src/_thread.cpp **** 
   3:src/_thread.cpp **** #include "../h/_thread.hpp"
   4:src/_thread.cpp **** #include "../h/riscv.hpp"
   5:src/_thread.cpp **** 
   6:src/_thread.cpp **** _thread *_thread::running = nullptr;
   7:src/_thread.cpp **** 
   8:src/_thread.cpp **** 
   9:src/_thread.cpp **** _thread *_thread::createThread(Body body, void* args)
  10:src/_thread.cpp **** {
  12              		.loc 1 10 1
  13              		.cfi_startproc
  14              		.cfi_personality 0x9b,DW.ref.__gxx_personality_v0
  15              		.cfi_lsda 0x1b,.LLSDA34
  16              	.LVL0:
  17 0000 130101FD 		addi	sp,sp,-48
  18              		.cfi_def_cfa_offset 48
  19 0004 23341102 		sd	ra,40(sp)
  20 0008 23308102 		sd	s0,32(sp)
  21 000c 233C9100 		sd	s1,24(sp)
  22 0010 23382101 		sd	s2,16(sp)
  23 0014 23343101 		sd	s3,8(sp)
  24              		.cfi_offset 1, -8
  25              		.cfi_offset 8, -16
  26              		.cfi_offset 9, -24
  27              		.cfi_offset 18, -32
  28              		.cfi_offset 19, -40
  29 0018 13040103 		addi	s0,sp,48
  30              		.cfi_def_cfa 8, 0
  31 001c 13090500 		mv	s2,a0
  32 0020 93890500 		mv	s3,a1
  11:src/_thread.cpp ****     _thread* newThread = new _thread(body, args);
  33              		.loc 1 11 5
  34              		.loc 1 11 48 is_stmt 0
  35 0024 13058003 		li	a0,56
  36              	.LVL1:
  37              	.LEHB0:
  38 0028 97000000 		call	_Znwm@plt
  38      E7800000 
  39              	.LVL2:
  40              	.LEHE0:
  41 0030 93040500 		mv	s1,a0
  42              	.LVL3:
  43              	.LBB15:
  44              	.LBB16:
  45              		.file 2 "src/../h/_thread.hpp"
   1:src/../h/_thread.hpp **** 
GAS LISTING /tmp/ccbJFmT2.s 			page 2


   2:src/../h/_thread.hpp **** 
   3:src/../h/_thread.hpp **** #ifndef OS1_VEZBE07_RISCV_CONTEXT_SWITCH_2_INTERRUPT_TCB_HPP
   4:src/../h/_thread.hpp **** #define OS1_VEZBE07_RISCV_CONTEXT_SWITCH_2_INTERRUPT_TCB_HPP
   5:src/../h/_thread.hpp **** 
   6:src/../h/_thread.hpp **** #include "../lib/hw.h"
   7:src/../h/_thread.hpp **** #include "scheduler.hpp"
   8:src/../h/_thread.hpp **** 
   9:src/../h/_thread.hpp **** typedef _thread* thread_t;
  10:src/../h/_thread.hpp **** 
  11:src/../h/_thread.hpp **** // Thread Control Block
  12:src/../h/_thread.hpp **** class _thread
  13:src/../h/_thread.hpp **** {
  14:src/../h/_thread.hpp **** public:
  15:src/../h/_thread.hpp ****     ~_thread() { delete[] stack; }
  16:src/../h/_thread.hpp **** 
  17:src/../h/_thread.hpp ****     bool isFinished() const { return finished; }
  18:src/../h/_thread.hpp **** 
  19:src/../h/_thread.hpp ****     void setFinished(bool value) { finished = value; }
  20:src/../h/_thread.hpp **** 
  21:src/../h/_thread.hpp ****     using Body = void (*)(void*);
  22:src/../h/_thread.hpp **** 
  23:src/../h/_thread.hpp ****     static _thread *createThread(Body body, void* args);
  24:src/../h/_thread.hpp **** 
  25:src/../h/_thread.hpp ****     static void yield();
  26:src/../h/_thread.hpp **** 
  27:src/../h/_thread.hpp ****     static _thread *running;
  28:src/../h/_thread.hpp **** 
  29:src/../h/_thread.hpp ****     static int exitThread();
  30:src/../h/_thread.hpp **** 
  31:src/../h/_thread.hpp ****     void setStart(bool b);
  32:src/../h/_thread.hpp **** 
  33:src/../h/_thread.hpp ****     bool isStarted() const { return started; }
  34:src/../h/_thread.hpp **** 
  35:src/../h/_thread.hpp ****     void setBlock(bool b);
  36:src/../h/_thread.hpp **** 
  37:src/../h/_thread.hpp ****     bool isBlocked() const { return blocked; }
  38:src/../h/_thread.hpp **** 
  39:src/../h/_thread.hpp **** private:
  40:src/../h/_thread.hpp ****     _thread(Body body, void* args) :
  41:src/../h/_thread.hpp ****             body(body),
  42:src/../h/_thread.hpp ****             args(args),
  43:src/../h/_thread.hpp ****             stack(body != nullptr ? new uint64[DEFAULT_STACK_SIZE] : nullptr),
  44:src/../h/_thread.hpp ****             context({
  45:src/../h/_thread.hpp ****                 (uint64) &threadWrapper,
  46:src/../h/_thread.hpp ****                 stack != nullptr ? (uint64) &stack[DEFAULT_STACK_SIZE] : 0
  47:src/../h/_thread.hpp ****             }),
  48:src/../h/_thread.hpp ****             finished(false),
  49:src/../h/_thread.hpp ****             started(true),
  50:src/../h/_thread.hpp ****             blocked(false)
  46              		.loc 2 50 26
  47 0034 23302501 		sd	s2,0(a0)
  48 0038 23343501 		sd	s3,8(a0)
  43:src/../h/_thread.hpp ****             context({
  49              		.loc 2 43 35
  50 003c 630A0900 		beqz	s2,.L6
  43:src/../h/_thread.hpp ****             context({
  51              		.loc 2 43 66
GAS LISTING /tmp/ccbJFmT2.s 			page 3


  52 0040 37850000 		li	a0,32768
  53              	.LEHB1:
  54 0044 97000000 		call	_Znam@plt
  54      E7800000 
  55              	.LVL4:
  56 004c 6F008000 		j	.L2
  57              	.L6:
  43:src/../h/_thread.hpp ****             context({
  58              		.loc 2 43 35
  59 0050 13050000 		li	a0,0
  60              	.L2:
  61              		.loc 2 50 26
  62 0054 23B8A400 		sd	a0,16(s1)
  63 0058 97070000 		lla	a5,_ZN7_thread13threadWrapperEv
  63      93870700 
  64 0060 23BCF400 		sd	a5,24(s1)
  46:src/../h/_thread.hpp ****             }),
  65              		.loc 2 46 34
  66 0064 630A0502 		beqz	a0,.L7
  46:src/../h/_thread.hpp ****             }),
  67              		.loc 2 46 45
  68 0068 B7870000 		li	a5,32768
  69 006c B307F500 		add	a5,a0,a5
  70              	.L3:
  71              		.loc 2 50 26
  72 0070 23B0F402 		sd	a5,32(s1)
  73 0074 23880402 		sb	zero,48(s1)
  74 0078 93071000 		li	a5,1
  75 007c A388F402 		sb	a5,49(s1)
  76 0080 23890402 		sb	zero,50(s1)
  51:src/../h/_thread.hpp ****     {
  52:src/../h/_thread.hpp ****             if (body != nullptr) { Scheduler::put(this);}
  77              		.loc 2 52 13 is_stmt 1
  78 0084 630C0902 		beqz	s2,.L1
  79              		.loc 2 52 36
  80              		.loc 2 52 50 is_stmt 0
  81 0088 13850400 		mv	a0,s1
  82 008c 97000000 		call	_ZN9Scheduler3putEP7_thread@plt
  82      E7800000 
  83              	.LVL5:
  84              	.LEHE1:
  85 0094 6F008002 		j	.L1
  86              	.L7:
  46:src/../h/_thread.hpp ****             }),
  87              		.loc 2 46 34
  88 0098 93070000 		li	a5,0
  89 009c 6FF05FFD 		j	.L3
  90              	.L8:
  91 00a0 13090500 		mv	s2,a0
  92              	.LVL6:
  93              	.LBE16:
  94              	.LBE15:
  95              		.loc 1 11 48
  96 00a4 13850400 		mv	a0,s1
  97 00a8 97000000 		call	_ZdlPv@plt
  97      E7800000 
  98              	.LVL7:
GAS LISTING /tmp/ccbJFmT2.s 			page 4


  99 00b0 13050900 		mv	a0,s2
 100              	.LEHB2:
 101 00b4 97000000 		call	_Unwind_Resume@plt
 101      E7800000 
 102              	.LVL8:
 103              	.LEHE2:
 104              	.L1:
  12:src/_thread.cpp ****     return newThread;
  13:src/_thread.cpp **** }
 105              		.loc 1 13 1
 106 00bc 13850400 		mv	a0,s1
 107 00c0 83308102 		ld	ra,40(sp)
 108              		.cfi_restore 1
 109 00c4 03340102 		ld	s0,32(sp)
 110              		.cfi_restore 8
 111              		.cfi_def_cfa 2, 48
 112 00c8 83348101 		ld	s1,24(sp)
 113              		.cfi_restore 9
 114              	.LVL9:
 115 00cc 03390101 		ld	s2,16(sp)
 116              		.cfi_restore 18
 117              	.LVL10:
 118 00d0 83398100 		ld	s3,8(sp)
 119              		.cfi_restore 19
 120              	.LVL11:
 121 00d4 13010103 		addi	sp,sp,48
 122              		.cfi_def_cfa_offset 0
 123 00d8 67800000 		jr	ra
 124              		.cfi_endproc
 125              	.LFE34:
 126              		.globl	__gxx_personality_v0
 127              		.section	.gcc_except_table,"a",@progbits
 128              	.LLSDA34:
 129 0000 FF       		.byte	0xff
 130 0001 FF       		.byte	0xff
 131 0002 03       		.byte	0x3
 132 0003 27       		.byte	0x27
 133 0004 00000000 		.4byte	.LEHB0-.LFB34
 134 0008 00000000 		.4byte	.LEHE0-.LEHB0
 135 000c 00000000 		.4byte	0
 136 0010 00       		.byte	0
 137 0011 00000000 		.4byte	.LEHB1-.LFB34
 138 0015 00000000 		.4byte	.LEHE1-.LEHB1
 139 0019 00000000 		.4byte	.L8-.LFB34
 140 001d 00       		.byte	0
 141 001e 00000000 		.4byte	.LEHB2-.LFB34
 142 0022 00000000 		.4byte	.LEHE2-.LEHB2
 143 0026 00000000 		.4byte	0
 144 002a 00       		.byte	0
 145              		.text
 147              		.align	2
 148              		.globl	_ZN7_thread8dispatchEv
 150              	_ZN7_thread8dispatchEv:
 151              	.LFB35:
  14:src/_thread.cpp **** 
  15:src/_thread.cpp **** void _thread::dispatch()
  16:src/_thread.cpp **** {
GAS LISTING /tmp/ccbJFmT2.s 			page 5


 152              		.loc 1 16 1 is_stmt 1
 153              		.cfi_startproc
 154 00dc 130101FE 		addi	sp,sp,-32
 155              		.cfi_def_cfa_offset 32
 156 00e0 233C1100 		sd	ra,24(sp)
 157 00e4 23388100 		sd	s0,16(sp)
 158 00e8 23349100 		sd	s1,8(sp)
 159              		.cfi_offset 1, -8
 160              		.cfi_offset 8, -16
 161              		.cfi_offset 9, -24
 162 00ec 13040102 		addi	s0,sp,32
 163              		.cfi_def_cfa 8, 0
  17:src/_thread.cpp ****     _thread *old = running;
 164              		.loc 1 17 5
 165              		.loc 1 17 14 is_stmt 0
 166 00f0 97040000 		ld	s1,.LANCHOR0
 166      83B40400 
 167              	.LVL12:
  18:src/_thread.cpp ****     if (!old->isFinished() && !old->isBlocked()) { Scheduler::put(old); }
 168              		.loc 1 18 5 is_stmt 1
 169              	.LBB17:
 170              	.LBB18:
  17:src/../h/_thread.hpp **** 
 171              		.loc 2 17 31
  17:src/../h/_thread.hpp **** 
 172              		.loc 2 17 38 is_stmt 0
 173 00f8 83C70403 		lbu	a5,48(s1)
 174              	.LVL13:
 175              	.LBE18:
 176              	.LBE17:
 177              		.loc 1 18 28
 178 00fc 63960700 		bnez	a5,.L11
 179              	.LVL14:
 180              	.LBB19:
 181              	.LBB20:
  37:src/../h/_thread.hpp **** 
 182              		.loc 2 37 30 is_stmt 1
  37:src/../h/_thread.hpp **** 
 183              		.loc 2 37 37 is_stmt 0
 184 0100 83C72403 		lbu	a5,50(s1)
 185              	.LVL15:
 186              	.LBE20:
 187              	.LBE19:
 188              		.loc 1 18 28
 189 0104 638C0702 		beqz	a5,.L13
 190              	.L11:
  19:src/_thread.cpp ****     running = Scheduler::get();
 191              		.loc 1 19 5 is_stmt 1
 192              		.loc 1 19 29 is_stmt 0
 193 0108 97000000 		call	_ZN9Scheduler3getEv@plt
 193      E7800000 
 194              	.LVL16:
 195              		.loc 1 19 13
 196 0110 97070000 		sd	a0,.LANCHOR0,a5
 196      23B0A700 
  20:src/_thread.cpp **** 
  21:src/_thread.cpp ****     _thread::contextSwitch(&old->context, &running->context);
GAS LISTING /tmp/ccbJFmT2.s 			page 6


 197              		.loc 1 21 5 is_stmt 1
 198              		.loc 1 21 27 is_stmt 0
 199 0118 93058501 		addi	a1,a0,24
 200 011c 13858401 		addi	a0,s1,24
 201 0120 97000000 		call	_ZN7_thread13contextSwitchEPNS_7ContextES1_@plt
 201      E7800000 
 202              	.LVL17:
  22:src/_thread.cpp **** }
 203              		.loc 1 22 1
 204 0128 83308101 		ld	ra,24(sp)
 205              		.cfi_remember_state
 206              		.cfi_restore 1
 207 012c 03340101 		ld	s0,16(sp)
 208              		.cfi_restore 8
 209              		.cfi_def_cfa 2, 32
 210 0130 83348100 		ld	s1,8(sp)
 211              		.cfi_restore 9
 212              	.LVL18:
 213 0134 13010102 		addi	sp,sp,32
 214              		.cfi_def_cfa_offset 0
 215 0138 67800000 		jr	ra
 216              	.LVL19:
 217              	.L13:
 218              		.cfi_restore_state
  18:src/_thread.cpp ****     running = Scheduler::get();
 219              		.loc 1 18 52 is_stmt 1
  18:src/_thread.cpp ****     running = Scheduler::get();
 220              		.loc 1 18 66 is_stmt 0
 221 013c 13850400 		mv	a0,s1
 222 0140 97000000 		call	_ZN9Scheduler3putEP7_thread@plt
 222      E7800000 
 223              	.LVL20:
 224 0148 6FF01FFC 		j	.L11
 225              		.cfi_endproc
 226              	.LFE35:
 228              		.align	2
 229              		.globl	_ZN7_thread13threadWrapperEv
 231              	_ZN7_thread13threadWrapperEv:
 232              	.LFB36:
  23:src/_thread.cpp **** 
  24:src/_thread.cpp **** void _thread::threadWrapper()
  25:src/_thread.cpp **** {
 233              		.loc 1 25 1 is_stmt 1
 234              		.cfi_startproc
 235 014c 130101FF 		addi	sp,sp,-16
 236              		.cfi_def_cfa_offset 16
 237 0150 23341100 		sd	ra,8(sp)
 238 0154 23308100 		sd	s0,0(sp)
 239              		.cfi_offset 1, -8
 240              		.cfi_offset 8, -16
 241 0158 13040101 		addi	s0,sp,16
 242              		.cfi_def_cfa 8, 0
  26:src/_thread.cpp ****     Riscv::popSppSpie();
 243              		.loc 1 26 5
 244              		.loc 1 26 22 is_stmt 0
 245 015c 97000000 		call	_ZN5Riscv10popSppSpieEv@plt
 245      E7800000 
GAS LISTING /tmp/ccbJFmT2.s 			page 7


 246              	.LVL21:
 247              	.L16:
  27:src/_thread.cpp ****     while(!running->isStarted()) _thread::dispatch();
 248              		.loc 1 27 5 is_stmt 1 discriminator 2
 249              		.loc 1 27 11 discriminator 2
 250              		.loc 1 27 30 is_stmt 0 discriminator 2
 251 0164 97070000 		ld	a5,.LANCHOR0
 251      83B70700 
 252              	.LVL22:
 253              	.LBB21:
 254              	.LBB22:
  33:src/../h/_thread.hpp **** 
 255              		.loc 2 33 30 is_stmt 1 discriminator 2
  33:src/../h/_thread.hpp **** 
 256              		.loc 2 33 37 is_stmt 0 discriminator 2
 257 016c 03C71703 		lbu	a4,49(a5)
 258              	.LVL23:
 259              	.LBE22:
 260              	.LBE21:
 261              		.loc 1 27 11 discriminator 2
 262 0170 63180700 		bnez	a4,.L15
 263              		.loc 1 27 34 is_stmt 1 discriminator 1
 264              		.loc 1 27 51 is_stmt 0 discriminator 1
 265 0174 97000000 		call	_ZN7_thread8dispatchEv
 265      E7800000 
 266              	.LVL24:
 267              		.loc 1 27 5 discriminator 1
 268 017c 6FF09FFE 		j	.L16
 269              	.L15:
  28:src/_thread.cpp ****     running->body(running->args);
 270              		.loc 1 28 5 is_stmt 1
 271              		.loc 1 28 14 is_stmt 0
 272 0180 03B70700 		ld	a4,0(a5)
 273              		.loc 1 28 18
 274 0184 03B58700 		ld	a0,8(a5)
 275 0188 E7000700 		jalr	a4
 276              	.LVL25:
  29:src/_thread.cpp ****     running->setFinished(true);
 277              		.loc 1 29 5 is_stmt 1
 278              	.LBB23:
 279              	.LBB24:
  19:src/../h/_thread.hpp **** 
 280              		.loc 2 19 36
  19:src/../h/_thread.hpp **** 
 281              		.loc 2 19 45 is_stmt 0
 282 018c 97070000 		ld	a5,.LANCHOR0
 282      83B70700 
 283 0194 13071000 		li	a4,1
 284 0198 2388E702 		sb	a4,48(a5)
 285              	.LVL26:
 286              	.LBE24:
 287              	.LBE23:
  30:src/_thread.cpp ****     _thread::dispatch();
 288              		.loc 1 30 5 is_stmt 1
 289              		.loc 1 30 22 is_stmt 0
 290 019c 97000000 		call	_ZN7_thread8dispatchEv
 290      E7800000 
GAS LISTING /tmp/ccbJFmT2.s 			page 8


 291              	.LVL27:
  31:src/_thread.cpp **** }
 292              		.loc 1 31 1
 293 01a4 83308100 		ld	ra,8(sp)
 294              		.cfi_restore 1
 295 01a8 03340100 		ld	s0,0(sp)
 296              		.cfi_restore 8
 297              		.cfi_def_cfa 2, 16
 298 01ac 13010101 		addi	sp,sp,16
 299              		.cfi_def_cfa_offset 0
 300 01b0 67800000 		jr	ra
 301              		.cfi_endproc
 302              	.LFE36:
 304              		.align	2
 305              		.globl	_ZN7_thread10exitThreadEv
 307              	_ZN7_thread10exitThreadEv:
 308              	.LFB37:
  32:src/_thread.cpp **** 
  33:src/_thread.cpp **** int _thread::exitThread() {
 309              		.loc 1 33 27 is_stmt 1
 310              		.cfi_startproc
 311 01b4 130101FF 		addi	sp,sp,-16
 312              		.cfi_def_cfa_offset 16
 313 01b8 23341100 		sd	ra,8(sp)
 314 01bc 23308100 		sd	s0,0(sp)
 315              		.cfi_offset 1, -8
 316              		.cfi_offset 8, -16
 317 01c0 13040101 		addi	s0,sp,16
 318              		.cfi_def_cfa 8, 0
  34:src/_thread.cpp ****     _thread::running->setFinished(true);
 319              		.loc 1 34 5
 320              	.LVL28:
 321              	.LBB25:
 322              	.LBB26:
  19:src/../h/_thread.hpp **** 
 323              		.loc 2 19 36
  19:src/../h/_thread.hpp **** 
 324              		.loc 2 19 45 is_stmt 0
 325 01c4 97070000 		ld	a5,.LANCHOR0
 325      83B70700 
 326 01cc 13071000 		li	a4,1
 327 01d0 2388E702 		sb	a4,48(a5)
 328              	.LVL29:
 329              	.LBE26:
 330              	.LBE25:
  35:src/_thread.cpp ****     _thread::dispatch();
 331              		.loc 1 35 5 is_stmt 1
 332              		.loc 1 35 22 is_stmt 0
 333 01d4 97000000 		call	_ZN7_thread8dispatchEv
 333      E7800000 
 334              	.LVL30:
  36:src/_thread.cpp ****     return 0;
 335              		.loc 1 36 5 is_stmt 1
  37:src/_thread.cpp **** }
 336              		.loc 1 37 1 is_stmt 0
 337 01dc 13050000 		li	a0,0
 338 01e0 83308100 		ld	ra,8(sp)
GAS LISTING /tmp/ccbJFmT2.s 			page 9


 339              		.cfi_restore 1
 340 01e4 03340100 		ld	s0,0(sp)
 341              		.cfi_restore 8
 342              		.cfi_def_cfa 2, 16
 343 01e8 13010101 		addi	sp,sp,16
 344              		.cfi_def_cfa_offset 0
 345 01ec 67800000 		jr	ra
 346              		.cfi_endproc
 347              	.LFE37:
 349              		.align	2
 350              		.globl	_ZN7_thread8setStartEb
 352              	_ZN7_thread8setStartEb:
 353              	.LFB38:
  38:src/_thread.cpp **** 
  39:src/_thread.cpp **** void _thread::setStart(bool b) {
 354              		.loc 1 39 32 is_stmt 1
 355              		.cfi_startproc
 356              	.LVL31:
 357 01f0 130101FF 		addi	sp,sp,-16
 358              		.cfi_def_cfa_offset 16
 359 01f4 23348100 		sd	s0,8(sp)
 360              		.cfi_offset 8, -8
 361 01f8 13040101 		addi	s0,sp,16
 362              		.cfi_def_cfa 8, 0
  40:src/_thread.cpp ****     this->started = b;
 363              		.loc 1 40 5
 364              		.loc 1 40 19 is_stmt 0
 365 01fc A308B502 		sb	a1,49(a0)
  41:src/_thread.cpp **** }
 366              		.loc 1 41 1
 367 0200 03348100 		ld	s0,8(sp)
 368              		.cfi_restore 8
 369              		.cfi_def_cfa 2, 16
 370 0204 13010101 		addi	sp,sp,16
 371              		.cfi_def_cfa_offset 0
 372 0208 67800000 		jr	ra
 373              		.cfi_endproc
 374              	.LFE38:
 376              		.align	2
 377              		.globl	_ZN7_thread8setBlockEb
 379              	_ZN7_thread8setBlockEb:
 380              	.LFB39:
  42:src/_thread.cpp **** 
  43:src/_thread.cpp **** void _thread::setBlock(bool b) {
 381              		.loc 1 43 32 is_stmt 1
 382              		.cfi_startproc
 383              	.LVL32:
 384 020c 130101FF 		addi	sp,sp,-16
 385              		.cfi_def_cfa_offset 16
 386 0210 23348100 		sd	s0,8(sp)
 387              		.cfi_offset 8, -8
 388 0214 13040101 		addi	s0,sp,16
 389              		.cfi_def_cfa 8, 0
  44:src/_thread.cpp ****     this->blocked = b;
 390              		.loc 1 44 5
 391              		.loc 1 44 19 is_stmt 0
 392 0218 2309B502 		sb	a1,50(a0)
GAS LISTING /tmp/ccbJFmT2.s 			page 10


  45:src/_thread.cpp **** }
 393              		.loc 1 45 1
 394 021c 03348100 		ld	s0,8(sp)
 395              		.cfi_restore 8
 396              		.cfi_def_cfa 2, 16
 397 0220 13010101 		addi	sp,sp,16
 398              		.cfi_def_cfa_offset 0
 399 0224 67800000 		jr	ra
 400              		.cfi_endproc
 401              	.LFE39:
 403              		.globl	_ZN7_thread7runningE
 404              		.bss
 405              		.align	3
 406              		.set	.LANCHOR0,. + 0
 409              	_ZN7_thread7runningE:
 410 0000 00000000 		.zero	8
 410      00000000 
 411              		.text
 412              	.Letext0:
 413              		.file 3 "src/../h/../lib/hw.h"
 414              		.file 4 "src/../h/scheduler.hpp"
 415              		.file 5 "src/../h/riscv.hpp"
 2897              		.align	3
 2900              	DW.ref.__gxx_personality_v0:
 2901 0000 00000000 		.dword	__gxx_personality_v0
 2901      00000000 
 2902              		.ident	"GCC: (Ubuntu 9.4.0-1ubuntu1~20.04) 9.4.0"
 2903              		.section	.note.GNU-stack,"",@progbits
GAS LISTING /tmp/ccbJFmT2.s 			page 11


DEFINED SYMBOLS
                            *ABS*:0000000000000000 _thread.cpp
     /tmp/ccbJFmT2.s:9      .text:0000000000000000 _ZN7_thread12createThreadEPFvPvES0_
     /tmp/ccbJFmT2.s:13     .text:0000000000000000 .L0 
     /tmp/ccbJFmT2.s:2900   .data.rel.local.DW.ref.__gxx_personality_v0:0000000000000000 DW.ref.__gxx_personality_v0
     /tmp/ccbJFmT2.s:17     .text:0000000000000000 .L0 
     /tmp/ccbJFmT2.s:18     .text:0000000000000004 .L0 
     /tmp/ccbJFmT2.s:24     .text:0000000000000018 .L0 
     /tmp/ccbJFmT2.s:25     .text:0000000000000018 .L0 
     /tmp/ccbJFmT2.s:26     .text:0000000000000018 .L0 
     /tmp/ccbJFmT2.s:27     .text:0000000000000018 .L0 
     /tmp/ccbJFmT2.s:28     .text:0000000000000018 .L0 
     /tmp/ccbJFmT2.s:30     .text:000000000000001c .L0 
     /tmp/ccbJFmT2.s:34     .text:0000000000000024 .L0 
     /tmp/ccbJFmT2.s:35     .text:0000000000000024 .L0 
     /tmp/ccbJFmT2.s:47     .text:0000000000000034 .L0 
     /tmp/ccbJFmT2.s:50     .text:000000000000003c .L0 
     /tmp/ccbJFmT2.s:52     .text:0000000000000040 .L0 
     /tmp/ccbJFmT2.s:59     .text:0000000000000050 .L0 
     /tmp/ccbJFmT2.s:62     .text:0000000000000054 .L0 
     /tmp/ccbJFmT2.s:231    .text:000000000000014c _ZN7_thread13threadWrapperEv
     /tmp/ccbJFmT2.s:66     .text:0000000000000064 .L0 
     /tmp/ccbJFmT2.s:68     .text:0000000000000068 .L0 
     /tmp/ccbJFmT2.s:72     .text:0000000000000070 .L0 
     /tmp/ccbJFmT2.s:78     .text:0000000000000084 .L0 
     /tmp/ccbJFmT2.s:80     .text:0000000000000088 .L0 
     /tmp/ccbJFmT2.s:81     .text:0000000000000088 .L0 
     /tmp/ccbJFmT2.s:88     .text:0000000000000098 .L0 
     /tmp/ccbJFmT2.s:96     .text:00000000000000a4 .L0 
     /tmp/ccbJFmT2.s:106    .text:00000000000000bc .L0 
     /tmp/ccbJFmT2.s:108    .text:00000000000000c4 .L0 
     /tmp/ccbJFmT2.s:110    .text:00000000000000c8 .L0 
     /tmp/ccbJFmT2.s:111    .text:00000000000000c8 .L0 
     /tmp/ccbJFmT2.s:113    .text:00000000000000cc .L0 
     /tmp/ccbJFmT2.s:116    .text:00000000000000d0 .L0 
     /tmp/ccbJFmT2.s:119    .text:00000000000000d4 .L0 
     /tmp/ccbJFmT2.s:122    .text:00000000000000d8 .L0 
     /tmp/ccbJFmT2.s:124    .text:00000000000000dc .L0 
     /tmp/ccbJFmT2.s:150    .text:00000000000000dc _ZN7_thread8dispatchEv
     /tmp/ccbJFmT2.s:153    .text:00000000000000dc .L0 
     /tmp/ccbJFmT2.s:154    .text:00000000000000dc .L0 
     /tmp/ccbJFmT2.s:155    .text:00000000000000e0 .L0 
     /tmp/ccbJFmT2.s:159    .text:00000000000000ec .L0 
     /tmp/ccbJFmT2.s:160    .text:00000000000000ec .L0 
     /tmp/ccbJFmT2.s:161    .text:00000000000000ec .L0 
     /tmp/ccbJFmT2.s:163    .text:00000000000000f0 .L0 
     /tmp/ccbJFmT2.s:165    .text:00000000000000f0 .L0 
     /tmp/ccbJFmT2.s:166    .text:00000000000000f0 .L0 
     /tmp/ccbJFmT2.s:171    .text:00000000000000f8 .L0 
     /tmp/ccbJFmT2.s:172    .text:00000000000000f8 .L0 
     /tmp/ccbJFmT2.s:173    .text:00000000000000f8 .L0 
     /tmp/ccbJFmT2.s:178    .text:00000000000000fc .L0 
     /tmp/ccbJFmT2.s:183    .text:0000000000000100 .L0 
     /tmp/ccbJFmT2.s:184    .text:0000000000000100 .L0 
     /tmp/ccbJFmT2.s:189    .text:0000000000000104 .L0 
     /tmp/ccbJFmT2.s:192    .text:0000000000000108 .L0 
     /tmp/ccbJFmT2.s:193    .text:0000000000000108 .L0 
GAS LISTING /tmp/ccbJFmT2.s 			page 12


     /tmp/ccbJFmT2.s:196    .text:0000000000000110 .L0 
     /tmp/ccbJFmT2.s:198    .text:0000000000000118 .L0 
     /tmp/ccbJFmT2.s:199    .text:0000000000000118 .L0 
     /tmp/ccbJFmT2.s:204    .text:0000000000000128 .L0 
     /tmp/ccbJFmT2.s:205    .text:000000000000012c .L0 
     /tmp/ccbJFmT2.s:206    .text:000000000000012c .L0 
     /tmp/ccbJFmT2.s:208    .text:0000000000000130 .L0 
     /tmp/ccbJFmT2.s:209    .text:0000000000000130 .L0 
     /tmp/ccbJFmT2.s:211    .text:0000000000000134 .L0 
     /tmp/ccbJFmT2.s:214    .text:0000000000000138 .L0 
     /tmp/ccbJFmT2.s:218    .text:000000000000013c .L0 
     /tmp/ccbJFmT2.s:220    .text:000000000000013c .L0 
     /tmp/ccbJFmT2.s:221    .text:000000000000013c .L0 
     /tmp/ccbJFmT2.s:225    .text:000000000000014c .L0 
     /tmp/ccbJFmT2.s:234    .text:000000000000014c .L0 
     /tmp/ccbJFmT2.s:235    .text:000000000000014c .L0 
     /tmp/ccbJFmT2.s:236    .text:0000000000000150 .L0 
     /tmp/ccbJFmT2.s:239    .text:0000000000000158 .L0 
     /tmp/ccbJFmT2.s:240    .text:0000000000000158 .L0 
     /tmp/ccbJFmT2.s:242    .text:000000000000015c .L0 
     /tmp/ccbJFmT2.s:244    .text:000000000000015c .L0 
     /tmp/ccbJFmT2.s:245    .text:000000000000015c .L0 
     /tmp/ccbJFmT2.s:249    .text:0000000000000164 .L0 
     /tmp/ccbJFmT2.s:250    .text:0000000000000164 .L0 
     /tmp/ccbJFmT2.s:251    .text:0000000000000164 .L0 
     /tmp/ccbJFmT2.s:256    .text:000000000000016c .L0 
     /tmp/ccbJFmT2.s:257    .text:000000000000016c .L0 
     /tmp/ccbJFmT2.s:262    .text:0000000000000170 .L0 
     /tmp/ccbJFmT2.s:264    .text:0000000000000174 .L0 
     /tmp/ccbJFmT2.s:265    .text:0000000000000174 .L0 
     /tmp/ccbJFmT2.s:268    .text:000000000000017c .L0 
     /tmp/ccbJFmT2.s:271    .text:0000000000000180 .L0 
     /tmp/ccbJFmT2.s:272    .text:0000000000000180 .L0 
     /tmp/ccbJFmT2.s:274    .text:0000000000000184 .L0 
     /tmp/ccbJFmT2.s:280    .text:000000000000018c .L0 
     /tmp/ccbJFmT2.s:281    .text:000000000000018c .L0 
     /tmp/ccbJFmT2.s:282    .text:000000000000018c .L0 
     /tmp/ccbJFmT2.s:289    .text:000000000000019c .L0 
     /tmp/ccbJFmT2.s:290    .text:000000000000019c .L0 
     /tmp/ccbJFmT2.s:293    .text:00000000000001a4 .L0 
     /tmp/ccbJFmT2.s:294    .text:00000000000001a8 .L0 
     /tmp/ccbJFmT2.s:296    .text:00000000000001ac .L0 
     /tmp/ccbJFmT2.s:297    .text:00000000000001ac .L0 
     /tmp/ccbJFmT2.s:299    .text:00000000000001b0 .L0 
     /tmp/ccbJFmT2.s:301    .text:00000000000001b4 .L0 
     /tmp/ccbJFmT2.s:307    .text:00000000000001b4 _ZN7_thread10exitThreadEv
     /tmp/ccbJFmT2.s:310    .text:00000000000001b4 .L0 
     /tmp/ccbJFmT2.s:311    .text:00000000000001b4 .L0 
     /tmp/ccbJFmT2.s:312    .text:00000000000001b8 .L0 
     /tmp/ccbJFmT2.s:315    .text:00000000000001c0 .L0 
     /tmp/ccbJFmT2.s:316    .text:00000000000001c0 .L0 
     /tmp/ccbJFmT2.s:318    .text:00000000000001c4 .L0 
     /tmp/ccbJFmT2.s:323    .text:00000000000001c4 .L0 
     /tmp/ccbJFmT2.s:324    .text:00000000000001c4 .L0 
     /tmp/ccbJFmT2.s:325    .text:00000000000001c4 .L0 
     /tmp/ccbJFmT2.s:332    .text:00000000000001d4 .L0 
     /tmp/ccbJFmT2.s:333    .text:00000000000001d4 .L0 
GAS LISTING /tmp/ccbJFmT2.s 			page 13


     /tmp/ccbJFmT2.s:336    .text:00000000000001dc .L0 
     /tmp/ccbJFmT2.s:337    .text:00000000000001dc .L0 
     /tmp/ccbJFmT2.s:339    .text:00000000000001e4 .L0 
     /tmp/ccbJFmT2.s:341    .text:00000000000001e8 .L0 
     /tmp/ccbJFmT2.s:342    .text:00000000000001e8 .L0 
     /tmp/ccbJFmT2.s:344    .text:00000000000001ec .L0 
     /tmp/ccbJFmT2.s:346    .text:00000000000001f0 .L0 
     /tmp/ccbJFmT2.s:352    .text:00000000000001f0 _ZN7_thread8setStartEb
     /tmp/ccbJFmT2.s:355    .text:00000000000001f0 .L0 
     /tmp/ccbJFmT2.s:357    .text:00000000000001f0 .L0 
     /tmp/ccbJFmT2.s:358    .text:00000000000001f4 .L0 
     /tmp/ccbJFmT2.s:360    .text:00000000000001f8 .L0 
     /tmp/ccbJFmT2.s:362    .text:00000000000001fc .L0 
     /tmp/ccbJFmT2.s:364    .text:00000000000001fc .L0 
     /tmp/ccbJFmT2.s:365    .text:00000000000001fc .L0 
     /tmp/ccbJFmT2.s:367    .text:0000000000000200 .L0 
     /tmp/ccbJFmT2.s:368    .text:0000000000000204 .L0 
     /tmp/ccbJFmT2.s:369    .text:0000000000000204 .L0 
     /tmp/ccbJFmT2.s:371    .text:0000000000000208 .L0 
     /tmp/ccbJFmT2.s:373    .text:000000000000020c .L0 
     /tmp/ccbJFmT2.s:379    .text:000000000000020c _ZN7_thread8setBlockEb
     /tmp/ccbJFmT2.s:382    .text:000000000000020c .L0 
     /tmp/ccbJFmT2.s:384    .text:000000000000020c .L0 
     /tmp/ccbJFmT2.s:385    .text:0000000000000210 .L0 
     /tmp/ccbJFmT2.s:387    .text:0000000000000214 .L0 
     /tmp/ccbJFmT2.s:389    .text:0000000000000218 .L0 
     /tmp/ccbJFmT2.s:391    .text:0000000000000218 .L0 
     /tmp/ccbJFmT2.s:392    .text:0000000000000218 .L0 
     /tmp/ccbJFmT2.s:394    .text:000000000000021c .L0 
     /tmp/ccbJFmT2.s:395    .text:0000000000000220 .L0 
     /tmp/ccbJFmT2.s:396    .text:0000000000000220 .L0 
     /tmp/ccbJFmT2.s:398    .text:0000000000000224 .L0 
     /tmp/ccbJFmT2.s:400    .text:0000000000000228 .L0 
     /tmp/ccbJFmT2.s:409    .bss:0000000000000000 _ZN7_thread7runningE
     /tmp/ccbJFmT2.s:406    .bss:0000000000000000 .LANCHOR0
     /tmp/ccbJFmT2.s:416    .text:0000000000000228 .L0 
     /tmp/ccbJFmT2.s:63     .text:0000000000000058 .L0 
     /tmp/ccbJFmT2.s:166    .text:00000000000000f0 .L0 
     /tmp/ccbJFmT2.s:196    .text:0000000000000110 .L0 
     /tmp/ccbJFmT2.s:251    .text:0000000000000164 .L0 
     /tmp/ccbJFmT2.s:282    .text:000000000000018c .L0 
     /tmp/ccbJFmT2.s:325    .text:00000000000001c4 .L0 
     /tmp/ccbJFmT2.s:57     .text:0000000000000050 .L6
     /tmp/ccbJFmT2.s:60     .text:0000000000000054 .L2
     /tmp/ccbJFmT2.s:86     .text:0000000000000098 .L7
     /tmp/ccbJFmT2.s:104    .text:00000000000000bc .L1
     /tmp/ccbJFmT2.s:70     .text:0000000000000070 .L3
     /tmp/ccbJFmT2.s:190    .text:0000000000000108 .L11
     /tmp/ccbJFmT2.s:217    .text:000000000000013c .L13
     /tmp/ccbJFmT2.s:269    .text:0000000000000180 .L15
     /tmp/ccbJFmT2.s:247    .text:0000000000000164 .L16
     /tmp/ccbJFmT2.s:37     .text:0000000000000028 .LEHB0
     /tmp/ccbJFmT2.s:10     .text:0000000000000000 .LFB34
     /tmp/ccbJFmT2.s:40     .text:0000000000000030 .LEHE0
     /tmp/ccbJFmT2.s:53     .text:0000000000000044 .LEHB1
     /tmp/ccbJFmT2.s:84     .text:0000000000000094 .LEHE1
     /tmp/ccbJFmT2.s:90     .text:00000000000000a0 .L8
GAS LISTING /tmp/ccbJFmT2.s 			page 14


     /tmp/ccbJFmT2.s:100    .text:00000000000000b4 .LEHB2
     /tmp/ccbJFmT2.s:103    .text:00000000000000bc .LEHE2
     /tmp/ccbJFmT2.s:1563   .debug_abbrev:0000000000000000 .Ldebug_abbrev0
     /tmp/ccbJFmT2.s:2852   .debug_str:000000000000065e .LASF115
     /tmp/ccbJFmT2.s:2870   .debug_str:00000000000007ae .LASF116
     /tmp/ccbJFmT2.s:2708   .debug_str:00000000000001fd .LASF117
     /tmp/ccbJFmT2.s:5      .text:0000000000000000 .Ltext0
     /tmp/ccbJFmT2.s:412    .text:0000000000000228 .Letext0
     /tmp/ccbJFmT2.s:2634   .debug_line:0000000000000000 .Ldebug_line0
     /tmp/ccbJFmT2.s:2776   .debug_str:0000000000000429 .LASF0
     /tmp/ccbJFmT2.s:2790   .debug_str:0000000000000463 .LASF1
     /tmp/ccbJFmT2.s:2764   .debug_str:00000000000003e3 .LASF2
     /tmp/ccbJFmT2.s:2694   .debug_str:00000000000001ab .LASF3
     /tmp/ccbJFmT2.s:2734   .debug_str:00000000000002ce .LASF4
     /tmp/ccbJFmT2.s:2824   .debug_str:0000000000000561 .LASF5
     /tmp/ccbJFmT2.s:2660   .debug_str:0000000000000089 .LASF6
     /tmp/ccbJFmT2.s:2794   .debug_str:000000000000047e .LASF7
     /tmp/ccbJFmT2.s:2774   .debug_str:0000000000000416 .LASF8
     /tmp/ccbJFmT2.s:2864   .debug_str:000000000000077f .LASF9
     /tmp/ccbJFmT2.s:2716   .debug_str:0000000000000245 .LASF10
     /tmp/ccbJFmT2.s:2806   .debug_str:00000000000004e0 .LASF11
     /tmp/ccbJFmT2.s:2854   .debug_str:0000000000000722 .LASF12
     /tmp/ccbJFmT2.s:2662   .debug_str:0000000000000090 .LASF13
     /tmp/ccbJFmT2.s:2642   .debug_str:0000000000000026 .LASF14
     /tmp/ccbJFmT2.s:2676   .debug_str:00000000000000fa .LASF15
     /tmp/ccbJFmT2.s:2816   .debug_str:000000000000051d .LASF16
     /tmp/ccbJFmT2.s:2686   .debug_str:0000000000000152 .LASF17
     /tmp/ccbJFmT2.s:2802   .debug_str:00000000000004c2 .LASF18
     /tmp/ccbJFmT2.s:2710   .debug_str:000000000000021b .LASF118
     /tmp/ccbJFmT2.s:2728   .debug_str:00000000000002a8 .LASF119
     /tmp/ccbJFmT2.s:2860   .debug_str:000000000000074c .LASF120
     /tmp/ccbJFmT2.s:2740   .debug_str:00000000000002ff .LASF121
     /tmp/ccbJFmT2.s:2730   .debug_str:00000000000002bc .LASF19
     /tmp/ccbJFmT2.s:2650   .debug_str:0000000000000052 .LASF122
     /tmp/ccbJFmT2.s:2856   .debug_str:0000000000000731 .LASF20
     /tmp/ccbJFmT2.s:2798   .debug_str:000000000000049c .LASF22
     /tmp/ccbJFmT2.s:2796   .debug_str:0000000000000491 .LASF29
     /tmp/ccbJFmT2.s:2760   .debug_str:00000000000003b3 .LASF31
     /tmp/ccbJFmT2.s:2766   .debug_str:00000000000003f1 .LASF21
     /tmp/ccbJFmT2.s:2758   .debug_str:0000000000000398 .LASF23
     /tmp/ccbJFmT2.s:2746   .debug_str:0000000000000320 .LASF24
     /tmp/ccbJFmT2.s:2880   .debug_str:0000000000000804 .LASF25
     /tmp/ccbJFmT2.s:2812   .debug_str:000000000000050d .LASF123
     /tmp/ccbJFmT2.s:2818   .debug_str:0000000000000533 .LASF63
     /tmp/ccbJFmT2.s:2846   .debug_str:0000000000000622 .LASF65
     /tmp/ccbJFmT2.s:2700   .debug_str:00000000000001d4 .LASF124
     /tmp/ccbJFmT2.s:2808   .debug_str:00000000000004ef .LASF26
     /tmp/ccbJFmT2.s:2698   .debug_str:00000000000001ba .LASF68
     /tmp/ccbJFmT2.s:2646   .debug_str:000000000000003f .LASF27
     /tmp/ccbJFmT2.s:2862   .debug_str:0000000000000768 .LASF28
     /tmp/ccbJFmT2.s:2674   .debug_str:00000000000000f0 .LASF30
     /tmp/ccbJFmT2.s:2750   .debug_str:000000000000033b .LASF32
     /tmp/ccbJFmT2.s:2722   .debug_str:0000000000000286 .LASF33
     /tmp/ccbJFmT2.s:2850   .debug_str:0000000000000647 .LASF34
     /tmp/ccbJFmT2.s:2648   .debug_str:0000000000000048 .LASF35
     /tmp/ccbJFmT2.s:2668   .debug_str:00000000000000b5 .LASF36
     /tmp/ccbJFmT2.s:2868   .debug_str:0000000000000796 .LASF71
GAS LISTING /tmp/ccbJFmT2.s 			page 15


     /tmp/ccbJFmT2.s:2666   .debug_str:00000000000000b0 .LASF37
     /tmp/ccbJFmT2.s:2784   .debug_str:000000000000044c .LASF38
     /tmp/ccbJFmT2.s:2782   .debug_str:0000000000000446 .LASF39
     /tmp/ccbJFmT2.s:2744   .debug_str:0000000000000318 .LASF40
     /tmp/ccbJFmT2.s:2786   .debug_str:0000000000000451 .LASF41
     /tmp/ccbJFmT2.s:2738   .debug_str:00000000000002f6 .LASF42
     /tmp/ccbJFmT2.s:2788   .debug_str:000000000000045b .LASF43
     /tmp/ccbJFmT2.s:2636   .debug_str:0000000000000000 .LASF44
     /tmp/ccbJFmT2.s:2748   .debug_str:000000000000032d .LASF46
     /tmp/ccbJFmT2.s:2720   .debug_str:0000000000000269 .LASF48
     /tmp/ccbJFmT2.s:2874   .debug_str:00000000000007d3 .LASF45
     /tmp/ccbJFmT2.s:2756   .debug_str:000000000000036c .LASF125
     /tmp/ccbJFmT2.s:2780   .debug_str:000000000000043d .LASF47
     /tmp/ccbJFmT2.s:2844   .debug_str:000000000000060b .LASF49
     /tmp/ccbJFmT2.s:2706   .debug_str:00000000000001f8 .LASF50
     /tmp/ccbJFmT2.s:2664   .debug_str:00000000000000a0 .LASF51
     /tmp/ccbJFmT2.s:2826   .debug_str:0000000000000573 .LASF52
     /tmp/ccbJFmT2.s:2678   .debug_str:0000000000000106 .LASF53
     /tmp/ccbJFmT2.s:2736   .debug_str:00000000000002d5 .LASF54
     /tmp/ccbJFmT2.s:2804   .debug_str:00000000000004cc .LASF55
     /tmp/ccbJFmT2.s:2752   .debug_str:0000000000000354 .LASF56
     /tmp/ccbJFmT2.s:2640   .debug_str:0000000000000010 .LASF57
     /tmp/ccbJFmT2.s:2878   .debug_str:00000000000007f5 .LASF58
     /tmp/ccbJFmT2.s:2828   .debug_str:0000000000000582 .LASF59
     /tmp/ccbJFmT2.s:2882   .debug_str:0000000000000828 .LASF60
     /tmp/ccbJFmT2.s:2848   .debug_str:0000000000000636 .LASF61
     /tmp/ccbJFmT2.s:2680   .debug_str:000000000000011f .LASF62
     /tmp/ccbJFmT2.s:2814   .debug_str:0000000000000512 .LASF64
     /tmp/ccbJFmT2.s:2886   .debug_str:000000000000083c .LASF66
     /tmp/ccbJFmT2.s:2644   .debug_str:0000000000000036 .LASF67
     /tmp/ccbJFmT2.s:2838   .debug_str:00000000000005cb .LASF69
     /tmp/ccbJFmT2.s:2696   .debug_str:00000000000001b1 .LASF70
     /tmp/ccbJFmT2.s:2682   .debug_str:0000000000000125 .LASF72
     /tmp/ccbJFmT2.s:2768   .debug_str:00000000000003fd .LASF73
     /tmp/ccbJFmT2.s:2810   .debug_str:00000000000004fa .LASF74
     /tmp/ccbJFmT2.s:2866   .debug_str:000000000000078f .LASF75
     /tmp/ccbJFmT2.s:2842   .debug_str:00000000000005f8 .LASF76
     /tmp/ccbJFmT2.s:2792   .debug_str:0000000000000476 .LASF77
     /tmp/ccbJFmT2.s:2688   .debug_str:0000000000000168 .LASF78
     /tmp/ccbJFmT2.s:2638   .debug_str:0000000000000008 .LASF79
     /tmp/ccbJFmT2.s:2830   .debug_str:0000000000000592 .LASF80
     /tmp/ccbJFmT2.s:2702   .debug_str:00000000000001dc .LASF81
     /tmp/ccbJFmT2.s:2876   .debug_str:00000000000007e1 .LASF82
     /tmp/ccbJFmT2.s:2890   .debug_str:0000000000000867 .LASF83
     /tmp/ccbJFmT2.s:2704   .debug_str:00000000000001e4 .LASF84
     /tmp/ccbJFmT2.s:2778   .debug_str:0000000000000436 .LASF85
     /tmp/ccbJFmT2.s:2888   .debug_str:0000000000000854 .LASF86
     /tmp/ccbJFmT2.s:2656   .debug_str:000000000000006a .LASF87
     /tmp/ccbJFmT2.s:2712   .debug_str:000000000000022c .LASF88
     /tmp/ccbJFmT2.s:2714   .debug_str:000000000000023f .LASF89
     /tmp/ccbJFmT2.s:2858   .debug_str:000000000000073a .LASF90
     /tmp/ccbJFmT2.s:2654   .debug_str:0000000000000064 .LASF91
     /tmp/ccbJFmT2.s:2892   .debug_str:000000000000086f .LASF92
     /tmp/ccbJFmT2.s:2772   .debug_str:000000000000040b .LASF93
     /tmp/ccbJFmT2.s:2822   .debug_str:0000000000000549 .LASF94
     /tmp/ccbJFmT2.s:2742   .debug_str:000000000000030d .LASF95
     /tmp/ccbJFmT2.s:2840   .debug_str:00000000000005e0 .LASF96
GAS LISTING /tmp/ccbJFmT2.s 			page 16


     /tmp/ccbJFmT2.s:2724   .debug_str:000000000000028f .LASF97
     /tmp/ccbJFmT2.s:2800   .debug_str:00000000000004ac .LASF98
     /tmp/ccbJFmT2.s:2652   .debug_str:000000000000005a .LASF99
     /tmp/ccbJFmT2.s:2718   .debug_str:0000000000000253 .LASF100
     /tmp/ccbJFmT2.s:2832   .debug_str:00000000000005a6 .LASF101
     /tmp/ccbJFmT2.s:2670   .debug_str:00000000000000ce .LASF102
     /tmp/ccbJFmT2.s:2872   .debug_str:00000000000007be .LASF103
     /tmp/ccbJFmT2.s:2692   .debug_str:0000000000000189 .LASF104
     /tmp/ccbJFmT2.s:2762   .debug_str:00000000000003ce .LASF126
     /tmp/ccbJFmT2.s:380    .text:000000000000020c .LFB39
     /tmp/ccbJFmT2.s:401    .text:0000000000000228 .LFE39
     /tmp/ccbJFmT2.s:2884   .debug_str:0000000000000837 .LASF105
     /tmp/ccbJFmT2.s:353    .text:00000000000001f0 .LFB38
     /tmp/ccbJFmT2.s:374    .text:000000000000020c .LFE38
     /tmp/ccbJFmT2.s:308    .text:00000000000001b4 .LFB37
     /tmp/ccbJFmT2.s:347    .text:00000000000001f0 .LFE37
     /tmp/ccbJFmT2.s:321    .text:00000000000001c4 .LBB25
     /tmp/ccbJFmT2.s:330    .text:00000000000001d4 .LBE25
     /tmp/ccbJFmT2.s:2460   .debug_loc:0000000000000000 .LLST11
     /tmp/ccbJFmT2.s:2468   .debug_loc:0000000000000024 .LLST12
     /tmp/ccbJFmT2.s:334    .text:00000000000001dc .LVL30
     /tmp/ccbJFmT2.s:232    .text:000000000000014c .LFB36
     /tmp/ccbJFmT2.s:302    .text:00000000000001b4 .LFE36
     /tmp/ccbJFmT2.s:253    .text:000000000000016c .LBB21
     /tmp/ccbJFmT2.s:260    .text:0000000000000170 .LBE21
     /tmp/ccbJFmT2.s:2476   .debug_loc:000000000000004f .LLST8
     /tmp/ccbJFmT2.s:278    .text:000000000000018c .LBB23
     /tmp/ccbJFmT2.s:287    .text:000000000000019c .LBE23
     /tmp/ccbJFmT2.s:2483   .debug_loc:0000000000000072 .LLST9
     /tmp/ccbJFmT2.s:2491   .debug_loc:0000000000000096 .LLST10
     /tmp/ccbJFmT2.s:246    .text:0000000000000164 .LVL21
     /tmp/ccbJFmT2.s:266    .text:000000000000017c .LVL24
     /tmp/ccbJFmT2.s:291    .text:00000000000001a4 .LVL27
     /tmp/ccbJFmT2.s:151    .text:00000000000000dc .LFB35
     /tmp/ccbJFmT2.s:226    .text:000000000000014c .LFE35
     /tmp/ccbJFmT2.s:2499   .debug_loc:00000000000000c1 .LLST5
     /tmp/ccbJFmT2.s:169    .text:00000000000000f8 .LBB17
     /tmp/ccbJFmT2.s:176    .text:00000000000000fc .LBE17
     /tmp/ccbJFmT2.s:2510   .debug_loc:00000000000000f7 .LLST6
     /tmp/ccbJFmT2.s:180    .text:0000000000000100 .LBB19
     /tmp/ccbJFmT2.s:187    .text:0000000000000104 .LBE19
     /tmp/ccbJFmT2.s:2517   .debug_loc:000000000000011a .LLST7
     /tmp/ccbJFmT2.s:194    .text:0000000000000110 .LVL16
     /tmp/ccbJFmT2.s:202    .text:0000000000000128 .LVL17
     /tmp/ccbJFmT2.s:223    .text:0000000000000148 .LVL20
     /tmp/ccbJFmT2.s:125    .text:00000000000000dc .LFE34
     /tmp/ccbJFmT2.s:2524   .debug_loc:000000000000013d .LLST0
     /tmp/ccbJFmT2.s:2553   .debug_loc:00000000000001b2 .LLST1
     /tmp/ccbJFmT2.s:2732   .debug_str:00000000000002c4 .LASF127
     /tmp/ccbJFmT2.s:43     .text:0000000000000034 .LBB15
     /tmp/ccbJFmT2.s:94     .text:00000000000000a4 .LBE15
     /tmp/ccbJFmT2.s:2571   .debug_loc:00000000000001fe .LLST2
     /tmp/ccbJFmT2.s:2585   .debug_loc:0000000000000237 .LLST3
     /tmp/ccbJFmT2.s:2610   .debug_loc:0000000000000299 .LLST4
     /tmp/ccbJFmT2.s:55     .text:000000000000004c .LVL4
     /tmp/ccbJFmT2.s:83     .text:0000000000000094 .LVL5
     /tmp/ccbJFmT2.s:39     .text:0000000000000030 .LVL2
GAS LISTING /tmp/ccbJFmT2.s 			page 17


     /tmp/ccbJFmT2.s:98     .text:00000000000000b0 .LVL7
     /tmp/ccbJFmT2.s:102    .text:00000000000000bc .LVL8
     /tmp/ccbJFmT2.s:2658   .debug_str:0000000000000071 .LASF128
     /tmp/ccbJFmT2.s:2672   .debug_str:00000000000000ea .LASF106
     /tmp/ccbJFmT2.s:2836   .debug_str:00000000000005c5 .LASF107
     /tmp/ccbJFmT2.s:2820   .debug_str:0000000000000539 .LASF109
     /tmp/ccbJFmT2.s:2754   .debug_str:0000000000000366 .LASF108
     /tmp/ccbJFmT2.s:2690   .debug_str:000000000000017c .LASF110
     /tmp/ccbJFmT2.s:2770   .debug_str:0000000000000404 .LASF111
     /tmp/ccbJFmT2.s:2834   .debug_str:00000000000005b5 .LASF112
     /tmp/ccbJFmT2.s:2726   .debug_str:0000000000000299 .LASF113
     /tmp/ccbJFmT2.s:2684   .debug_str:000000000000013a .LASF114
     /tmp/ccbJFmT2.s:320    .text:00000000000001c4 .LVL28
     /tmp/ccbJFmT2.s:328    .text:00000000000001d4 .LVL29
     /tmp/ccbJFmT2.s:252    .text:000000000000016c .LVL22
     /tmp/ccbJFmT2.s:258    .text:0000000000000170 .LVL23
     /tmp/ccbJFmT2.s:276    .text:000000000000018c .LVL25
     /tmp/ccbJFmT2.s:285    .text:000000000000019c .LVL26
     /tmp/ccbJFmT2.s:167    .text:00000000000000f8 .LVL12
     /tmp/ccbJFmT2.s:212    .text:0000000000000134 .LVL18
     /tmp/ccbJFmT2.s:216    .text:000000000000013c .LVL19
     /tmp/ccbJFmT2.s:174    .text:00000000000000fc .LVL13
     /tmp/ccbJFmT2.s:179    .text:0000000000000100 .LVL14
     /tmp/ccbJFmT2.s:185    .text:0000000000000104 .LVL15
     /tmp/ccbJFmT2.s:16     .text:0000000000000000 .LVL0
     /tmp/ccbJFmT2.s:36     .text:0000000000000028 .LVL1
     /tmp/ccbJFmT2.s:92     .text:00000000000000a4 .LVL6
     /tmp/ccbJFmT2.s:117    .text:00000000000000d0 .LVL10
     /tmp/ccbJFmT2.s:120    .text:00000000000000d4 .LVL11
     /tmp/ccbJFmT2.s:42     .text:0000000000000034 .LVL3
     /tmp/ccbJFmT2.s:114    .text:00000000000000cc .LVL9
     /tmp/ccbJFmT2.s:417    .debug_info:0000000000000000 .Ldebug_info0
     /tmp/ccbJFmT2.s:128    .gcc_except_table:0000000000000000 .LLSDA34

UNDEFINED SYMBOLS
_Znwm
_Znam
_ZN9Scheduler3putEP7_thread
_ZdlPv
_Unwind_Resume
__gxx_personality_v0
_ZN9Scheduler3getEv
_ZN7_thread13contextSwitchEPNS_7ContextES1_
_ZN5Riscv10popSppSpieEv
