GAS LISTING /tmp/cc8IF16X.s 			page 1


   1              		.file	"_thread.cpp"
   2              		.option pic
   3              		.option norelax
   4              		.text
   5              	.Ltext0:
   6              		.align	2
   7              		.globl	_ZN7_thread13threadWrapperEv
   9              	_ZN7_thread13threadWrapperEv:
  10              	.LFB39:
  11              		.file 1 "src/_thread.cpp"
   1:src/_thread.cpp **** 
   2:src/_thread.cpp **** 
   3:src/_thread.cpp **** #include "../h/_thread.hpp"
   4:src/_thread.cpp **** #include "../h/riscv.hpp"
   5:src/_thread.cpp **** #include "../h/syscall_c.hpp"
   6:src/_thread.cpp **** #include "../test/printing.hpp"
   7:src/_thread.cpp **** 
   8:src/_thread.cpp **** _thread *_thread::running = nullptr;
   9:src/_thread.cpp **** 
  10:src/_thread.cpp **** 
  11:src/_thread.cpp **** _thread *_thread::createThread(Body body, void* args)
  12:src/_thread.cpp **** {
  13:src/_thread.cpp ****     _thread* newThread = new _thread(body, args);
  14:src/_thread.cpp ****     return newThread;
  15:src/_thread.cpp **** }
  16:src/_thread.cpp **** 
  17:src/_thread.cpp **** void _thread::dispatch()
  18:src/_thread.cpp **** {
  19:src/_thread.cpp ****     _thread *old = running;
  20:src/_thread.cpp ****     if (!old->isFinished() && !old->isBlocked()) { Scheduler::put(old); }
  21:src/_thread.cpp ****     running = Scheduler::get();
  22:src/_thread.cpp ****     if (running == nullptr) {
  23:src/_thread.cpp ****         printString("vratili smo null\n");
  24:src/_thread.cpp ****     }
  25:src/_thread.cpp **** 
  26:src/_thread.cpp ****     _thread::contextSwitch(&old->context, &running->context);
  27:src/_thread.cpp **** }
  28:src/_thread.cpp **** 
  29:src/_thread.cpp **** void _thread::threadWrapper()
  30:src/_thread.cpp **** {
  12              		.loc 1 30 1
  13              		.cfi_startproc
  14 0000 130101FF 		addi	sp,sp,-16
  15              		.cfi_def_cfa_offset 16
  16 0004 23341100 		sd	ra,8(sp)
  17 0008 23308100 		sd	s0,0(sp)
  18              		.cfi_offset 1, -8
  19              		.cfi_offset 8, -16
  20 000c 13040101 		addi	s0,sp,16
  21              		.cfi_def_cfa 8, 0
  31:src/_thread.cpp **** 
  32:src/_thread.cpp ****     Riscv::popSppSpie();
  22              		.loc 1 32 5
  23              		.loc 1 32 22 is_stmt 0
  24 0010 97000000 		call	_ZN5Riscv10popSppSpieEv@plt
  24      E7800000 
  25              	.LVL0:
GAS LISTING /tmp/cc8IF16X.s 			page 2


  26              	.L3:
  33:src/_thread.cpp ****     while(!running->isStarted()) thread_dispatch();
  27              		.loc 1 33 5 is_stmt 1 discriminator 2
  28              		.loc 1 33 11 discriminator 2
  29              		.loc 1 33 30 is_stmt 0 discriminator 2
  30 0018 97070000 		ld	a5,.LANCHOR0
  30      83B70700 
  31              	.LVL1:
  32              	.LBB10:
  33              	.LBB11:
  34              		.file 2 "src/../h/_thread.hpp"
   1:src/../h/_thread.hpp **** 
   2:src/../h/_thread.hpp **** 
   3:src/../h/_thread.hpp **** #ifndef OS1_VEZBE07_RISCV_CONTEXT_SWITCH_2_INTERRUPT_TCB_HPP
   4:src/../h/_thread.hpp **** #define OS1_VEZBE07_RISCV_CONTEXT_SWITCH_2_INTERRUPT_TCB_HPP
   5:src/../h/_thread.hpp **** 
   6:src/../h/_thread.hpp **** #include "../lib/hw.h"
   7:src/../h/_thread.hpp **** #include "scheduler.hpp"
   8:src/../h/_thread.hpp **** 
   9:src/../h/_thread.hpp **** typedef _thread* thread_t;
  10:src/../h/_thread.hpp **** 
  11:src/../h/_thread.hpp **** // Thread Control Block
  12:src/../h/_thread.hpp **** class _thread
  13:src/../h/_thread.hpp **** {
  14:src/../h/_thread.hpp **** public:
  15:src/../h/_thread.hpp ****     ~_thread() { delete[] stack; }
  16:src/../h/_thread.hpp **** 
  17:src/../h/_thread.hpp ****     bool isFinished() const { return finished; }
  18:src/../h/_thread.hpp **** 
  19:src/../h/_thread.hpp ****     void setFinished(bool value) { finished = value; }
  20:src/../h/_thread.hpp **** 
  21:src/../h/_thread.hpp ****     using Body = void (*)(void*);
  22:src/../h/_thread.hpp **** 
  23:src/../h/_thread.hpp ****     static _thread *createThread(Body body, void* args);
  24:src/../h/_thread.hpp **** 
  25:src/../h/_thread.hpp ****     static void yield();
  26:src/../h/_thread.hpp **** 
  27:src/../h/_thread.hpp ****     static _thread *running;
  28:src/../h/_thread.hpp **** 
  29:src/../h/_thread.hpp ****     static int exitThread();
  30:src/../h/_thread.hpp **** 
  31:src/../h/_thread.hpp ****     void setStart(bool b);
  32:src/../h/_thread.hpp **** 
  33:src/../h/_thread.hpp ****     bool isStarted() const { return started; }
  35              		.loc 2 33 30 is_stmt 1 discriminator 2
  36              		.loc 2 33 37 is_stmt 0 discriminator 2
  37 0020 03C79702 		lbu	a4,41(a5)
  38              	.LVL2:
  39              	.LBE11:
  40              	.LBE10:
  41              		.loc 1 33 11 discriminator 2
  42 0024 63180700 		bnez	a4,.L2
  43              		.loc 1 33 34 is_stmt 1 discriminator 1
  44              		.loc 1 33 49 is_stmt 0 discriminator 1
  45 0028 97000000 		call	_Z15thread_dispatchv@plt
  45      E7800000 
  46              	.LVL3:
GAS LISTING /tmp/cc8IF16X.s 			page 3


  47              		.loc 1 33 5 discriminator 1
  48 0030 6FF09FFE 		j	.L3
  49              	.L2:
  34:src/_thread.cpp ****     running->body(running->args);
  50              		.loc 1 34 5 is_stmt 1
  51              		.loc 1 34 14 is_stmt 0
  52 0034 03B70700 		ld	a4,0(a5)
  53              		.loc 1 34 18
  54 0038 03B58700 		ld	a0,8(a5)
  55 003c E7000700 		jalr	a4
  56              	.LVL4:
  35:src/_thread.cpp ****     thread_exit();
  57              		.loc 1 35 5 is_stmt 1
  58              		.loc 1 35 16 is_stmt 0
  59 0040 97000000 		call	_Z11thread_exitv@plt
  59      E7800000 
  60              	.LVL5:
  36:src/_thread.cpp **** }
  61              		.loc 1 36 1
  62 0048 83308100 		ld	ra,8(sp)
  63              		.cfi_restore 1
  64 004c 03340100 		ld	s0,0(sp)
  65              		.cfi_restore 8
  66              		.cfi_def_cfa 2, 16
  67 0050 13010101 		addi	sp,sp,16
  68              		.cfi_def_cfa_offset 0
  69 0054 67800000 		jr	ra
  70              		.cfi_endproc
  71              	.LFE39:
  73              		.align	2
  74              		.globl	_ZN7_thread12createThreadEPFvPvES0_
  76              	_ZN7_thread12createThreadEPFvPvES0_:
  77              	.LFB37:
  12:src/_thread.cpp ****     _thread* newThread = new _thread(body, args);
  78              		.loc 1 12 1 is_stmt 1
  79              		.cfi_startproc
  80              		.cfi_personality 0x9b,DW.ref.__gxx_personality_v0
  81              		.cfi_lsda 0x1b,.LLSDA37
  82              	.LVL6:
  83 0058 130101FD 		addi	sp,sp,-48
  84              		.cfi_def_cfa_offset 48
  85 005c 23341102 		sd	ra,40(sp)
  86 0060 23308102 		sd	s0,32(sp)
  87 0064 233C9100 		sd	s1,24(sp)
  88 0068 23382101 		sd	s2,16(sp)
  89 006c 23343101 		sd	s3,8(sp)
  90              		.cfi_offset 1, -8
  91              		.cfi_offset 8, -16
  92              		.cfi_offset 9, -24
  93              		.cfi_offset 18, -32
  94              		.cfi_offset 19, -40
  95 0070 13040103 		addi	s0,sp,48
  96              		.cfi_def_cfa 8, 0
  97 0074 13090500 		mv	s2,a0
  98 0078 93890500 		mv	s3,a1
  13:src/_thread.cpp ****     return newThread;
  99              		.loc 1 13 5
GAS LISTING /tmp/cc8IF16X.s 			page 4


  13:src/_thread.cpp ****     return newThread;
 100              		.loc 1 13 48 is_stmt 0
 101 007c 13050003 		li	a0,48
 102              	.LVL7:
 103              	.LEHB0:
 104 0080 97000000 		call	_Znwm@plt
 104      E7800000 
 105              	.LVL8:
 106              	.LEHE0:
 107 0088 93040500 		mv	s1,a0
 108              	.LVL9:
 109              	.LBB15:
 110              	.LBB16:
  34:src/../h/_thread.hpp **** 
  35:src/../h/_thread.hpp ****     void setBlock(bool b);
  36:src/../h/_thread.hpp **** 
  37:src/../h/_thread.hpp ****     bool isBlocked() const { return blocked; }
  38:src/../h/_thread.hpp **** 
  39:src/../h/_thread.hpp ****     void setSemStatus(int s) { semStatus = s; }
  40:src/../h/_thread.hpp ****     int getSemStatus() const { return semStatus; }
  41:src/../h/_thread.hpp **** 
  42:src/../h/_thread.hpp **** private:
  43:src/../h/_thread.hpp ****     _thread(Body body, void* args) :
  44:src/../h/_thread.hpp ****             body(body),
  45:src/../h/_thread.hpp ****             args(args),
  46:src/../h/_thread.hpp ****             stack(body != nullptr ? new uint64[DEFAULT_STACK_SIZE] : nullptr),
  47:src/../h/_thread.hpp ****             context({
  48:src/../h/_thread.hpp ****                 (uint64) &threadWrapper,
  49:src/../h/_thread.hpp ****                 stack != nullptr ? (uint64) &stack[DEFAULT_STACK_SIZE] : 0
  50:src/../h/_thread.hpp ****             }),
  51:src/../h/_thread.hpp ****             finished(false),
  52:src/../h/_thread.hpp ****             started(true),
  53:src/../h/_thread.hpp ****             blocked(false),
  54:src/../h/_thread.hpp ****             semStatus(0)
 111              		.loc 2 54 24
 112 008c 23302501 		sd	s2,0(a0)
 113 0090 23343501 		sd	s3,8(a0)
  46:src/../h/_thread.hpp ****             context({
 114              		.loc 2 46 35
 115 0094 630A0900 		beqz	s2,.L10
  46:src/../h/_thread.hpp ****             context({
 116              		.loc 2 46 66
 117 0098 37850000 		li	a0,32768
 118              	.LEHB1:
 119 009c 97000000 		call	_Znam@plt
 119      E7800000 
 120              	.LVL10:
 121 00a4 6F008000 		j	.L6
 122              	.L10:
  46:src/../h/_thread.hpp ****             context({
 123              		.loc 2 46 35
 124 00a8 13050000 		li	a0,0
 125              	.L6:
 126              		.loc 2 54 24
 127 00ac 23B8A400 		sd	a0,16(s1)
 128 00b0 97070000 		lla	a5,_ZN7_thread13threadWrapperEv
 128      93870700 
GAS LISTING /tmp/cc8IF16X.s 			page 5


 129 00b8 23BCF400 		sd	a5,24(s1)
  49:src/../h/_thread.hpp ****             }),
 130              		.loc 2 49 34
 131 00bc 630C0502 		beqz	a0,.L11
  49:src/../h/_thread.hpp ****             }),
 132              		.loc 2 49 45
 133 00c0 B7870000 		li	a5,32768
 134 00c4 B307F500 		add	a5,a0,a5
 135              	.L7:
 136              		.loc 2 54 24
 137 00c8 23B0F402 		sd	a5,32(s1)
 138 00cc 23840402 		sb	zero,40(s1)
 139 00d0 93071000 		li	a5,1
 140 00d4 A384F402 		sb	a5,41(s1)
 141 00d8 23850402 		sb	zero,42(s1)
 142 00dc 23A60402 		sw	zero,44(s1)
  55:src/../h/_thread.hpp ****     {
  56:src/../h/_thread.hpp ****             if (body != nullptr) { Scheduler::put(this);}
 143              		.loc 2 56 13 is_stmt 1
 144 00e0 630C0902 		beqz	s2,.L5
 145              		.loc 2 56 36
 146              		.loc 2 56 50 is_stmt 0
 147 00e4 13850400 		mv	a0,s1
 148 00e8 97000000 		call	_ZN9Scheduler3putEP7_thread@plt
 148      E7800000 
 149              	.LVL11:
 150              	.LEHE1:
 151 00f0 6F008002 		j	.L5
 152              	.L11:
  49:src/../h/_thread.hpp ****             }),
 153              		.loc 2 49 34
 154 00f4 93070000 		li	a5,0
 155 00f8 6FF01FFD 		j	.L7
 156              	.L12:
 157 00fc 13090500 		mv	s2,a0
 158              	.LVL12:
 159              	.LBE16:
 160              	.LBE15:
  13:src/_thread.cpp ****     return newThread;
 161              		.loc 1 13 48
 162 0100 13850400 		mv	a0,s1
 163 0104 97000000 		call	_ZdlPv@plt
 163      E7800000 
 164              	.LVL13:
 165 010c 13050900 		mv	a0,s2
 166              	.LEHB2:
 167 0110 97000000 		call	_Unwind_Resume@plt
 167      E7800000 
 168              	.LVL14:
 169              	.LEHE2:
 170              	.L5:
  15:src/_thread.cpp **** 
 171              		.loc 1 15 1
 172 0118 13850400 		mv	a0,s1
 173 011c 83308102 		ld	ra,40(sp)
 174              		.cfi_restore 1
 175 0120 03340102 		ld	s0,32(sp)
GAS LISTING /tmp/cc8IF16X.s 			page 6


 176              		.cfi_restore 8
 177              		.cfi_def_cfa 2, 48
 178 0124 83348101 		ld	s1,24(sp)
 179              		.cfi_restore 9
 180              	.LVL15:
 181 0128 03390101 		ld	s2,16(sp)
 182              		.cfi_restore 18
 183              	.LVL16:
 184 012c 83398100 		ld	s3,8(sp)
 185              		.cfi_restore 19
 186              	.LVL17:
 187 0130 13010103 		addi	sp,sp,48
 188              		.cfi_def_cfa_offset 0
 189 0134 67800000 		jr	ra
 190              		.cfi_endproc
 191              	.LFE37:
 192              		.globl	__gxx_personality_v0
 193              		.section	.gcc_except_table,"a",@progbits
 194              	.LLSDA37:
 195 0000 FF       		.byte	0xff
 196 0001 FF       		.byte	0xff
 197 0002 03       		.byte	0x3
 198 0003 27       		.byte	0x27
 199 0004 00000000 		.4byte	.LEHB0-.LFB37
 200 0008 00000000 		.4byte	.LEHE0-.LEHB0
 201 000c 00000000 		.4byte	0
 202 0010 00       		.byte	0
 203 0011 00000000 		.4byte	.LEHB1-.LFB37
 204 0015 00000000 		.4byte	.LEHE1-.LEHB1
 205 0019 00000000 		.4byte	.L12-.LFB37
 206 001d 00       		.byte	0
 207 001e 00000000 		.4byte	.LEHB2-.LFB37
 208 0022 00000000 		.4byte	.LEHE2-.LEHB2
 209 0026 00000000 		.4byte	0
 210 002a 00       		.byte	0
 211              		.text
 213              		.section	.rodata.str1.8,"aMS",@progbits,1
 214              		.align	3
 215              	.LC0:
 216 0000 76726174 		.string	"vratili smo null\n"
 216      696C6920 
 216      736D6F20 
 216      6E756C6C 
 216      0A00
 217              		.text
 218              		.align	2
 219              		.globl	_ZN7_thread8dispatchEv
 221              	_ZN7_thread8dispatchEv:
 222              	.LFB38:
  18:src/_thread.cpp ****     _thread *old = running;
 223              		.loc 1 18 1 is_stmt 1
 224              		.cfi_startproc
 225 0138 130101FE 		addi	sp,sp,-32
 226              		.cfi_def_cfa_offset 32
 227 013c 233C1100 		sd	ra,24(sp)
 228 0140 23388100 		sd	s0,16(sp)
 229 0144 23349100 		sd	s1,8(sp)
GAS LISTING /tmp/cc8IF16X.s 			page 7


 230              		.cfi_offset 1, -8
 231              		.cfi_offset 8, -16
 232              		.cfi_offset 9, -24
 233 0148 13040102 		addi	s0,sp,32
 234              		.cfi_def_cfa 8, 0
  19:src/_thread.cpp ****     if (!old->isFinished() && !old->isBlocked()) { Scheduler::put(old); }
 235              		.loc 1 19 5
  19:src/_thread.cpp ****     if (!old->isFinished() && !old->isBlocked()) { Scheduler::put(old); }
 236              		.loc 1 19 14 is_stmt 0
 237 014c 97040000 		ld	s1,.LANCHOR0
 237      83B40400 
 238              	.LVL18:
  20:src/_thread.cpp ****     running = Scheduler::get();
 239              		.loc 1 20 5 is_stmt 1
 240              	.LBB17:
 241              	.LBB18:
  17:src/../h/_thread.hpp **** 
 242              		.loc 2 17 31
  17:src/../h/_thread.hpp **** 
 243              		.loc 2 17 38 is_stmt 0
 244 0154 83C78402 		lbu	a5,40(s1)
 245              	.LVL19:
 246              	.LBE18:
 247              	.LBE17:
  20:src/_thread.cpp ****     running = Scheduler::get();
 248              		.loc 1 20 28
 249 0158 63960700 		bnez	a5,.L15
 250              	.LVL20:
 251              	.LBB19:
 252              	.LBB20:
  37:src/../h/_thread.hpp **** 
 253              		.loc 2 37 30 is_stmt 1
  37:src/../h/_thread.hpp **** 
 254              		.loc 2 37 37 is_stmt 0
 255 015c 83C7A402 		lbu	a5,42(s1)
 256              	.LVL21:
 257              	.LBE20:
 258              	.LBE19:
  20:src/_thread.cpp ****     running = Scheduler::get();
 259              		.loc 1 20 28
 260 0160 63820704 		beqz	a5,.L18
 261              	.L15:
  21:src/_thread.cpp ****     if (running == nullptr) {
 262              		.loc 1 21 5 is_stmt 1
  21:src/_thread.cpp ****     if (running == nullptr) {
 263              		.loc 1 21 29 is_stmt 0
 264 0164 97000000 		call	_ZN9Scheduler3getEv@plt
 264      E7800000 
 265              	.LVL22:
  21:src/_thread.cpp ****     if (running == nullptr) {
 266              		.loc 1 21 13
 267 016c 97070000 		sd	a0,.LANCHOR0,a5
 267      23B0A700 
  22:src/_thread.cpp ****         printString("vratili smo null\n");
 268              		.loc 1 22 5 is_stmt 1
 269 0174 63000504 		beqz	a0,.L19
 270              	.L16:
GAS LISTING /tmp/cc8IF16X.s 			page 8


  26:src/_thread.cpp **** }
 271              		.loc 1 26 5
  26:src/_thread.cpp **** }
 272              		.loc 1 26 27 is_stmt 0
 273 0178 97050000 		ld	a1,.LANCHOR0
 273      83B50500 
 274 0180 93858501 		addi	a1,a1,24
 275 0184 13858401 		addi	a0,s1,24
 276 0188 97000000 		call	_ZN7_thread13contextSwitchEPNS_7ContextES1_@plt
 276      E7800000 
 277              	.LVL23:
  27:src/_thread.cpp **** 
 278              		.loc 1 27 1
 279 0190 83308101 		ld	ra,24(sp)
 280              		.cfi_remember_state
 281              		.cfi_restore 1
 282 0194 03340101 		ld	s0,16(sp)
 283              		.cfi_restore 8
 284              		.cfi_def_cfa 2, 32
 285 0198 83348100 		ld	s1,8(sp)
 286              		.cfi_restore 9
 287              	.LVL24:
 288 019c 13010102 		addi	sp,sp,32
 289              		.cfi_def_cfa_offset 0
 290 01a0 67800000 		jr	ra
 291              	.LVL25:
 292              	.L18:
 293              		.cfi_restore_state
  20:src/_thread.cpp ****     running = Scheduler::get();
 294              		.loc 1 20 52 is_stmt 1
  20:src/_thread.cpp ****     running = Scheduler::get();
 295              		.loc 1 20 66 is_stmt 0
 296 01a4 13850400 		mv	a0,s1
 297 01a8 97000000 		call	_ZN9Scheduler3putEP7_thread@plt
 297      E7800000 
 298              	.LVL26:
 299 01b0 6FF05FFB 		j	.L15
 300              	.L19:
  23:src/_thread.cpp ****     }
 301              		.loc 1 23 9 is_stmt 1
  23:src/_thread.cpp ****     }
 302              		.loc 1 23 20 is_stmt 0
 303 01b4 17050000 		lla	a0,.LC0
 303      13050500 
 304 01bc 97000000 		call	_Z11printStringPKc@plt
 304      E7800000 
 305              	.LVL27:
 306 01c4 6FF05FFB 		j	.L16
 307              		.cfi_endproc
 308              	.LFE38:
 310              		.align	2
 311              		.globl	_ZN7_thread10exitThreadEv
 313              	_ZN7_thread10exitThreadEv:
 314              	.LFB40:
  37:src/_thread.cpp **** 
  38:src/_thread.cpp **** int _thread::exitThread() {
 315              		.loc 1 38 27 is_stmt 1
GAS LISTING /tmp/cc8IF16X.s 			page 9


 316              		.cfi_startproc
 317 01c8 130101FF 		addi	sp,sp,-16
 318              		.cfi_def_cfa_offset 16
 319 01cc 23341100 		sd	ra,8(sp)
 320 01d0 23308100 		sd	s0,0(sp)
 321              		.cfi_offset 1, -8
 322              		.cfi_offset 8, -16
 323 01d4 13040101 		addi	s0,sp,16
 324              		.cfi_def_cfa 8, 0
  39:src/_thread.cpp ****     _thread::running->setFinished(true);
 325              		.loc 1 39 5
 326              	.LVL28:
 327              	.LBB21:
 328              	.LBB22:
  19:src/../h/_thread.hpp **** 
 329              		.loc 2 19 36
  19:src/../h/_thread.hpp **** 
 330              		.loc 2 19 45 is_stmt 0
 331 01d8 97070000 		ld	a5,.LANCHOR0
 331      83B70700 
 332 01e0 13071000 		li	a4,1
 333 01e4 2384E702 		sb	a4,40(a5)
 334              	.LVL29:
 335              	.LBE22:
 336              	.LBE21:
  40:src/_thread.cpp ****     thread_dispatch();
 337              		.loc 1 40 5 is_stmt 1
 338              		.loc 1 40 20 is_stmt 0
 339 01e8 97000000 		call	_Z15thread_dispatchv@plt
 339      E7800000 
 340              	.LVL30:
  41:src/_thread.cpp ****     return 0;
 341              		.loc 1 41 5 is_stmt 1
  42:src/_thread.cpp **** }
 342              		.loc 1 42 1 is_stmt 0
 343 01f0 13050000 		li	a0,0
 344 01f4 83308100 		ld	ra,8(sp)
 345              		.cfi_restore 1
 346 01f8 03340100 		ld	s0,0(sp)
 347              		.cfi_restore 8
 348              		.cfi_def_cfa 2, 16
 349 01fc 13010101 		addi	sp,sp,16
 350              		.cfi_def_cfa_offset 0
 351 0200 67800000 		jr	ra
 352              		.cfi_endproc
 353              	.LFE40:
 355              		.align	2
 356              		.globl	_ZN7_thread8setStartEb
 358              	_ZN7_thread8setStartEb:
 359              	.LFB41:
  43:src/_thread.cpp **** 
  44:src/_thread.cpp **** void _thread::setStart(bool b) {
 360              		.loc 1 44 32 is_stmt 1
 361              		.cfi_startproc
 362              	.LVL31:
 363 0204 130101FF 		addi	sp,sp,-16
 364              		.cfi_def_cfa_offset 16
GAS LISTING /tmp/cc8IF16X.s 			page 10


 365 0208 23348100 		sd	s0,8(sp)
 366              		.cfi_offset 8, -8
 367 020c 13040101 		addi	s0,sp,16
 368              		.cfi_def_cfa 8, 0
  45:src/_thread.cpp ****     this->started = b;
 369              		.loc 1 45 5
 370              		.loc 1 45 19 is_stmt 0
 371 0210 A304B502 		sb	a1,41(a0)
  46:src/_thread.cpp **** }
 372              		.loc 1 46 1
 373 0214 03348100 		ld	s0,8(sp)
 374              		.cfi_restore 8
 375              		.cfi_def_cfa 2, 16
 376 0218 13010101 		addi	sp,sp,16
 377              		.cfi_def_cfa_offset 0
 378 021c 67800000 		jr	ra
 379              		.cfi_endproc
 380              	.LFE41:
 382              		.align	2
 383              		.globl	_ZN7_thread8setBlockEb
 385              	_ZN7_thread8setBlockEb:
 386              	.LFB42:
  47:src/_thread.cpp **** 
  48:src/_thread.cpp **** void _thread::setBlock(bool b) {
 387              		.loc 1 48 32 is_stmt 1
 388              		.cfi_startproc
 389              	.LVL32:
 390 0220 130101FF 		addi	sp,sp,-16
 391              		.cfi_def_cfa_offset 16
 392 0224 23348100 		sd	s0,8(sp)
 393              		.cfi_offset 8, -8
 394 0228 13040101 		addi	s0,sp,16
 395              		.cfi_def_cfa 8, 0
  49:src/_thread.cpp ****     this->blocked = b;
 396              		.loc 1 49 5
 397              		.loc 1 49 19 is_stmt 0
 398 022c 2305B502 		sb	a1,42(a0)
  50:src/_thread.cpp **** }
 399              		.loc 1 50 1
 400 0230 03348100 		ld	s0,8(sp)
 401              		.cfi_restore 8
 402              		.cfi_def_cfa 2, 16
 403 0234 13010101 		addi	sp,sp,16
 404              		.cfi_def_cfa_offset 0
 405 0238 67800000 		jr	ra
 406              		.cfi_endproc
 407              	.LFE42:
 409              		.globl	_ZN7_thread7runningE
 410              		.bss
 411              		.align	3
 412              		.set	.LANCHOR0,. + 0
 415              	_ZN7_thread7runningE:
 416 0000 00000000 		.zero	8
 416      00000000 
 417              		.text
 418              	.Letext0:
 419              		.file 3 "src/../h/../lib/hw.h"
GAS LISTING /tmp/cc8IF16X.s 			page 11


 420              		.file 4 "src/../h/scheduler.hpp"
 421              		.file 5 "src/../h/riscv.hpp"
 422              		.file 6 "src/../h/syscall_c.hpp"
 423              		.file 7 "src/../test/printing.hpp"
 3025              		.align	3
 3028              	DW.ref.__gxx_personality_v0:
 3029 0000 00000000 		.dword	__gxx_personality_v0
 3029      00000000 
 3030              		.ident	"GCC: (Ubuntu 9.4.0-1ubuntu1~20.04) 9.4.0"
 3031              		.section	.note.GNU-stack,"",@progbits
GAS LISTING /tmp/cc8IF16X.s 			page 12


DEFINED SYMBOLS
                            *ABS*:0000000000000000 _thread.cpp
     /tmp/cc8IF16X.s:9      .text:0000000000000000 _ZN7_thread13threadWrapperEv
     /tmp/cc8IF16X.s:13     .text:0000000000000000 .L0 
     /tmp/cc8IF16X.s:14     .text:0000000000000000 .L0 
     /tmp/cc8IF16X.s:15     .text:0000000000000004 .L0 
     /tmp/cc8IF16X.s:18     .text:000000000000000c .L0 
     /tmp/cc8IF16X.s:19     .text:000000000000000c .L0 
     /tmp/cc8IF16X.s:21     .text:0000000000000010 .L0 
     /tmp/cc8IF16X.s:23     .text:0000000000000010 .L0 
     /tmp/cc8IF16X.s:24     .text:0000000000000010 .L0 
     /tmp/cc8IF16X.s:28     .text:0000000000000018 .L0 
     /tmp/cc8IF16X.s:29     .text:0000000000000018 .L0 
     /tmp/cc8IF16X.s:30     .text:0000000000000018 .L0 
     /tmp/cc8IF16X.s:36     .text:0000000000000020 .L0 
     /tmp/cc8IF16X.s:37     .text:0000000000000020 .L0 
     /tmp/cc8IF16X.s:42     .text:0000000000000024 .L0 
     /tmp/cc8IF16X.s:44     .text:0000000000000028 .L0 
     /tmp/cc8IF16X.s:45     .text:0000000000000028 .L0 
     /tmp/cc8IF16X.s:48     .text:0000000000000030 .L0 
     /tmp/cc8IF16X.s:51     .text:0000000000000034 .L0 
     /tmp/cc8IF16X.s:52     .text:0000000000000034 .L0 
     /tmp/cc8IF16X.s:54     .text:0000000000000038 .L0 
     /tmp/cc8IF16X.s:58     .text:0000000000000040 .L0 
     /tmp/cc8IF16X.s:59     .text:0000000000000040 .L0 
     /tmp/cc8IF16X.s:62     .text:0000000000000048 .L0 
     /tmp/cc8IF16X.s:63     .text:000000000000004c .L0 
     /tmp/cc8IF16X.s:65     .text:0000000000000050 .L0 
     /tmp/cc8IF16X.s:66     .text:0000000000000050 .L0 
     /tmp/cc8IF16X.s:68     .text:0000000000000054 .L0 
     /tmp/cc8IF16X.s:70     .text:0000000000000058 .L0 
     /tmp/cc8IF16X.s:76     .text:0000000000000058 _ZN7_thread12createThreadEPFvPvES0_
     /tmp/cc8IF16X.s:79     .text:0000000000000058 .L0 
     /tmp/cc8IF16X.s:3028   .data.rel.local.DW.ref.__gxx_personality_v0:0000000000000000 DW.ref.__gxx_personality_v0
     /tmp/cc8IF16X.s:83     .text:0000000000000058 .L0 
     /tmp/cc8IF16X.s:84     .text:000000000000005c .L0 
     /tmp/cc8IF16X.s:90     .text:0000000000000070 .L0 
     /tmp/cc8IF16X.s:91     .text:0000000000000070 .L0 
     /tmp/cc8IF16X.s:92     .text:0000000000000070 .L0 
     /tmp/cc8IF16X.s:93     .text:0000000000000070 .L0 
     /tmp/cc8IF16X.s:94     .text:0000000000000070 .L0 
     /tmp/cc8IF16X.s:96     .text:0000000000000074 .L0 
     /tmp/cc8IF16X.s:100    .text:000000000000007c .L0 
     /tmp/cc8IF16X.s:101    .text:000000000000007c .L0 
     /tmp/cc8IF16X.s:112    .text:000000000000008c .L0 
     /tmp/cc8IF16X.s:115    .text:0000000000000094 .L0 
     /tmp/cc8IF16X.s:117    .text:0000000000000098 .L0 
     /tmp/cc8IF16X.s:124    .text:00000000000000a8 .L0 
     /tmp/cc8IF16X.s:127    .text:00000000000000ac .L0 
     /tmp/cc8IF16X.s:131    .text:00000000000000bc .L0 
     /tmp/cc8IF16X.s:133    .text:00000000000000c0 .L0 
     /tmp/cc8IF16X.s:137    .text:00000000000000c8 .L0 
     /tmp/cc8IF16X.s:144    .text:00000000000000e0 .L0 
     /tmp/cc8IF16X.s:146    .text:00000000000000e4 .L0 
     /tmp/cc8IF16X.s:147    .text:00000000000000e4 .L0 
     /tmp/cc8IF16X.s:154    .text:00000000000000f4 .L0 
     /tmp/cc8IF16X.s:162    .text:0000000000000100 .L0 
GAS LISTING /tmp/cc8IF16X.s 			page 13


     /tmp/cc8IF16X.s:172    .text:0000000000000118 .L0 
     /tmp/cc8IF16X.s:174    .text:0000000000000120 .L0 
     /tmp/cc8IF16X.s:176    .text:0000000000000124 .L0 
     /tmp/cc8IF16X.s:177    .text:0000000000000124 .L0 
     /tmp/cc8IF16X.s:179    .text:0000000000000128 .L0 
     /tmp/cc8IF16X.s:182    .text:000000000000012c .L0 
     /tmp/cc8IF16X.s:185    .text:0000000000000130 .L0 
     /tmp/cc8IF16X.s:188    .text:0000000000000134 .L0 
     /tmp/cc8IF16X.s:190    .text:0000000000000138 .L0 
     /tmp/cc8IF16X.s:221    .text:0000000000000138 _ZN7_thread8dispatchEv
     /tmp/cc8IF16X.s:224    .text:0000000000000138 .L0 
     /tmp/cc8IF16X.s:225    .text:0000000000000138 .L0 
     /tmp/cc8IF16X.s:226    .text:000000000000013c .L0 
     /tmp/cc8IF16X.s:230    .text:0000000000000148 .L0 
     /tmp/cc8IF16X.s:231    .text:0000000000000148 .L0 
     /tmp/cc8IF16X.s:232    .text:0000000000000148 .L0 
     /tmp/cc8IF16X.s:234    .text:000000000000014c .L0 
     /tmp/cc8IF16X.s:236    .text:000000000000014c .L0 
     /tmp/cc8IF16X.s:237    .text:000000000000014c .L0 
     /tmp/cc8IF16X.s:242    .text:0000000000000154 .L0 
     /tmp/cc8IF16X.s:243    .text:0000000000000154 .L0 
     /tmp/cc8IF16X.s:244    .text:0000000000000154 .L0 
     /tmp/cc8IF16X.s:249    .text:0000000000000158 .L0 
     /tmp/cc8IF16X.s:254    .text:000000000000015c .L0 
     /tmp/cc8IF16X.s:255    .text:000000000000015c .L0 
     /tmp/cc8IF16X.s:260    .text:0000000000000160 .L0 
     /tmp/cc8IF16X.s:263    .text:0000000000000164 .L0 
     /tmp/cc8IF16X.s:264    .text:0000000000000164 .L0 
     /tmp/cc8IF16X.s:267    .text:000000000000016c .L0 
     /tmp/cc8IF16X.s:269    .text:0000000000000174 .L0 
     /tmp/cc8IF16X.s:272    .text:0000000000000178 .L0 
     /tmp/cc8IF16X.s:273    .text:0000000000000178 .L0 
     /tmp/cc8IF16X.s:279    .text:0000000000000190 .L0 
     /tmp/cc8IF16X.s:280    .text:0000000000000194 .L0 
     /tmp/cc8IF16X.s:281    .text:0000000000000194 .L0 
     /tmp/cc8IF16X.s:283    .text:0000000000000198 .L0 
     /tmp/cc8IF16X.s:284    .text:0000000000000198 .L0 
     /tmp/cc8IF16X.s:286    .text:000000000000019c .L0 
     /tmp/cc8IF16X.s:289    .text:00000000000001a0 .L0 
     /tmp/cc8IF16X.s:293    .text:00000000000001a4 .L0 
     /tmp/cc8IF16X.s:295    .text:00000000000001a4 .L0 
     /tmp/cc8IF16X.s:296    .text:00000000000001a4 .L0 
     /tmp/cc8IF16X.s:302    .text:00000000000001b4 .L0 
     /tmp/cc8IF16X.s:303    .text:00000000000001b4 .L0 
     /tmp/cc8IF16X.s:307    .text:00000000000001c8 .L0 
     /tmp/cc8IF16X.s:313    .text:00000000000001c8 _ZN7_thread10exitThreadEv
     /tmp/cc8IF16X.s:316    .text:00000000000001c8 .L0 
     /tmp/cc8IF16X.s:317    .text:00000000000001c8 .L0 
     /tmp/cc8IF16X.s:318    .text:00000000000001cc .L0 
     /tmp/cc8IF16X.s:321    .text:00000000000001d4 .L0 
     /tmp/cc8IF16X.s:322    .text:00000000000001d4 .L0 
     /tmp/cc8IF16X.s:324    .text:00000000000001d8 .L0 
     /tmp/cc8IF16X.s:329    .text:00000000000001d8 .L0 
     /tmp/cc8IF16X.s:330    .text:00000000000001d8 .L0 
     /tmp/cc8IF16X.s:331    .text:00000000000001d8 .L0 
     /tmp/cc8IF16X.s:338    .text:00000000000001e8 .L0 
     /tmp/cc8IF16X.s:339    .text:00000000000001e8 .L0 
GAS LISTING /tmp/cc8IF16X.s 			page 14


     /tmp/cc8IF16X.s:342    .text:00000000000001f0 .L0 
     /tmp/cc8IF16X.s:343    .text:00000000000001f0 .L0 
     /tmp/cc8IF16X.s:345    .text:00000000000001f8 .L0 
     /tmp/cc8IF16X.s:347    .text:00000000000001fc .L0 
     /tmp/cc8IF16X.s:348    .text:00000000000001fc .L0 
     /tmp/cc8IF16X.s:350    .text:0000000000000200 .L0 
     /tmp/cc8IF16X.s:352    .text:0000000000000204 .L0 
     /tmp/cc8IF16X.s:358    .text:0000000000000204 _ZN7_thread8setStartEb
     /tmp/cc8IF16X.s:361    .text:0000000000000204 .L0 
     /tmp/cc8IF16X.s:363    .text:0000000000000204 .L0 
     /tmp/cc8IF16X.s:364    .text:0000000000000208 .L0 
     /tmp/cc8IF16X.s:366    .text:000000000000020c .L0 
     /tmp/cc8IF16X.s:368    .text:0000000000000210 .L0 
     /tmp/cc8IF16X.s:370    .text:0000000000000210 .L0 
     /tmp/cc8IF16X.s:371    .text:0000000000000210 .L0 
     /tmp/cc8IF16X.s:373    .text:0000000000000214 .L0 
     /tmp/cc8IF16X.s:374    .text:0000000000000218 .L0 
     /tmp/cc8IF16X.s:375    .text:0000000000000218 .L0 
     /tmp/cc8IF16X.s:377    .text:000000000000021c .L0 
     /tmp/cc8IF16X.s:379    .text:0000000000000220 .L0 
     /tmp/cc8IF16X.s:385    .text:0000000000000220 _ZN7_thread8setBlockEb
     /tmp/cc8IF16X.s:388    .text:0000000000000220 .L0 
     /tmp/cc8IF16X.s:390    .text:0000000000000220 .L0 
     /tmp/cc8IF16X.s:391    .text:0000000000000224 .L0 
     /tmp/cc8IF16X.s:393    .text:0000000000000228 .L0 
     /tmp/cc8IF16X.s:395    .text:000000000000022c .L0 
     /tmp/cc8IF16X.s:397    .text:000000000000022c .L0 
     /tmp/cc8IF16X.s:398    .text:000000000000022c .L0 
     /tmp/cc8IF16X.s:400    .text:0000000000000230 .L0 
     /tmp/cc8IF16X.s:401    .text:0000000000000234 .L0 
     /tmp/cc8IF16X.s:402    .text:0000000000000234 .L0 
     /tmp/cc8IF16X.s:404    .text:0000000000000238 .L0 
     /tmp/cc8IF16X.s:406    .text:000000000000023c .L0 
     /tmp/cc8IF16X.s:415    .bss:0000000000000000 _ZN7_thread7runningE
     /tmp/cc8IF16X.s:412    .bss:0000000000000000 .LANCHOR0
     /tmp/cc8IF16X.s:424    .text:000000000000023c .L0 
     /tmp/cc8IF16X.s:30     .text:0000000000000018 .L0 
     /tmp/cc8IF16X.s:128    .text:00000000000000b0 .L0 
     /tmp/cc8IF16X.s:237    .text:000000000000014c .L0 
     /tmp/cc8IF16X.s:267    .text:000000000000016c .L0 
     /tmp/cc8IF16X.s:273    .text:0000000000000178 .L0 
     /tmp/cc8IF16X.s:215    .rodata.str1.8:0000000000000000 .LC0
     /tmp/cc8IF16X.s:303    .text:00000000000001b4 .L0 
     /tmp/cc8IF16X.s:331    .text:00000000000001d8 .L0 
     /tmp/cc8IF16X.s:49     .text:0000000000000034 .L2
     /tmp/cc8IF16X.s:26     .text:0000000000000018 .L3
     /tmp/cc8IF16X.s:122    .text:00000000000000a8 .L10
     /tmp/cc8IF16X.s:125    .text:00000000000000ac .L6
     /tmp/cc8IF16X.s:152    .text:00000000000000f4 .L11
     /tmp/cc8IF16X.s:170    .text:0000000000000118 .L5
     /tmp/cc8IF16X.s:135    .text:00000000000000c8 .L7
     /tmp/cc8IF16X.s:261    .text:0000000000000164 .L15
     /tmp/cc8IF16X.s:292    .text:00000000000001a4 .L18
     /tmp/cc8IF16X.s:300    .text:00000000000001b4 .L19
     /tmp/cc8IF16X.s:270    .text:0000000000000178 .L16
     /tmp/cc8IF16X.s:103    .text:0000000000000080 .LEHB0
     /tmp/cc8IF16X.s:77     .text:0000000000000058 .LFB37
GAS LISTING /tmp/cc8IF16X.s 			page 15


     /tmp/cc8IF16X.s:106    .text:0000000000000088 .LEHE0
     /tmp/cc8IF16X.s:118    .text:000000000000009c .LEHB1
     /tmp/cc8IF16X.s:150    .text:00000000000000f0 .LEHE1
     /tmp/cc8IF16X.s:156    .text:00000000000000fc .L12
     /tmp/cc8IF16X.s:166    .text:0000000000000110 .LEHB2
     /tmp/cc8IF16X.s:169    .text:0000000000000118 .LEHE2
     /tmp/cc8IF16X.s:1656   .debug_abbrev:0000000000000000 .Ldebug_abbrev0
     /tmp/cc8IF16X.s:2972   .debug_str:0000000000000720 .LASF132
     /tmp/cc8IF16X.s:2994   .debug_str:00000000000008a5 .LASF133
     /tmp/cc8IF16X.s:2818   .debug_str:0000000000000264 .LASF134
     /tmp/cc8IF16X.s:5      .text:0000000000000000 .Ltext0
     /tmp/cc8IF16X.s:418    .text:000000000000023c .Letext0
     /tmp/cc8IF16X.s:2730   .debug_line:0000000000000000 .Ldebug_line0
     /tmp/cc8IF16X.s:2894   .debug_str:00000000000004ca .LASF0
     /tmp/cc8IF16X.s:2906   .debug_str:00000000000004fa .LASF1
     /tmp/cc8IF16X.s:2882   .debug_str:0000000000000484 .LASF2
     /tmp/cc8IF16X.s:2804   .debug_str:0000000000000212 .LASF3
     /tmp/cc8IF16X.s:2850   .debug_str:000000000000035f .LASF4
     /tmp/cc8IF16X.s:2942   .debug_str:0000000000000616 .LASF5
     /tmp/cc8IF16X.s:2762   .debug_str:00000000000000a8 .LASF6
     /tmp/cc8IF16X.s:2910   .debug_str:000000000000051e .LASF7
     /tmp/cc8IF16X.s:2892   .debug_str:00000000000004b7 .LASF8
     /tmp/cc8IF16X.s:2988   .debug_str:0000000000000876 .LASF9
     /tmp/cc8IF16X.s:2830   .debug_str:00000000000002ca .LASF10
     /tmp/cc8IF16X.s:2922   .debug_str:0000000000000580 .LASF11
     /tmp/cc8IF16X.s:2976   .debug_str:00000000000007fc .LASF12
     /tmp/cc8IF16X.s:2766   .debug_str:00000000000000b8 .LASF13
     /tmp/cc8IF16X.s:2740   .debug_str:0000000000000033 .LASF14
     /tmp/cc8IF16X.s:2780   .debug_str:0000000000000122 .LASF15
     /tmp/cc8IF16X.s:2934   .debug_str:00000000000005d2 .LASF16
     /tmp/cc8IF16X.s:2792   .debug_str:000000000000018a .LASF17
     /tmp/cc8IF16X.s:2918   .debug_str:0000000000000562 .LASF18
     /tmp/cc8IF16X.s:2820   .debug_str:0000000000000282 .LASF114
     /tmp/cc8IF16X.s:2842   .debug_str:000000000000032d .LASF135
     /tmp/cc8IF16X.s:2984   .debug_str:0000000000000843 .LASF136
     /tmp/cc8IF16X.s:2856   .debug_str:0000000000000390 .LASF137
     /tmp/cc8IF16X.s:2846   .debug_str:000000000000034d .LASF19
     /tmp/cc8IF16X.s:2748   .debug_str:000000000000005f .LASF138
     /tmp/cc8IF16X.s:2978   .debug_str:000000000000080b .LASF20
     /tmp/cc8IF16X.s:2914   .debug_str:000000000000053c .LASF22
     /tmp/cc8IF16X.s:2912   .debug_str:0000000000000531 .LASF29
     /tmp/cc8IF16X.s:2878   .debug_str:0000000000000454 .LASF31
     /tmp/cc8IF16X.s:2884   .debug_str:0000000000000492 .LASF21
     /tmp/cc8IF16X.s:2876   .debug_str:0000000000000439 .LASF23
     /tmp/cc8IF16X.s:2862   .debug_str:00000000000003b1 .LASF24
     /tmp/cc8IF16X.s:3004   .debug_str:00000000000008fb .LASF25
     /tmp/cc8IF16X.s:2930   .debug_str:00000000000005c2 .LASF139
     /tmp/cc8IF16X.s:2936   .debug_str:00000000000005e8 .LASF70
     /tmp/cc8IF16X.s:2966   .debug_str:00000000000006e4 .LASF72
     /tmp/cc8IF16X.s:2810   .debug_str:000000000000023b .LASF140
     /tmp/cc8IF16X.s:2924   .debug_str:000000000000058f .LASF26
     /tmp/cc8IF16X.s:2808   .debug_str:0000000000000221 .LASF75
     /tmp/cc8IF16X.s:2744   .debug_str:000000000000004c .LASF27
     /tmp/cc8IF16X.s:2986   .debug_str:000000000000085f .LASF28
     /tmp/cc8IF16X.s:2778   .debug_str:0000000000000118 .LASF30
     /tmp/cc8IF16X.s:2866   .debug_str:00000000000003cc .LASF32
     /tmp/cc8IF16X.s:2836   .debug_str:000000000000030b .LASF33
GAS LISTING /tmp/cc8IF16X.s 			page 16


     /tmp/cc8IF16X.s:2970   .debug_str:0000000000000709 .LASF34
     /tmp/cc8IF16X.s:2746   .debug_str:0000000000000055 .LASF35
     /tmp/cc8IF16X.s:2772   .debug_str:00000000000000dd .LASF36
     /tmp/cc8IF16X.s:2962   .debug_str:00000000000006c0 .LASF37
     /tmp/cc8IF16X.s:2798   .debug_str:00000000000001c1 .LASF38
     /tmp/cc8IF16X.s:3016   .debug_str:0000000000000962 .LASF39
     /tmp/cc8IF16X.s:2982   .debug_str:0000000000000826 .LASF40
     /tmp/cc8IF16X.s:2992   .debug_str:000000000000088d .LASF78
     /tmp/cc8IF16X.s:2770   .debug_str:00000000000000d8 .LASF41
     /tmp/cc8IF16X.s:2902   .debug_str:00000000000004ed .LASF42
     /tmp/cc8IF16X.s:2900   .debug_str:00000000000004e7 .LASF43
     /tmp/cc8IF16X.s:2860   .debug_str:00000000000003a9 .LASF44
     /tmp/cc8IF16X.s:2854   .debug_str:0000000000000387 .LASF45
     /tmp/cc8IF16X.s:2904   .debug_str:00000000000004f2 .LASF46
     /tmp/cc8IF16X.s:2734   .debug_str:0000000000000019 .LASF47
     /tmp/cc8IF16X.s:2738   .debug_str:0000000000000029 .LASF48
     /tmp/cc8IF16X.s:2864   .debug_str:00000000000003be .LASF50
     /tmp/cc8IF16X.s:2834   .debug_str:00000000000002ee .LASF52
     /tmp/cc8IF16X.s:2998   .debug_str:00000000000008ca .LASF49
     /tmp/cc8IF16X.s:2872   .debug_str:00000000000003fd .LASF141
     /tmp/cc8IF16X.s:2898   .debug_str:00000000000004de .LASF51
     /tmp/cc8IF16X.s:2964   .debug_str:00000000000006cd .LASF53
     /tmp/cc8IF16X.s:2816   .debug_str:000000000000025f .LASF54
     /tmp/cc8IF16X.s:2874   .debug_str:0000000000000429 .LASF55
     /tmp/cc8IF16X.s:2768   .debug_str:00000000000000c8 .LASF56
     /tmp/cc8IF16X.s:2944   .debug_str:0000000000000628 .LASF57
     /tmp/cc8IF16X.s:2782   .debug_str:000000000000012e .LASF58
     /tmp/cc8IF16X.s:2852   .debug_str:0000000000000366 .LASF59
     /tmp/cc8IF16X.s:2920   .debug_str:000000000000056c .LASF60
     /tmp/cc8IF16X.s:2868   .debug_str:00000000000003e5 .LASF61
     /tmp/cc8IF16X.s:2826   .debug_str:00000000000002ae .LASF62
     /tmp/cc8IF16X.s:3002   .debug_str:00000000000008ec .LASF63
     /tmp/cc8IF16X.s:2946   .debug_str:0000000000000637 .LASF64
     /tmp/cc8IF16X.s:3008   .debug_str:000000000000092a .LASF65
     /tmp/cc8IF16X.s:2968   .debug_str:00000000000006f8 .LASF66
     /tmp/cc8IF16X.s:2756   .debug_str:0000000000000083 .LASF67
     /tmp/cc8IF16X.s:3006   .debug_str:000000000000091f .LASF68
     /tmp/cc8IF16X.s:2784   .debug_str:0000000000000147 .LASF69
     /tmp/cc8IF16X.s:2932   .debug_str:00000000000005c7 .LASF71
     /tmp/cc8IF16X.s:3012   .debug_str:000000000000093e .LASF73
     /tmp/cc8IF16X.s:2742   .debug_str:0000000000000043 .LASF74
     /tmp/cc8IF16X.s:2956   .debug_str:0000000000000680 .LASF76
     /tmp/cc8IF16X.s:2806   .debug_str:0000000000000218 .LASF77
     /tmp/cc8IF16X.s:2788   .debug_str:000000000000015d .LASF79
     /tmp/cc8IF16X.s:2886   .debug_str:000000000000049e .LASF80
     /tmp/cc8IF16X.s:2928   .debug_str:00000000000005af .LASF81
     /tmp/cc8IF16X.s:2990   .debug_str:0000000000000886 .LASF82
     /tmp/cc8IF16X.s:2960   .debug_str:00000000000006ad .LASF83
     /tmp/cc8IF16X.s:2824   .debug_str:00000000000002a6 .LASF84
     /tmp/cc8IF16X.s:2794   .debug_str:00000000000001a0 .LASF85
     /tmp/cc8IF16X.s:2736   .debug_str:0000000000000021 .LASF86
     /tmp/cc8IF16X.s:2948   .debug_str:0000000000000647 .LASF87
     /tmp/cc8IF16X.s:2812   .debug_str:0000000000000243 .LASF88
     /tmp/cc8IF16X.s:3000   .debug_str:00000000000008d8 .LASF89
     /tmp/cc8IF16X.s:3018   .debug_str:000000000000096f .LASF90
     /tmp/cc8IF16X.s:2814   .debug_str:000000000000024b .LASF91
     /tmp/cc8IF16X.s:2896   .debug_str:00000000000004d7 .LASF92
GAS LISTING /tmp/cc8IF16X.s 			page 17


     /tmp/cc8IF16X.s:2760   .debug_str:0000000000000095 .LASF93
     /tmp/cc8IF16X.s:2758   .debug_str:000000000000008e .LASF94
     /tmp/cc8IF16X.s:2822   .debug_str:0000000000000293 .LASF95
     /tmp/cc8IF16X.s:2828   .debug_str:00000000000002c4 .LASF96
     /tmp/cc8IF16X.s:2980   .debug_str:0000000000000814 .LASF97
     /tmp/cc8IF16X.s:2754   .debug_str:000000000000007d .LASF98
     /tmp/cc8IF16X.s:3020   .debug_str:0000000000000977 .LASF99
     /tmp/cc8IF16X.s:2890   .debug_str:00000000000004ac .LASF100
     /tmp/cc8IF16X.s:2940   .debug_str:00000000000005fe .LASF101
     /tmp/cc8IF16X.s:2858   .debug_str:000000000000039e .LASF102
     /tmp/cc8IF16X.s:2958   .debug_str:0000000000000695 .LASF103
     /tmp/cc8IF16X.s:2838   .debug_str:0000000000000314 .LASF104
     /tmp/cc8IF16X.s:2916   .debug_str:000000000000054c .LASF105
     /tmp/cc8IF16X.s:2750   .debug_str:0000000000000067 .LASF106
     /tmp/cc8IF16X.s:2832   .debug_str:00000000000002d8 .LASF107
     /tmp/cc8IF16X.s:2950   .debug_str:000000000000065b .LASF108
     /tmp/cc8IF16X.s:2774   .debug_str:00000000000000f6 .LASF109
     /tmp/cc8IF16X.s:2844   .debug_str:0000000000000341 .LASF110
     /tmp/cc8IF16X.s:2732   .debug_str:0000000000000000 .LASF111
     /tmp/cc8IF16X.s:2996   .debug_str:00000000000008b5 .LASF112
     /tmp/cc8IF16X.s:2800   .debug_str:00000000000001dd .LASF113
     /tmp/cc8IF16X.s:2764   .debug_str:00000000000000af .LASF115
     /tmp/cc8IF16X.s:2880   .debug_str:000000000000046f .LASF142
     /tmp/cc8IF16X.s:386    .text:0000000000000220 .LFB42
     /tmp/cc8IF16X.s:407    .text:000000000000023c .LFE42
     /tmp/cc8IF16X.s:3010   .debug_str:0000000000000939 .LASF116
     /tmp/cc8IF16X.s:359    .text:0000000000000204 .LFB41
     /tmp/cc8IF16X.s:380    .text:0000000000000220 .LFE41
     /tmp/cc8IF16X.s:314    .text:00000000000001c8 .LFB40
     /tmp/cc8IF16X.s:353    .text:0000000000000204 .LFE40
     /tmp/cc8IF16X.s:327    .text:00000000000001d8 .LBB21
     /tmp/cc8IF16X.s:336    .text:00000000000001e8 .LBE21
     /tmp/cc8IF16X.s:2572   .debug_loc:0000000000000000 .LLST9
     /tmp/cc8IF16X.s:2580   .debug_loc:0000000000000024 .LLST10
     /tmp/cc8IF16X.s:340    .text:00000000000001f0 .LVL30
     /tmp/cc8IF16X.s:10     .text:0000000000000000 .LFB39
     /tmp/cc8IF16X.s:71     .text:0000000000000058 .LFE39
     /tmp/cc8IF16X.s:32     .text:0000000000000020 .LBB10
     /tmp/cc8IF16X.s:40     .text:0000000000000024 .LBE10
     /tmp/cc8IF16X.s:2588   .debug_loc:000000000000004f .LLST0
     /tmp/cc8IF16X.s:25     .text:0000000000000018 .LVL0
     /tmp/cc8IF16X.s:46     .text:0000000000000030 .LVL3
     /tmp/cc8IF16X.s:60     .text:0000000000000048 .LVL5
     /tmp/cc8IF16X.s:222    .text:0000000000000138 .LFB38
     /tmp/cc8IF16X.s:308    .text:00000000000001c8 .LFE38
     /tmp/cc8IF16X.s:2595   .debug_loc:0000000000000072 .LLST6
     /tmp/cc8IF16X.s:240    .text:0000000000000154 .LBB17
     /tmp/cc8IF16X.s:247    .text:0000000000000158 .LBE17
     /tmp/cc8IF16X.s:2606   .debug_loc:00000000000000a8 .LLST7
     /tmp/cc8IF16X.s:251    .text:000000000000015c .LBB19
     /tmp/cc8IF16X.s:258    .text:0000000000000160 .LBE19
     /tmp/cc8IF16X.s:2613   .debug_loc:00000000000000cb .LLST8
     /tmp/cc8IF16X.s:265    .text:000000000000016c .LVL22
     /tmp/cc8IF16X.s:277    .text:0000000000000190 .LVL23
     /tmp/cc8IF16X.s:298    .text:00000000000001b0 .LVL26
     /tmp/cc8IF16X.s:305    .text:00000000000001c4 .LVL27
     /tmp/cc8IF16X.s:191    .text:0000000000000138 .LFE37
GAS LISTING /tmp/cc8IF16X.s 			page 18


     /tmp/cc8IF16X.s:2620   .debug_loc:00000000000000ee .LLST1
     /tmp/cc8IF16X.s:2649   .debug_loc:0000000000000163 .LLST2
     /tmp/cc8IF16X.s:2848   .debug_str:0000000000000355 .LASF143
     /tmp/cc8IF16X.s:109    .text:000000000000008c .LBB15
     /tmp/cc8IF16X.s:160    .text:0000000000000100 .LBE15
     /tmp/cc8IF16X.s:2667   .debug_loc:00000000000001af .LLST3
     /tmp/cc8IF16X.s:2681   .debug_loc:00000000000001e8 .LLST4
     /tmp/cc8IF16X.s:2706   .debug_loc:000000000000024a .LLST5
     /tmp/cc8IF16X.s:120    .text:00000000000000a4 .LVL10
     /tmp/cc8IF16X.s:149    .text:00000000000000f0 .LVL11
     /tmp/cc8IF16X.s:105    .text:0000000000000088 .LVL8
     /tmp/cc8IF16X.s:164    .text:000000000000010c .LVL13
     /tmp/cc8IF16X.s:168    .text:0000000000000118 .LVL14
     /tmp/cc8IF16X.s:2974   .debug_str:00000000000007e4 .LASF144
     /tmp/cc8IF16X.s:2776   .debug_str:0000000000000112 .LASF117
     /tmp/cc8IF16X.s:2926   .debug_str:000000000000059a .LASF118
     /tmp/cc8IF16X.s:2786   .debug_str:000000000000014d .LASF120
     /tmp/cc8IF16X.s:2908   .debug_str:000000000000050d .LASF119
     /tmp/cc8IF16X.s:2752   .debug_str:0000000000000071 .LASF121
     /tmp/cc8IF16X.s:2802   .debug_str:00000000000001ff .LASF122
     /tmp/cc8IF16X.s:3014   .debug_str:0000000000000956 .LASF123
     /tmp/cc8IF16X.s:2954   .debug_str:000000000000067a .LASF124
     /tmp/cc8IF16X.s:2938   .debug_str:00000000000005ee .LASF126
     /tmp/cc8IF16X.s:2870   .debug_str:00000000000003f7 .LASF125
     /tmp/cc8IF16X.s:2796   .debug_str:00000000000001b4 .LASF127
     /tmp/cc8IF16X.s:2888   .debug_str:00000000000004a5 .LASF128
     /tmp/cc8IF16X.s:2952   .debug_str:000000000000066a .LASF129
     /tmp/cc8IF16X.s:2840   .debug_str:000000000000031e .LASF130
     /tmp/cc8IF16X.s:2790   .debug_str:0000000000000172 .LASF131
     /tmp/cc8IF16X.s:326    .text:00000000000001d8 .LVL28
     /tmp/cc8IF16X.s:334    .text:00000000000001e8 .LVL29
     /tmp/cc8IF16X.s:31     .text:0000000000000020 .LVL1
     /tmp/cc8IF16X.s:38     .text:0000000000000024 .LVL2
     /tmp/cc8IF16X.s:238    .text:0000000000000154 .LVL18
     /tmp/cc8IF16X.s:287    .text:000000000000019c .LVL24
     /tmp/cc8IF16X.s:291    .text:00000000000001a4 .LVL25
     /tmp/cc8IF16X.s:245    .text:0000000000000158 .LVL19
     /tmp/cc8IF16X.s:250    .text:000000000000015c .LVL20
     /tmp/cc8IF16X.s:256    .text:0000000000000160 .LVL21
     /tmp/cc8IF16X.s:82     .text:0000000000000058 .LVL6
     /tmp/cc8IF16X.s:102    .text:0000000000000080 .LVL7
     /tmp/cc8IF16X.s:158    .text:0000000000000100 .LVL12
     /tmp/cc8IF16X.s:183    .text:000000000000012c .LVL16
     /tmp/cc8IF16X.s:186    .text:0000000000000130 .LVL17
     /tmp/cc8IF16X.s:108    .text:000000000000008c .LVL9
     /tmp/cc8IF16X.s:180    .text:0000000000000128 .LVL15
     /tmp/cc8IF16X.s:425    .debug_info:0000000000000000 .Ldebug_info0
     /tmp/cc8IF16X.s:194    .gcc_except_table:0000000000000000 .LLSDA37

UNDEFINED SYMBOLS
_ZN5Riscv10popSppSpieEv
_Z15thread_dispatchv
_Z11thread_exitv
_Znwm
_Znam
_ZN9Scheduler3putEP7_thread
_ZdlPv
GAS LISTING /tmp/cc8IF16X.s 			page 19


_Unwind_Resume
__gxx_personality_v0
_ZN9Scheduler3getEv
_ZN7_thread13contextSwitchEPNS_7ContextES1_
_Z11printStringPKc
