GAS LISTING /tmp/ccClLAoX.s 			page 1


   1              		.file	"_thread.cpp"
   2              		.option pic
   3              		.option norelax
   4              		.text
   5              	.Ltext0:
   6              		.align	2
   7              		.globl	_ZN7_thread12createThreadEPFvvEPv
   9              	_ZN7_thread12createThreadEPFvvEPv:
  10              	.LFB32:
  11              		.file 1 "src/_thread.cpp"
   1:src/_thread.cpp **** 
   2:src/_thread.cpp **** 
   3:src/_thread.cpp **** #include "../h/_thread.hpp"
   4:src/_thread.cpp **** #include "../h/riscv.hpp"
   5:src/_thread.cpp **** 
   6:src/_thread.cpp **** _thread *_thread::running = nullptr;
   7:src/_thread.cpp **** 
   8:src/_thread.cpp **** 
   9:src/_thread.cpp **** _thread *_thread::createThread(Body body, void* args)
  10:src/_thread.cpp **** {
  12              		.loc 1 10 1
  13              		.cfi_startproc
  14              		.cfi_personality 0x9b,DW.ref.__gxx_personality_v0
  15              		.cfi_lsda 0x1b,.LLSDA32
  16              	.LVL0:
  17 0000 130101FD 		addi	sp,sp,-48
  18              		.cfi_def_cfa_offset 48
  19 0004 23341102 		sd	ra,40(sp)
  20 0008 23308102 		sd	s0,32(sp)
  21 000c 233C9100 		sd	s1,24(sp)
  22 0010 23382101 		sd	s2,16(sp)
  23 0014 23343101 		sd	s3,8(sp)
  24              		.cfi_offset 1, -8
  25              		.cfi_offset 8, -16
  26              		.cfi_offset 9, -24
  27              		.cfi_offset 18, -32
  28              		.cfi_offset 19, -40
  29 0018 13040103 		addi	s0,sp,48
  30              		.cfi_def_cfa 8, 0
  31 001c 13090500 		mv	s2,a0
  32 0020 93890500 		mv	s3,a1
  11:src/_thread.cpp ****     _thread* newThread = new _thread(body, args);
  33              		.loc 1 11 5
  34              		.loc 1 11 48 is_stmt 0
  35 0024 13058003 		li	a0,56
  36              	.LVL1:
  37              	.LEHB0:
  38 0028 97000000 		call	_Znwm@plt
  38      E7800000 
  39              	.LVL2:
  40              	.LEHE0:
  41 0030 93040500 		mv	s1,a0
  42              	.LVL3:
  43              	.LBB11:
  44              	.LBB12:
  45              		.file 2 "src/../h/_thread.hpp"
   1:src/../h/_thread.hpp **** 
GAS LISTING /tmp/ccClLAoX.s 			page 2


   2:src/../h/_thread.hpp **** 
   3:src/../h/_thread.hpp **** #ifndef OS1_VEZBE07_RISCV_CONTEXT_SWITCH_2_INTERRUPT_TCB_HPP
   4:src/../h/_thread.hpp **** #define OS1_VEZBE07_RISCV_CONTEXT_SWITCH_2_INTERRUPT_TCB_HPP
   5:src/../h/_thread.hpp **** 
   6:src/../h/_thread.hpp **** #include "../lib/hw.h"
   7:src/../h/_thread.hpp **** #include "scheduler.hpp"
   8:src/../h/_thread.hpp **** 
   9:src/../h/_thread.hpp **** typedef _thread* thread_t;
  10:src/../h/_thread.hpp **** 
  11:src/../h/_thread.hpp **** // Thread Control Block
  12:src/../h/_thread.hpp **** class _thread
  13:src/../h/_thread.hpp **** {
  14:src/../h/_thread.hpp **** public:
  15:src/../h/_thread.hpp ****     ~_thread() { delete[] stack; }
  16:src/../h/_thread.hpp **** 
  17:src/../h/_thread.hpp ****     bool isFinished() const { return finished; }
  18:src/../h/_thread.hpp **** 
  19:src/../h/_thread.hpp ****     void setFinished(bool value) { finished = value; }
  20:src/../h/_thread.hpp **** 
  21:src/../h/_thread.hpp ****     using Body = void (*)();
  22:src/../h/_thread.hpp **** 
  23:src/../h/_thread.hpp ****     static _thread *createThread(Body body, void* args);
  24:src/../h/_thread.hpp **** 
  25:src/../h/_thread.hpp ****     static void yield();
  26:src/../h/_thread.hpp **** 
  27:src/../h/_thread.hpp ****     static _thread *running;
  28:src/../h/_thread.hpp **** 
  29:src/../h/_thread.hpp ****     static int exitThread();
  30:src/../h/_thread.hpp **** 
  31:src/../h/_thread.hpp **** private:
  32:src/../h/_thread.hpp ****     _thread(Body body, void* args) :
  33:src/../h/_thread.hpp ****             body(body),
  34:src/../h/_thread.hpp ****             args(args),
  35:src/../h/_thread.hpp ****             stack(body != nullptr ? new uint64[DEFAULT_STACK_SIZE] : nullptr),
  36:src/../h/_thread.hpp ****             context({
  37:src/../h/_thread.hpp ****                 (uint64) &threadWrapper,
  38:src/../h/_thread.hpp ****                 stack != nullptr ? (uint64) &stack[DEFAULT_STACK_SIZE] : 0
  39:src/../h/_thread.hpp ****             }),
  40:src/../h/_thread.hpp ****             finished(false)
  46              		.loc 2 40 27
  47 0034 23302501 		sd	s2,0(a0)
  48 0038 23343501 		sd	s3,8(a0)
  35:src/../h/_thread.hpp ****             context({
  49              		.loc 2 35 35
  50 003c 630A0900 		beqz	s2,.L6
  35:src/../h/_thread.hpp ****             context({
  51              		.loc 2 35 66
  52 0040 37850000 		li	a0,32768
  53              	.LEHB1:
  54 0044 97000000 		call	_Znam@plt
  54      E7800000 
  55              	.LVL4:
  56 004c 6F008000 		j	.L2
  57              	.L6:
  35:src/../h/_thread.hpp ****             context({
  58              		.loc 2 35 35
  59 0050 13050000 		li	a0,0
GAS LISTING /tmp/ccClLAoX.s 			page 3


  60              	.L2:
  61              		.loc 2 40 27
  62 0054 23B8A400 		sd	a0,16(s1)
  63 0058 97070000 		lla	a5,_ZN7_thread13threadWrapperEv
  63      93870700 
  64 0060 23BCF400 		sd	a5,24(s1)
  38:src/../h/_thread.hpp ****             }),
  65              		.loc 2 38 34
  66 0064 63040502 		beqz	a0,.L7
  38:src/../h/_thread.hpp ****             }),
  67              		.loc 2 38 45
  68 0068 B7870000 		li	a5,32768
  69 006c B307F500 		add	a5,a0,a5
  70              	.L3:
  71              		.loc 2 40 27
  72 0070 23B0F402 		sd	a5,32(s1)
  73 0074 23880402 		sb	zero,48(s1)
  41:src/../h/_thread.hpp ****     {
  42:src/../h/_thread.hpp ****         if (body != nullptr) { Scheduler::put(this); }
  74              		.loc 2 42 9 is_stmt 1
  75 0078 630C0902 		beqz	s2,.L1
  76              		.loc 2 42 32
  77              		.loc 2 42 46 is_stmt 0
  78 007c 13850400 		mv	a0,s1
  79 0080 97000000 		call	_ZN9Scheduler3putEP7_thread@plt
  79      E7800000 
  80              	.LVL5:
  81              	.LEHE1:
  82 0088 6F008002 		j	.L1
  83              	.L7:
  38:src/../h/_thread.hpp ****             }),
  84              		.loc 2 38 34
  85 008c 93070000 		li	a5,0
  86 0090 6FF01FFE 		j	.L3
  87              	.L8:
  88 0094 13090500 		mv	s2,a0
  89              	.LVL6:
  90              	.LBE12:
  91              	.LBE11:
  92              		.loc 1 11 48
  93 0098 13850400 		mv	a0,s1
  94 009c 97000000 		call	_ZdlPv@plt
  94      E7800000 
  95              	.LVL7:
  96 00a4 13050900 		mv	a0,s2
  97              	.LEHB2:
  98 00a8 97000000 		call	_Unwind_Resume@plt
  98      E7800000 
  99              	.LVL8:
 100              	.LEHE2:
 101              	.L1:
  12:src/_thread.cpp ****     return newThread;
  13:src/_thread.cpp **** }
 102              		.loc 1 13 1
 103 00b0 13850400 		mv	a0,s1
 104 00b4 83308102 		ld	ra,40(sp)
 105              		.cfi_restore 1
GAS LISTING /tmp/ccClLAoX.s 			page 4


 106 00b8 03340102 		ld	s0,32(sp)
 107              		.cfi_restore 8
 108              		.cfi_def_cfa 2, 48
 109 00bc 83348101 		ld	s1,24(sp)
 110              		.cfi_restore 9
 111              	.LVL9:
 112 00c0 03390101 		ld	s2,16(sp)
 113              		.cfi_restore 18
 114              	.LVL10:
 115 00c4 83398100 		ld	s3,8(sp)
 116              		.cfi_restore 19
 117              	.LVL11:
 118 00c8 13010103 		addi	sp,sp,48
 119              		.cfi_def_cfa_offset 0
 120 00cc 67800000 		jr	ra
 121              		.cfi_endproc
 122              	.LFE32:
 123              		.globl	__gxx_personality_v0
 124              		.section	.gcc_except_table,"a",@progbits
 125              	.LLSDA32:
 126 0000 FF       		.byte	0xff
 127 0001 FF       		.byte	0xff
 128 0002 03       		.byte	0x3
 129 0003 27       		.byte	0x27
 130 0004 00000000 		.4byte	.LEHB0-.LFB32
 131 0008 00000000 		.4byte	.LEHE0-.LEHB0
 132 000c 00000000 		.4byte	0
 133 0010 00       		.byte	0
 134 0011 00000000 		.4byte	.LEHB1-.LFB32
 135 0015 00000000 		.4byte	.LEHE1-.LEHB1
 136 0019 00000000 		.4byte	.L8-.LFB32
 137 001d 00       		.byte	0
 138 001e 00000000 		.4byte	.LEHB2-.LFB32
 139 0022 00000000 		.4byte	.LEHE2-.LEHB2
 140 0026 00000000 		.4byte	0
 141 002a 00       		.byte	0
 142              		.text
 144              		.align	2
 145              		.globl	_ZN7_thread8dispatchEv
 147              	_ZN7_thread8dispatchEv:
 148              	.LFB33:
  14:src/_thread.cpp **** 
  15:src/_thread.cpp **** void _thread::dispatch()
  16:src/_thread.cpp **** {
 149              		.loc 1 16 1 is_stmt 1
 150              		.cfi_startproc
 151 00d0 130101FE 		addi	sp,sp,-32
 152              		.cfi_def_cfa_offset 32
 153 00d4 233C1100 		sd	ra,24(sp)
 154 00d8 23388100 		sd	s0,16(sp)
 155 00dc 23349100 		sd	s1,8(sp)
 156              		.cfi_offset 1, -8
 157              		.cfi_offset 8, -16
 158              		.cfi_offset 9, -24
 159 00e0 13040102 		addi	s0,sp,32
 160              		.cfi_def_cfa 8, 0
  17:src/_thread.cpp ****     _thread *old = running;
GAS LISTING /tmp/ccClLAoX.s 			page 5


 161              		.loc 1 17 5
 162              		.loc 1 17 14 is_stmt 0
 163 00e4 97040000 		ld	s1,.LANCHOR0
 163      83B40400 
 164              	.LVL12:
  18:src/_thread.cpp ****     if (!old->isFinished()) { Scheduler::put(old); }
 165              		.loc 1 18 5 is_stmt 1
 166              	.LBB13:
 167              	.LBB14:
  17:src/../h/_thread.hpp **** 
 168              		.loc 2 17 31
  17:src/../h/_thread.hpp **** 
 169              		.loc 2 17 38 is_stmt 0
 170 00ec 83C70403 		lbu	a5,48(s1)
 171              	.LVL13:
 172              	.LBE14:
 173              	.LBE13:
 174              		.loc 1 18 5
 175 00f0 638C0702 		beqz	a5,.L13
 176              	.L11:
  19:src/_thread.cpp ****     running = Scheduler::get();
 177              		.loc 1 19 5 is_stmt 1
 178              		.loc 1 19 29 is_stmt 0
 179 00f4 97000000 		call	_ZN9Scheduler3getEv@plt
 179      E7800000 
 180              	.LVL14:
 181              		.loc 1 19 13
 182 00fc 97070000 		sd	a0,.LANCHOR0,a5
 182      23B0A700 
  20:src/_thread.cpp **** 
  21:src/_thread.cpp ****     _thread::contextSwitch(&old->context, &running->context);
 183              		.loc 1 21 5 is_stmt 1
 184              		.loc 1 21 27 is_stmt 0
 185 0104 93058501 		addi	a1,a0,24
 186 0108 13858401 		addi	a0,s1,24
 187 010c 97000000 		call	_ZN7_thread13contextSwitchEPNS_7ContextES1_@plt
 187      E7800000 
 188              	.LVL15:
  22:src/_thread.cpp **** }
 189              		.loc 1 22 1
 190 0114 83308101 		ld	ra,24(sp)
 191              		.cfi_remember_state
 192              		.cfi_restore 1
 193 0118 03340101 		ld	s0,16(sp)
 194              		.cfi_restore 8
 195              		.cfi_def_cfa 2, 32
 196 011c 83348100 		ld	s1,8(sp)
 197              		.cfi_restore 9
 198              	.LVL16:
 199 0120 13010102 		addi	sp,sp,32
 200              		.cfi_def_cfa_offset 0
 201 0124 67800000 		jr	ra
 202              	.LVL17:
 203              	.L13:
 204              		.cfi_restore_state
  18:src/_thread.cpp ****     running = Scheduler::get();
 205              		.loc 1 18 31 is_stmt 1 discriminator 1
GAS LISTING /tmp/ccClLAoX.s 			page 6


  18:src/_thread.cpp ****     running = Scheduler::get();
 206              		.loc 1 18 45 is_stmt 0 discriminator 1
 207 0128 13850400 		mv	a0,s1
 208 012c 97000000 		call	_ZN9Scheduler3putEP7_thread@plt
 208      E7800000 
 209              	.LVL18:
 210 0134 6FF01FFC 		j	.L11
 211              		.cfi_endproc
 212              	.LFE33:
 214              		.align	2
 215              		.globl	_ZN7_thread13threadWrapperEv
 217              	_ZN7_thread13threadWrapperEv:
 218              	.LFB34:
  23:src/_thread.cpp **** 
  24:src/_thread.cpp **** void _thread::threadWrapper()
  25:src/_thread.cpp **** {
 219              		.loc 1 25 1 is_stmt 1
 220              		.cfi_startproc
 221 0138 130101FE 		addi	sp,sp,-32
 222              		.cfi_def_cfa_offset 32
 223 013c 233C1100 		sd	ra,24(sp)
 224 0140 23388100 		sd	s0,16(sp)
 225 0144 23349100 		sd	s1,8(sp)
 226              		.cfi_offset 1, -8
 227              		.cfi_offset 8, -16
 228              		.cfi_offset 9, -24
 229 0148 13040102 		addi	s0,sp,32
 230              		.cfi_def_cfa 8, 0
  26:src/_thread.cpp ****     Riscv::popSppSpie();
 231              		.loc 1 26 5
 232              		.loc 1 26 22 is_stmt 0
 233 014c 97000000 		call	_ZN5Riscv10popSppSpieEv@plt
 233      E7800000 
 234              	.LVL19:
  27:src/_thread.cpp ****     running->body();
 235              		.loc 1 27 5 is_stmt 1
 236              		.loc 1 27 14 is_stmt 0
 237 0154 97040000 		lla	s1,.LANCHOR0
 237      93840400 
 238 015c 83B70400 		ld	a5,0(s1)
 239 0160 83B70700 		ld	a5,0(a5)
 240              		.loc 1 27 18
 241 0164 E7800700 		jalr	a5
 242              	.LVL20:
  28:src/_thread.cpp ****     running->setFinished(true);
 243              		.loc 1 28 5 is_stmt 1
 244              		.loc 1 28 25 is_stmt 0
 245 0168 83B70400 		ld	a5,0(s1)
 246              	.LVL21:
 247              	.LBB15:
 248              	.LBB16:
  19:src/../h/_thread.hpp **** 
 249              		.loc 2 19 36 is_stmt 1
  19:src/../h/_thread.hpp **** 
 250              		.loc 2 19 45 is_stmt 0
 251 016c 13071000 		li	a4,1
 252 0170 2388E702 		sb	a4,48(a5)
GAS LISTING /tmp/ccClLAoX.s 			page 7


 253              	.LVL22:
 254              	.LBE16:
 255              	.LBE15:
  29:src/_thread.cpp ****     _thread::dispatch();
 256              		.loc 1 29 5 is_stmt 1
 257              		.loc 1 29 22 is_stmt 0
 258 0174 97000000 		call	_ZN7_thread8dispatchEv
 258      E7800000 
 259              	.LVL23:
  30:src/_thread.cpp **** }
 260              		.loc 1 30 1
 261 017c 83308101 		ld	ra,24(sp)
 262              		.cfi_restore 1
 263 0180 03340101 		ld	s0,16(sp)
 264              		.cfi_restore 8
 265              		.cfi_def_cfa 2, 32
 266 0184 83348100 		ld	s1,8(sp)
 267              		.cfi_restore 9
 268 0188 13010102 		addi	sp,sp,32
 269              		.cfi_def_cfa_offset 0
 270 018c 67800000 		jr	ra
 271              		.cfi_endproc
 272              	.LFE34:
 274              		.align	2
 275              		.globl	_ZN7_thread10exitThreadEv
 277              	_ZN7_thread10exitThreadEv:
 278              	.LFB35:
  31:src/_thread.cpp **** 
  32:src/_thread.cpp **** int _thread::exitThread() {
 279              		.loc 1 32 27 is_stmt 1
 280              		.cfi_startproc
 281 0190 130101FF 		addi	sp,sp,-16
 282              		.cfi_def_cfa_offset 16
 283 0194 23341100 		sd	ra,8(sp)
 284 0198 23308100 		sd	s0,0(sp)
 285              		.cfi_offset 1, -8
 286              		.cfi_offset 8, -16
 287 019c 13040101 		addi	s0,sp,16
 288              		.cfi_def_cfa 8, 0
  33:src/_thread.cpp ****     _thread::running->setFinished(true);
 289              		.loc 1 33 5
 290              	.LVL24:
 291              	.LBB17:
 292              	.LBB18:
  19:src/../h/_thread.hpp **** 
 293              		.loc 2 19 36
  19:src/../h/_thread.hpp **** 
 294              		.loc 2 19 45 is_stmt 0
 295 01a0 97070000 		ld	a5,.LANCHOR0
 295      83B70700 
 296 01a8 13071000 		li	a4,1
 297 01ac 2388E702 		sb	a4,48(a5)
 298              	.LVL25:
 299              	.LBE18:
 300              	.LBE17:
  34:src/_thread.cpp ****     _thread::dispatch();
 301              		.loc 1 34 5 is_stmt 1
GAS LISTING /tmp/ccClLAoX.s 			page 8


 302              		.loc 1 34 22 is_stmt 0
 303 01b0 97000000 		call	_ZN7_thread8dispatchEv
 303      E7800000 
 304              	.LVL26:
  35:src/_thread.cpp ****     return 0;
 305              		.loc 1 35 5 is_stmt 1
  36:src/_thread.cpp **** }
 306              		.loc 1 36 1 is_stmt 0
 307 01b8 13050000 		li	a0,0
 308 01bc 83308100 		ld	ra,8(sp)
 309              		.cfi_restore 1
 310 01c0 03340100 		ld	s0,0(sp)
 311              		.cfi_restore 8
 312              		.cfi_def_cfa 2, 16
 313 01c4 13010101 		addi	sp,sp,16
 314              		.cfi_def_cfa_offset 0
 315 01c8 67800000 		jr	ra
 316              		.cfi_endproc
 317              	.LFE35:
 319              		.globl	_ZN7_thread7runningE
 320              		.bss
 321              		.align	3
 322              		.set	.LANCHOR0,. + 0
 325              	_ZN7_thread7runningE:
 326 0000 00000000 		.zero	8
 326      00000000 
 327              		.text
 328              	.Letext0:
 329              		.file 3 "src/../h/../lib/hw.h"
 330              		.file 4 "src/../h/scheduler.hpp"
 331              		.file 5 "src/../h/riscv.hpp"
 2554              		.align	3
 2557              	DW.ref.__gxx_personality_v0:
 2558 0000 00000000 		.dword	__gxx_personality_v0
 2558      00000000 
 2559              		.ident	"GCC: (Ubuntu 9.4.0-1ubuntu1~20.04) 9.4.0"
 2560              		.section	.note.GNU-stack,"",@progbits
GAS LISTING /tmp/ccClLAoX.s 			page 9


DEFINED SYMBOLS
                            *ABS*:0000000000000000 _thread.cpp
     /tmp/ccClLAoX.s:9      .text:0000000000000000 _ZN7_thread12createThreadEPFvvEPv
     /tmp/ccClLAoX.s:13     .text:0000000000000000 .L0 
     /tmp/ccClLAoX.s:2557   .data.rel.local.DW.ref.__gxx_personality_v0:0000000000000000 DW.ref.__gxx_personality_v0
     /tmp/ccClLAoX.s:17     .text:0000000000000000 .L0 
     /tmp/ccClLAoX.s:18     .text:0000000000000004 .L0 
     /tmp/ccClLAoX.s:24     .text:0000000000000018 .L0 
     /tmp/ccClLAoX.s:25     .text:0000000000000018 .L0 
     /tmp/ccClLAoX.s:26     .text:0000000000000018 .L0 
     /tmp/ccClLAoX.s:27     .text:0000000000000018 .L0 
     /tmp/ccClLAoX.s:28     .text:0000000000000018 .L0 
     /tmp/ccClLAoX.s:30     .text:000000000000001c .L0 
     /tmp/ccClLAoX.s:34     .text:0000000000000024 .L0 
     /tmp/ccClLAoX.s:35     .text:0000000000000024 .L0 
     /tmp/ccClLAoX.s:47     .text:0000000000000034 .L0 
     /tmp/ccClLAoX.s:50     .text:000000000000003c .L0 
     /tmp/ccClLAoX.s:52     .text:0000000000000040 .L0 
     /tmp/ccClLAoX.s:59     .text:0000000000000050 .L0 
     /tmp/ccClLAoX.s:62     .text:0000000000000054 .L0 
     /tmp/ccClLAoX.s:217    .text:0000000000000138 _ZN7_thread13threadWrapperEv
     /tmp/ccClLAoX.s:66     .text:0000000000000064 .L0 
     /tmp/ccClLAoX.s:68     .text:0000000000000068 .L0 
     /tmp/ccClLAoX.s:72     .text:0000000000000070 .L0 
     /tmp/ccClLAoX.s:75     .text:0000000000000078 .L0 
     /tmp/ccClLAoX.s:77     .text:000000000000007c .L0 
     /tmp/ccClLAoX.s:78     .text:000000000000007c .L0 
     /tmp/ccClLAoX.s:85     .text:000000000000008c .L0 
     /tmp/ccClLAoX.s:93     .text:0000000000000098 .L0 
     /tmp/ccClLAoX.s:103    .text:00000000000000b0 .L0 
     /tmp/ccClLAoX.s:105    .text:00000000000000b8 .L0 
     /tmp/ccClLAoX.s:107    .text:00000000000000bc .L0 
     /tmp/ccClLAoX.s:108    .text:00000000000000bc .L0 
     /tmp/ccClLAoX.s:110    .text:00000000000000c0 .L0 
     /tmp/ccClLAoX.s:113    .text:00000000000000c4 .L0 
     /tmp/ccClLAoX.s:116    .text:00000000000000c8 .L0 
     /tmp/ccClLAoX.s:119    .text:00000000000000cc .L0 
     /tmp/ccClLAoX.s:121    .text:00000000000000d0 .L0 
     /tmp/ccClLAoX.s:147    .text:00000000000000d0 _ZN7_thread8dispatchEv
     /tmp/ccClLAoX.s:150    .text:00000000000000d0 .L0 
     /tmp/ccClLAoX.s:151    .text:00000000000000d0 .L0 
     /tmp/ccClLAoX.s:152    .text:00000000000000d4 .L0 
     /tmp/ccClLAoX.s:156    .text:00000000000000e0 .L0 
     /tmp/ccClLAoX.s:157    .text:00000000000000e0 .L0 
     /tmp/ccClLAoX.s:158    .text:00000000000000e0 .L0 
     /tmp/ccClLAoX.s:160    .text:00000000000000e4 .L0 
     /tmp/ccClLAoX.s:162    .text:00000000000000e4 .L0 
     /tmp/ccClLAoX.s:163    .text:00000000000000e4 .L0 
     /tmp/ccClLAoX.s:168    .text:00000000000000ec .L0 
     /tmp/ccClLAoX.s:169    .text:00000000000000ec .L0 
     /tmp/ccClLAoX.s:170    .text:00000000000000ec .L0 
     /tmp/ccClLAoX.s:175    .text:00000000000000f0 .L0 
     /tmp/ccClLAoX.s:178    .text:00000000000000f4 .L0 
     /tmp/ccClLAoX.s:179    .text:00000000000000f4 .L0 
     /tmp/ccClLAoX.s:182    .text:00000000000000fc .L0 
     /tmp/ccClLAoX.s:184    .text:0000000000000104 .L0 
     /tmp/ccClLAoX.s:185    .text:0000000000000104 .L0 
GAS LISTING /tmp/ccClLAoX.s 			page 10


     /tmp/ccClLAoX.s:190    .text:0000000000000114 .L0 
     /tmp/ccClLAoX.s:191    .text:0000000000000118 .L0 
     /tmp/ccClLAoX.s:192    .text:0000000000000118 .L0 
     /tmp/ccClLAoX.s:194    .text:000000000000011c .L0 
     /tmp/ccClLAoX.s:195    .text:000000000000011c .L0 
     /tmp/ccClLAoX.s:197    .text:0000000000000120 .L0 
     /tmp/ccClLAoX.s:200    .text:0000000000000124 .L0 
     /tmp/ccClLAoX.s:204    .text:0000000000000128 .L0 
     /tmp/ccClLAoX.s:206    .text:0000000000000128 .L0 
     /tmp/ccClLAoX.s:207    .text:0000000000000128 .L0 
     /tmp/ccClLAoX.s:211    .text:0000000000000138 .L0 
     /tmp/ccClLAoX.s:220    .text:0000000000000138 .L0 
     /tmp/ccClLAoX.s:221    .text:0000000000000138 .L0 
     /tmp/ccClLAoX.s:222    .text:000000000000013c .L0 
     /tmp/ccClLAoX.s:226    .text:0000000000000148 .L0 
     /tmp/ccClLAoX.s:227    .text:0000000000000148 .L0 
     /tmp/ccClLAoX.s:228    .text:0000000000000148 .L0 
     /tmp/ccClLAoX.s:230    .text:000000000000014c .L0 
     /tmp/ccClLAoX.s:232    .text:000000000000014c .L0 
     /tmp/ccClLAoX.s:233    .text:000000000000014c .L0 
     /tmp/ccClLAoX.s:236    .text:0000000000000154 .L0 
     /tmp/ccClLAoX.s:237    .text:0000000000000154 .L0 
     /tmp/ccClLAoX.s:241    .text:0000000000000164 .L0 
     /tmp/ccClLAoX.s:244    .text:0000000000000168 .L0 
     /tmp/ccClLAoX.s:245    .text:0000000000000168 .L0 
     /tmp/ccClLAoX.s:250    .text:000000000000016c .L0 
     /tmp/ccClLAoX.s:251    .text:000000000000016c .L0 
     /tmp/ccClLAoX.s:257    .text:0000000000000174 .L0 
     /tmp/ccClLAoX.s:258    .text:0000000000000174 .L0 
     /tmp/ccClLAoX.s:261    .text:000000000000017c .L0 
     /tmp/ccClLAoX.s:262    .text:0000000000000180 .L0 
     /tmp/ccClLAoX.s:264    .text:0000000000000184 .L0 
     /tmp/ccClLAoX.s:265    .text:0000000000000184 .L0 
     /tmp/ccClLAoX.s:267    .text:0000000000000188 .L0 
     /tmp/ccClLAoX.s:269    .text:000000000000018c .L0 
     /tmp/ccClLAoX.s:271    .text:0000000000000190 .L0 
     /tmp/ccClLAoX.s:277    .text:0000000000000190 _ZN7_thread10exitThreadEv
     /tmp/ccClLAoX.s:280    .text:0000000000000190 .L0 
     /tmp/ccClLAoX.s:281    .text:0000000000000190 .L0 
     /tmp/ccClLAoX.s:282    .text:0000000000000194 .L0 
     /tmp/ccClLAoX.s:285    .text:000000000000019c .L0 
     /tmp/ccClLAoX.s:286    .text:000000000000019c .L0 
     /tmp/ccClLAoX.s:288    .text:00000000000001a0 .L0 
     /tmp/ccClLAoX.s:293    .text:00000000000001a0 .L0 
     /tmp/ccClLAoX.s:294    .text:00000000000001a0 .L0 
     /tmp/ccClLAoX.s:295    .text:00000000000001a0 .L0 
     /tmp/ccClLAoX.s:302    .text:00000000000001b0 .L0 
     /tmp/ccClLAoX.s:303    .text:00000000000001b0 .L0 
     /tmp/ccClLAoX.s:306    .text:00000000000001b8 .L0 
     /tmp/ccClLAoX.s:307    .text:00000000000001b8 .L0 
     /tmp/ccClLAoX.s:309    .text:00000000000001c0 .L0 
     /tmp/ccClLAoX.s:311    .text:00000000000001c4 .L0 
     /tmp/ccClLAoX.s:312    .text:00000000000001c4 .L0 
     /tmp/ccClLAoX.s:314    .text:00000000000001c8 .L0 
     /tmp/ccClLAoX.s:316    .text:00000000000001cc .L0 
     /tmp/ccClLAoX.s:325    .bss:0000000000000000 _ZN7_thread7runningE
     /tmp/ccClLAoX.s:322    .bss:0000000000000000 .LANCHOR0
GAS LISTING /tmp/ccClLAoX.s 			page 11


     /tmp/ccClLAoX.s:332    .text:00000000000001cc .L0 
     /tmp/ccClLAoX.s:63     .text:0000000000000058 .L0 
     /tmp/ccClLAoX.s:163    .text:00000000000000e4 .L0 
     /tmp/ccClLAoX.s:182    .text:00000000000000fc .L0 
     /tmp/ccClLAoX.s:237    .text:0000000000000154 .L0 
     /tmp/ccClLAoX.s:295    .text:00000000000001a0 .L0 
     /tmp/ccClLAoX.s:57     .text:0000000000000050 .L6
     /tmp/ccClLAoX.s:60     .text:0000000000000054 .L2
     /tmp/ccClLAoX.s:83     .text:000000000000008c .L7
     /tmp/ccClLAoX.s:101    .text:00000000000000b0 .L1
     /tmp/ccClLAoX.s:70     .text:0000000000000070 .L3
     /tmp/ccClLAoX.s:203    .text:0000000000000128 .L13
     /tmp/ccClLAoX.s:176    .text:00000000000000f4 .L11
     /tmp/ccClLAoX.s:37     .text:0000000000000028 .LEHB0
     /tmp/ccClLAoX.s:10     .text:0000000000000000 .LFB32
     /tmp/ccClLAoX.s:40     .text:0000000000000030 .LEHE0
     /tmp/ccClLAoX.s:53     .text:0000000000000044 .LEHB1
     /tmp/ccClLAoX.s:81     .text:0000000000000088 .LEHE1
     /tmp/ccClLAoX.s:87     .text:0000000000000094 .L8
     /tmp/ccClLAoX.s:97     .text:00000000000000a8 .LEHB2
     /tmp/ccClLAoX.s:100    .text:00000000000000b0 .LEHE2
     /tmp/ccClLAoX.s:1312   .debug_abbrev:0000000000000000 .Ldebug_abbrev0
     /tmp/ccClLAoX.s:2515   .debug_str:0000000000000617 .LASF103
     /tmp/ccClLAoX.s:2529   .debug_str:0000000000000738 .LASF104
     /tmp/ccClLAoX.s:2377   .debug_str:00000000000001d5 .LASF105
     /tmp/ccClLAoX.s:5      .text:0000000000000000 .Ltext0
     /tmp/ccClLAoX.s:328    .text:00000000000001cc .Letext0
     /tmp/ccClLAoX.s:2311   .debug_line:0000000000000000 .Ldebug_line0
     /tmp/ccClLAoX.s:2441   .debug_str:00000000000003e4 .LASF0
     /tmp/ccClLAoX.s:2455   .debug_str:000000000000041c .LASF1
     /tmp/ccClLAoX.s:2429   .debug_str:00000000000003a3 .LASF2
     /tmp/ccClLAoX.s:2363   .debug_str:0000000000000183 .LASF3
     /tmp/ccClLAoX.s:2401   .debug_str:00000000000002a7 .LASF4
     /tmp/ccClLAoX.s:2489   .debug_str:0000000000000536 .LASF5
     /tmp/ccClLAoX.s:2331   .debug_str:000000000000006c .LASF6
     /tmp/ccClLAoX.s:2459   .debug_str:0000000000000437 .LASF7
     /tmp/ccClLAoX.s:2439   .debug_str:00000000000003d1 .LASF8
     /tmp/ccClLAoX.s:2525   .debug_str:0000000000000721 .LASF9
     /tmp/ccClLAoX.s:2385   .debug_str:000000000000021d .LASF10
     /tmp/ccClLAoX.s:2471   .debug_str:0000000000000499 .LASF11
     /tmp/ccClLAoX.s:2517   .debug_str:00000000000006db .LASF12
     /tmp/ccClLAoX.s:2333   .debug_str:0000000000000073 .LASF13
     /tmp/ccClLAoX.s:2317   .debug_str:000000000000001e .LASF14
     /tmp/ccClLAoX.s:2347   .debug_str:00000000000000d8 .LASF15
     /tmp/ccClLAoX.s:2481   .debug_str:00000000000004d6 .LASF16
     /tmp/ccClLAoX.s:2355   .debug_str:000000000000012a .LASF17
     /tmp/ccClLAoX.s:2467   .debug_str:000000000000047b .LASF18
     /tmp/ccClLAoX.s:2379   .debug_str:00000000000001f3 .LASF106
     /tmp/ccClLAoX.s:2395   .debug_str:0000000000000281 .LASF107
     /tmp/ccClLAoX.s:2523   .debug_str:0000000000000705 .LASF108
     /tmp/ccClLAoX.s:2407   .debug_str:00000000000002d8 .LASF109
     /tmp/ccClLAoX.s:2397   .debug_str:0000000000000295 .LASF19
     /tmp/ccClLAoX.s:2321   .debug_str:0000000000000037 .LASF110
     /tmp/ccClLAoX.s:2519   .debug_str:00000000000006ea .LASF20
     /tmp/ccClLAoX.s:2463   .debug_str:0000000000000455 .LASF22
     /tmp/ccClLAoX.s:2461   .debug_str:000000000000044a .LASF111
     /tmp/ccClLAoX.s:2425   .debug_str:0000000000000373 .LASF112
GAS LISTING /tmp/ccClLAoX.s 			page 12


     /tmp/ccClLAoX.s:2431   .debug_str:00000000000003b1 .LASF21
     /tmp/ccClLAoX.s:2423   .debug_str:0000000000000358 .LASF23
     /tmp/ccClLAoX.s:2413   .debug_str:00000000000002f9 .LASF24
     /tmp/ccClLAoX.s:2483   .debug_str:00000000000004ec .LASF25
     /tmp/ccClLAoX.s:2477   .debug_str:00000000000004c6 .LASF113
     /tmp/ccClLAoX.s:2433   .debug_str:00000000000003bd .LASF51
     /tmp/ccClLAoX.s:2509   .debug_str:00000000000005e3 .LASF53
     /tmp/ccClLAoX.s:2369   .debug_str:00000000000001ac .LASF114
     /tmp/ccClLAoX.s:2473   .debug_str:00000000000004a8 .LASF26
     /tmp/ccClLAoX.s:2367   .debug_str:0000000000000192 .LASF56
     /tmp/ccClLAoX.s:2325   .debug_str:0000000000000049 .LASF59
     /tmp/ccClLAoX.s:2337   .debug_str:0000000000000093 .LASF27
     /tmp/ccClLAoX.s:2449   .debug_str:0000000000000407 .LASF28
     /tmp/ccClLAoX.s:2447   .debug_str:0000000000000401 .LASF29
     /tmp/ccClLAoX.s:2411   .debug_str:00000000000002f1 .LASF30
     /tmp/ccClLAoX.s:2451   .debug_str:000000000000040c .LASF31
     /tmp/ccClLAoX.s:2405   .debug_str:00000000000002cf .LASF32
     /tmp/ccClLAoX.s:2415   .debug_str:0000000000000306 .LASF34
     /tmp/ccClLAoX.s:2389   .debug_str:0000000000000241 .LASF36
     /tmp/ccClLAoX.s:2533   .debug_str:000000000000075d .LASF33
     /tmp/ccClLAoX.s:2421   .debug_str:000000000000032c .LASF115
     /tmp/ccClLAoX.s:2445   .debug_str:00000000000003f8 .LASF35
     /tmp/ccClLAoX.s:2507   .debug_str:00000000000005cc .LASF37
     /tmp/ccClLAoX.s:2375   .debug_str:00000000000001d0 .LASF38
     /tmp/ccClLAoX.s:2335   .debug_str:0000000000000083 .LASF39
     /tmp/ccClLAoX.s:2491   .debug_str:0000000000000548 .LASF40
     /tmp/ccClLAoX.s:2349   .debug_str:00000000000000e4 .LASF41
     /tmp/ccClLAoX.s:2403   .debug_str:00000000000002ae .LASF42
     /tmp/ccClLAoX.s:2469   .debug_str:0000000000000485 .LASF43
     /tmp/ccClLAoX.s:2417   .debug_str:0000000000000314 .LASF44
     /tmp/ccClLAoX.s:2315   .debug_str:0000000000000008 .LASF45
     /tmp/ccClLAoX.s:2535   .debug_str:000000000000076b .LASF46
     /tmp/ccClLAoX.s:2493   .debug_str:0000000000000557 .LASF47
     /tmp/ccClLAoX.s:2513   .debug_str:0000000000000608 .LASF48
     /tmp/ccClLAoX.s:2511   .debug_str:00000000000005f7 .LASF49
     /tmp/ccClLAoX.s:2453   .debug_str:0000000000000416 .LASF50
     /tmp/ccClLAoX.s:2479   .debug_str:00000000000004cb .LASF52
     /tmp/ccClLAoX.s:2541   .debug_str:0000000000000792 .LASF54
     /tmp/ccClLAoX.s:2319   .debug_str:000000000000002e .LASF55
     /tmp/ccClLAoX.s:2501   .debug_str:000000000000058c .LASF57
     /tmp/ccClLAoX.s:2365   .debug_str:0000000000000189 .LASF58
     /tmp/ccClLAoX.s:2351   .debug_str:00000000000000fd .LASF60
     /tmp/ccClLAoX.s:2435   .debug_str:00000000000003c3 .LASF61
     /tmp/ccClLAoX.s:2475   .debug_str:00000000000004b3 .LASF62
     /tmp/ccClLAoX.s:2527   .debug_str:0000000000000731 .LASF63
     /tmp/ccClLAoX.s:2505   .debug_str:00000000000005b9 .LASF64
     /tmp/ccClLAoX.s:2457   .debug_str:000000000000042f .LASF65
     /tmp/ccClLAoX.s:2357   .debug_str:0000000000000140 .LASF66
     /tmp/ccClLAoX.s:2313   .debug_str:0000000000000000 .LASF67
     /tmp/ccClLAoX.s:2391   .debug_str:000000000000025e .LASF68
     /tmp/ccClLAoX.s:2371   .debug_str:00000000000001b4 .LASF69
     /tmp/ccClLAoX.s:2339   .debug_str:0000000000000098 .LASF70
     /tmp/ccClLAoX.s:2545   .debug_str:00000000000007b5 .LASF71
     /tmp/ccClLAoX.s:2373   .debug_str:00000000000001bc .LASF72
     /tmp/ccClLAoX.s:2443   .debug_str:00000000000003f1 .LASF73
     /tmp/ccClLAoX.s:2537   .debug_str:000000000000077a .LASF74
     /tmp/ccClLAoX.s:2329   .debug_str:0000000000000065 .LASF75
GAS LISTING /tmp/ccClLAoX.s 			page 13


     /tmp/ccClLAoX.s:2381   .debug_str:0000000000000204 .LASF76
     /tmp/ccClLAoX.s:2383   .debug_str:0000000000000217 .LASF77
     /tmp/ccClLAoX.s:2521   .debug_str:00000000000006f3 .LASF78
     /tmp/ccClLAoX.s:2327   .debug_str:000000000000005f .LASF79
     /tmp/ccClLAoX.s:2549   .debug_str:00000000000007d3 .LASF80
     /tmp/ccClLAoX.s:2543   .debug_str:00000000000007aa .LASF81
     /tmp/ccClLAoX.s:2487   .debug_str:000000000000051e .LASF82
     /tmp/ccClLAoX.s:2409   .debug_str:00000000000002e6 .LASF83
     /tmp/ccClLAoX.s:2503   .debug_str:00000000000005a1 .LASF84
     /tmp/ccClLAoX.s:2345   .debug_str:00000000000000ce .LASF85
     /tmp/ccClLAoX.s:2465   .debug_str:0000000000000465 .LASF86
     /tmp/ccClLAoX.s:2323   .debug_str:000000000000003f .LASF87
     /tmp/ccClLAoX.s:2387   .debug_str:000000000000022b .LASF88
     /tmp/ccClLAoX.s:2495   .debug_str:0000000000000567 .LASF89
     /tmp/ccClLAoX.s:2341   .debug_str:00000000000000ac .LASF90
     /tmp/ccClLAoX.s:2531   .debug_str:0000000000000748 .LASF91
     /tmp/ccClLAoX.s:2361   .debug_str:0000000000000161 .LASF92
     /tmp/ccClLAoX.s:2427   .debug_str:000000000000038e .LASF116
     /tmp/ccClLAoX.s:278    .text:0000000000000190 .LFB35
     /tmp/ccClLAoX.s:317    .text:00000000000001cc .LFE35
     /tmp/ccClLAoX.s:291    .text:00000000000001a0 .LBB17
     /tmp/ccClLAoX.s:300    .text:00000000000001b0 .LBE17
     /tmp/ccClLAoX.s:2152   .debug_loc:0000000000000000 .LLST9
     /tmp/ccClLAoX.s:2160   .debug_loc:0000000000000024 .LLST10
     /tmp/ccClLAoX.s:304    .text:00000000000001b8 .LVL26
     /tmp/ccClLAoX.s:218    .text:0000000000000138 .LFB34
     /tmp/ccClLAoX.s:272    .text:0000000000000190 .LFE34
     /tmp/ccClLAoX.s:247    .text:000000000000016c .LBB15
     /tmp/ccClLAoX.s:255    .text:0000000000000174 .LBE15
     /tmp/ccClLAoX.s:2168   .debug_loc:000000000000004f .LLST7
     /tmp/ccClLAoX.s:2176   .debug_loc:0000000000000073 .LLST8
     /tmp/ccClLAoX.s:234    .text:0000000000000154 .LVL19
     /tmp/ccClLAoX.s:259    .text:000000000000017c .LVL23
     /tmp/ccClLAoX.s:148    .text:00000000000000d0 .LFB33
     /tmp/ccClLAoX.s:212    .text:0000000000000138 .LFE33
     /tmp/ccClLAoX.s:2183   .debug_loc:0000000000000096 .LLST5
     /tmp/ccClLAoX.s:166    .text:00000000000000ec .LBB13
     /tmp/ccClLAoX.s:173    .text:00000000000000f0 .LBE13
     /tmp/ccClLAoX.s:2194   .debug_loc:00000000000000cc .LLST6
     /tmp/ccClLAoX.s:180    .text:00000000000000fc .LVL14
     /tmp/ccClLAoX.s:188    .text:0000000000000114 .LVL15
     /tmp/ccClLAoX.s:209    .text:0000000000000134 .LVL18
     /tmp/ccClLAoX.s:122    .text:00000000000000d0 .LFE32
     /tmp/ccClLAoX.s:2201   .debug_loc:00000000000000ef .LLST0
     /tmp/ccClLAoX.s:2230   .debug_loc:0000000000000164 .LLST1
     /tmp/ccClLAoX.s:2399   .debug_str:000000000000029d .LASF117
     /tmp/ccClLAoX.s:43     .text:0000000000000034 .LBB11
     /tmp/ccClLAoX.s:91     .text:0000000000000098 .LBE11
     /tmp/ccClLAoX.s:2248   .debug_loc:00000000000001b0 .LLST2
     /tmp/ccClLAoX.s:2262   .debug_loc:00000000000001e9 .LLST3
     /tmp/ccClLAoX.s:2287   .debug_loc:000000000000024b .LLST4
     /tmp/ccClLAoX.s:55     .text:000000000000004c .LVL4
     /tmp/ccClLAoX.s:80     .text:0000000000000088 .LVL5
     /tmp/ccClLAoX.s:39     .text:0000000000000030 .LVL2
     /tmp/ccClLAoX.s:95     .text:00000000000000a4 .LVL7
     /tmp/ccClLAoX.s:99     .text:00000000000000b0 .LVL8
     /tmp/ccClLAoX.s:2539   .debug_str:000000000000078d .LASF93
GAS LISTING /tmp/ccClLAoX.s 			page 14


     /tmp/ccClLAoX.s:2547   .debug_str:00000000000007bd .LASF118
     /tmp/ccClLAoX.s:2343   .debug_str:00000000000000c8 .LASF94
     /tmp/ccClLAoX.s:2499   .debug_str:0000000000000586 .LASF95
     /tmp/ccClLAoX.s:2485   .debug_str:000000000000050e .LASF97
     /tmp/ccClLAoX.s:2419   .debug_str:0000000000000326 .LASF96
     /tmp/ccClLAoX.s:2359   .debug_str:0000000000000154 .LASF98
     /tmp/ccClLAoX.s:2437   .debug_str:00000000000003ca .LASF99
     /tmp/ccClLAoX.s:2497   .debug_str:0000000000000576 .LASF100
     /tmp/ccClLAoX.s:2393   .debug_str:0000000000000272 .LASF101
     /tmp/ccClLAoX.s:2353   .debug_str:0000000000000112 .LASF102
     /tmp/ccClLAoX.s:290    .text:00000000000001a0 .LVL24
     /tmp/ccClLAoX.s:298    .text:00000000000001b0 .LVL25
     /tmp/ccClLAoX.s:246    .text:000000000000016c .LVL21
     /tmp/ccClLAoX.s:253    .text:0000000000000174 .LVL22
     /tmp/ccClLAoX.s:164    .text:00000000000000ec .LVL12
     /tmp/ccClLAoX.s:198    .text:0000000000000120 .LVL16
     /tmp/ccClLAoX.s:202    .text:0000000000000128 .LVL17
     /tmp/ccClLAoX.s:171    .text:00000000000000f0 .LVL13
     /tmp/ccClLAoX.s:16     .text:0000000000000000 .LVL0
     /tmp/ccClLAoX.s:36     .text:0000000000000028 .LVL1
     /tmp/ccClLAoX.s:89     .text:0000000000000098 .LVL6
     /tmp/ccClLAoX.s:114    .text:00000000000000c4 .LVL10
     /tmp/ccClLAoX.s:117    .text:00000000000000c8 .LVL11
     /tmp/ccClLAoX.s:42     .text:0000000000000034 .LVL3
     /tmp/ccClLAoX.s:111    .text:00000000000000c0 .LVL9
     /tmp/ccClLAoX.s:333    .debug_info:0000000000000000 .Ldebug_info0
     /tmp/ccClLAoX.s:125    .gcc_except_table:0000000000000000 .LLSDA32

UNDEFINED SYMBOLS
_Znwm
_Znam
_ZN9Scheduler3putEP7_thread
_ZdlPv
_Unwind_Resume
__gxx_personality_v0
_ZN9Scheduler3getEv
_ZN7_thread13contextSwitchEPNS_7ContextES1_
_ZN5Riscv10popSppSpieEv
