GAS LISTING /tmp/ccQmRxCg.s 			page 1


   1              		.file	"_thread.cpp"
   2              		.option pic
   3              		.option norelax
   4              		.text
   5              	.Ltext0:
   6              		.align	2
   7              		.globl	_ZN7_thread13threadWrapperEv
   9              	_ZN7_thread13threadWrapperEv:
  10              	.LFB36:
  11              		.file 1 "src/_thread.cpp"
   1:src/_thread.cpp **** 
   2:src/_thread.cpp **** 
   3:src/_thread.cpp **** #include "../h/_thread.hpp"
   4:src/_thread.cpp **** #include "../h/riscv.hpp"
   5:src/_thread.cpp **** #include "../h/syscall_c.hpp"
   6:src/_thread.cpp **** #include "../test/printing.hpp"
   7:src/_thread.cpp **** 
   8:src/_thread.cpp **** _thread *_thread::running = nullptr;
   9:src/_thread.cpp **** 
  10:src/_thread.cpp **** 
  11:src/_thread.cpp **** _thread *_thread::createThread(Body body, void* args)
  12:src/_thread.cpp **** {
  13:src/_thread.cpp ****     _thread* newThread = new _thread(body, args);
  14:src/_thread.cpp ****     return newThread;
  15:src/_thread.cpp **** }
  16:src/_thread.cpp **** 
  17:src/_thread.cpp **** void _thread::dispatch()
  18:src/_thread.cpp **** {
  19:src/_thread.cpp ****     _thread *old = running;
  20:src/_thread.cpp ****     if (!old->isFinished() && !old->isBlocked()) { Scheduler::put(old); }
  21:src/_thread.cpp ****     running = Scheduler::get();
  22:src/_thread.cpp ****     if (running == nullptr) {
  23:src/_thread.cpp ****         printString("vratili smo null\n");
  24:src/_thread.cpp ****     }
  25:src/_thread.cpp **** 
  26:src/_thread.cpp ****     _thread::contextSwitch(&old->context, &running->context);
  27:src/_thread.cpp **** }
  28:src/_thread.cpp **** 
  29:src/_thread.cpp **** void _thread::threadWrapper()
  30:src/_thread.cpp **** {
  12              		.loc 1 30 1
  13              		.cfi_startproc
  14 0000 130101FF 		addi	sp,sp,-16
  15              		.cfi_def_cfa_offset 16
  16 0004 23341100 		sd	ra,8(sp)
  17 0008 23308100 		sd	s0,0(sp)
  18              		.cfi_offset 1, -8
  19              		.cfi_offset 8, -16
  20 000c 13040101 		addi	s0,sp,16
  21              		.cfi_def_cfa 8, 0
  31:src/_thread.cpp ****     Riscv::popSppSpie();
  22              		.loc 1 31 5
  23              		.loc 1 31 22 is_stmt 0
  24 0010 97000000 		call	_ZN5Riscv10popSppSpieEv@plt
  24      E7800000 
  25              	.LVL0:
  26              	.L3:
GAS LISTING /tmp/ccQmRxCg.s 			page 2


  32:src/_thread.cpp ****     while(!running->isStarted()) thread_dispatch();
  27              		.loc 1 32 5 is_stmt 1 discriminator 2
  28              		.loc 1 32 11 discriminator 2
  29              		.loc 1 32 30 is_stmt 0 discriminator 2
  30 0018 97070000 		ld	a5,.LANCHOR0
  30      83B70700 
  31              	.LVL1:
  32              	.LBB10:
  33              	.LBB11:
  34              		.file 2 "src/../h/_thread.hpp"
   1:src/../h/_thread.hpp **** 
   2:src/../h/_thread.hpp **** 
   3:src/../h/_thread.hpp **** #ifndef OS1_VEZBE07_RISCV_CONTEXT_SWITCH_2_INTERRUPT_TCB_HPP
   4:src/../h/_thread.hpp **** #define OS1_VEZBE07_RISCV_CONTEXT_SWITCH_2_INTERRUPT_TCB_HPP
   5:src/../h/_thread.hpp **** 
   6:src/../h/_thread.hpp **** #include "../lib/hw.h"
   7:src/../h/_thread.hpp **** #include "scheduler.hpp"
   8:src/../h/_thread.hpp **** 
   9:src/../h/_thread.hpp **** typedef _thread* thread_t;
  10:src/../h/_thread.hpp **** 
  11:src/../h/_thread.hpp **** // Thread Control Block
  12:src/../h/_thread.hpp **** class _thread
  13:src/../h/_thread.hpp **** {
  14:src/../h/_thread.hpp **** public:
  15:src/../h/_thread.hpp ****     ~_thread() { delete[] stack; }
  16:src/../h/_thread.hpp **** 
  17:src/../h/_thread.hpp ****     bool isFinished() const { return finished; }
  18:src/../h/_thread.hpp **** 
  19:src/../h/_thread.hpp ****     void setFinished(bool value) { finished = value; }
  20:src/../h/_thread.hpp **** 
  21:src/../h/_thread.hpp ****     using Body = void (*)(void*);
  22:src/../h/_thread.hpp **** 
  23:src/../h/_thread.hpp ****     static _thread *createThread(Body body, void* args);
  24:src/../h/_thread.hpp **** 
  25:src/../h/_thread.hpp ****     static void yield();
  26:src/../h/_thread.hpp **** 
  27:src/../h/_thread.hpp ****     static _thread *running;
  28:src/../h/_thread.hpp **** 
  29:src/../h/_thread.hpp ****     static int exitThread();
  30:src/../h/_thread.hpp **** 
  31:src/../h/_thread.hpp ****     void setStart(bool b);
  32:src/../h/_thread.hpp **** 
  33:src/../h/_thread.hpp ****     bool isStarted() const { return started; }
  35              		.loc 2 33 30 is_stmt 1 discriminator 2
  36              		.loc 2 33 37 is_stmt 0 discriminator 2
  37 0020 83C79702 		lbu	a5,41(a5)
  38              	.LVL2:
  39              	.LBE11:
  40              	.LBE10:
  41              		.loc 1 32 11 discriminator 2
  42 0024 63980700 		bnez	a5,.L2
  43              		.loc 1 32 34 is_stmt 1 discriminator 1
  44              		.loc 1 32 49 is_stmt 0 discriminator 1
  45 0028 97000000 		call	_Z15thread_dispatchv@plt
  45      E7800000 
  46              	.LVL3:
  47              		.loc 1 32 5 discriminator 1
GAS LISTING /tmp/ccQmRxCg.s 			page 3


  48 0030 6FF09FFE 		j	.L3
  49              	.L2:
  33:src/_thread.cpp ****     userMode();
  50              		.loc 1 33 5 is_stmt 1
  51              		.loc 1 33 13 is_stmt 0
  52 0034 97000000 		call	_Z8userModev@plt
  52      E7800000 
  53              	.LVL4:
  34:src/_thread.cpp ****     running->body(running->args);
  54              		.loc 1 34 5 is_stmt 1
  55              		.loc 1 34 14 is_stmt 0
  56 003c 97070000 		ld	a5,.LANCHOR0
  56      83B70700 
  57 0044 03B70700 		ld	a4,0(a5)
  58              		.loc 1 34 18
  59 0048 03B58700 		ld	a0,8(a5)
  60 004c E7000700 		jalr	a4
  61              	.LVL5:
  35:src/_thread.cpp ****     thread_exit();
  62              		.loc 1 35 5 is_stmt 1
  63              		.loc 1 35 16 is_stmt 0
  64 0050 97000000 		call	_Z11thread_exitv@plt
  64      E7800000 
  65              	.LVL6:
  36:src/_thread.cpp **** }
  66              		.loc 1 36 1
  67 0058 83308100 		ld	ra,8(sp)
  68              		.cfi_restore 1
  69 005c 03340100 		ld	s0,0(sp)
  70              		.cfi_restore 8
  71              		.cfi_def_cfa 2, 16
  72 0060 13010101 		addi	sp,sp,16
  73              		.cfi_def_cfa_offset 0
  74 0064 67800000 		jr	ra
  75              		.cfi_endproc
  76              	.LFE36:
  78              		.align	2
  79              		.globl	_ZN7_thread12createThreadEPFvPvES0_
  81              	_ZN7_thread12createThreadEPFvPvES0_:
  82              	.LFB34:
  12:src/_thread.cpp ****     _thread* newThread = new _thread(body, args);
  83              		.loc 1 12 1 is_stmt 1
  84              		.cfi_startproc
  85              		.cfi_personality 0x9b,DW.ref.__gxx_personality_v0
  86              		.cfi_lsda 0x1b,.LLSDA34
  87              	.LVL7:
  88 0068 130101FD 		addi	sp,sp,-48
  89              		.cfi_def_cfa_offset 48
  90 006c 23341102 		sd	ra,40(sp)
  91 0070 23308102 		sd	s0,32(sp)
  92 0074 233C9100 		sd	s1,24(sp)
  93 0078 23382101 		sd	s2,16(sp)
  94 007c 23343101 		sd	s3,8(sp)
  95              		.cfi_offset 1, -8
  96              		.cfi_offset 8, -16
  97              		.cfi_offset 9, -24
  98              		.cfi_offset 18, -32
GAS LISTING /tmp/ccQmRxCg.s 			page 4


  99              		.cfi_offset 19, -40
 100 0080 13040103 		addi	s0,sp,48
 101              		.cfi_def_cfa 8, 0
 102 0084 13090500 		mv	s2,a0
 103 0088 93890500 		mv	s3,a1
  13:src/_thread.cpp ****     return newThread;
 104              		.loc 1 13 5
  13:src/_thread.cpp ****     return newThread;
 105              		.loc 1 13 48 is_stmt 0
 106 008c 13050003 		li	a0,48
 107              	.LVL8:
 108              	.LEHB0:
 109 0090 97000000 		call	_Znwm@plt
 109      E7800000 
 110              	.LVL9:
 111              	.LEHE0:
 112 0098 93040500 		mv	s1,a0
 113              	.LVL10:
 114              	.LBB15:
 115              	.LBB16:
  34:src/../h/_thread.hpp **** 
  35:src/../h/_thread.hpp ****     void setBlock(bool b);
  36:src/../h/_thread.hpp **** 
  37:src/../h/_thread.hpp ****     bool isBlocked() const { return blocked; }
  38:src/../h/_thread.hpp **** 
  39:src/../h/_thread.hpp **** private:
  40:src/../h/_thread.hpp ****     _thread(Body body, void* args) :
  41:src/../h/_thread.hpp ****             body(body),
  42:src/../h/_thread.hpp ****             args(args),
  43:src/../h/_thread.hpp ****             stack(body != nullptr ? new uint64[DEFAULT_STACK_SIZE] : nullptr),
  44:src/../h/_thread.hpp ****             context({
  45:src/../h/_thread.hpp ****                 (uint64) &threadWrapper,
  46:src/../h/_thread.hpp ****                 stack != nullptr ? (uint64) &stack[DEFAULT_STACK_SIZE] : 0
  47:src/../h/_thread.hpp ****             }),
  48:src/../h/_thread.hpp ****             finished(false),
  49:src/../h/_thread.hpp ****             started(true),
  50:src/../h/_thread.hpp ****             blocked(false)
 116              		.loc 2 50 26
 117 009c 23302501 		sd	s2,0(a0)
 118 00a0 23343501 		sd	s3,8(a0)
  43:src/../h/_thread.hpp ****             context({
 119              		.loc 2 43 35
 120 00a4 630A0900 		beqz	s2,.L10
  43:src/../h/_thread.hpp ****             context({
 121              		.loc 2 43 66
 122 00a8 37850000 		li	a0,32768
 123              	.LEHB1:
 124 00ac 97000000 		call	_Znam@plt
 124      E7800000 
 125              	.LVL11:
 126 00b4 6F008000 		j	.L6
 127              	.L10:
  43:src/../h/_thread.hpp ****             context({
 128              		.loc 2 43 35
 129 00b8 13050000 		li	a0,0
 130              	.L6:
 131              		.loc 2 50 26
GAS LISTING /tmp/ccQmRxCg.s 			page 5


 132 00bc 23B8A400 		sd	a0,16(s1)
 133 00c0 97070000 		lla	a5,_ZN7_thread13threadWrapperEv
 133      93870700 
 134 00c8 23BCF400 		sd	a5,24(s1)
  46:src/../h/_thread.hpp ****             }),
 135              		.loc 2 46 34
 136 00cc 630A0502 		beqz	a0,.L11
  46:src/../h/_thread.hpp ****             }),
 137              		.loc 2 46 45
 138 00d0 B7870000 		li	a5,32768
 139 00d4 B307F500 		add	a5,a0,a5
 140              	.L7:
 141              		.loc 2 50 26
 142 00d8 23B0F402 		sd	a5,32(s1)
 143 00dc 23840402 		sb	zero,40(s1)
 144 00e0 93071000 		li	a5,1
 145 00e4 A384F402 		sb	a5,41(s1)
 146 00e8 23850402 		sb	zero,42(s1)
  51:src/../h/_thread.hpp ****     {
  52:src/../h/_thread.hpp ****             if (body != nullptr) { Scheduler::put(this);}
 147              		.loc 2 52 13 is_stmt 1
 148 00ec 630C0902 		beqz	s2,.L5
 149              		.loc 2 52 36
 150              		.loc 2 52 50 is_stmt 0
 151 00f0 13850400 		mv	a0,s1
 152 00f4 97000000 		call	_ZN9Scheduler3putEP7_thread@plt
 152      E7800000 
 153              	.LVL12:
 154              	.LEHE1:
 155 00fc 6F008002 		j	.L5
 156              	.L11:
  46:src/../h/_thread.hpp ****             }),
 157              		.loc 2 46 34
 158 0100 93070000 		li	a5,0
 159 0104 6FF05FFD 		j	.L7
 160              	.L12:
 161 0108 13090500 		mv	s2,a0
 162              	.LVL13:
 163              	.LBE16:
 164              	.LBE15:
  13:src/_thread.cpp ****     return newThread;
 165              		.loc 1 13 48
 166 010c 13850400 		mv	a0,s1
 167 0110 97000000 		call	_ZdlPv@plt
 167      E7800000 
 168              	.LVL14:
 169 0118 13050900 		mv	a0,s2
 170              	.LEHB2:
 171 011c 97000000 		call	_Unwind_Resume@plt
 171      E7800000 
 172              	.LVL15:
 173              	.LEHE2:
 174              	.L5:
  15:src/_thread.cpp **** 
 175              		.loc 1 15 1
 176 0124 13850400 		mv	a0,s1
 177 0128 83308102 		ld	ra,40(sp)
GAS LISTING /tmp/ccQmRxCg.s 			page 6


 178              		.cfi_restore 1
 179 012c 03340102 		ld	s0,32(sp)
 180              		.cfi_restore 8
 181              		.cfi_def_cfa 2, 48
 182 0130 83348101 		ld	s1,24(sp)
 183              		.cfi_restore 9
 184              	.LVL16:
 185 0134 03390101 		ld	s2,16(sp)
 186              		.cfi_restore 18
 187              	.LVL17:
 188 0138 83398100 		ld	s3,8(sp)
 189              		.cfi_restore 19
 190              	.LVL18:
 191 013c 13010103 		addi	sp,sp,48
 192              		.cfi_def_cfa_offset 0
 193 0140 67800000 		jr	ra
 194              		.cfi_endproc
 195              	.LFE34:
 196              		.globl	__gxx_personality_v0
 197              		.section	.gcc_except_table,"a",@progbits
 198              	.LLSDA34:
 199 0000 FF       		.byte	0xff
 200 0001 FF       		.byte	0xff
 201 0002 03       		.byte	0x3
 202 0003 27       		.byte	0x27
 203 0004 00000000 		.4byte	.LEHB0-.LFB34
 204 0008 00000000 		.4byte	.LEHE0-.LEHB0
 205 000c 00000000 		.4byte	0
 206 0010 00       		.byte	0
 207 0011 00000000 		.4byte	.LEHB1-.LFB34
 208 0015 00000000 		.4byte	.LEHE1-.LEHB1
 209 0019 00000000 		.4byte	.L12-.LFB34
 210 001d 00       		.byte	0
 211 001e 00000000 		.4byte	.LEHB2-.LFB34
 212 0022 00000000 		.4byte	.LEHE2-.LEHB2
 213 0026 00000000 		.4byte	0
 214 002a 00       		.byte	0
 215              		.text
 217              		.section	.rodata.str1.8,"aMS",@progbits,1
 218              		.align	3
 219              	.LC0:
 220 0000 76726174 		.string	"vratili smo null\n"
 220      696C6920 
 220      736D6F20 
 220      6E756C6C 
 220      0A00
 221              		.text
 222              		.align	2
 223              		.globl	_ZN7_thread8dispatchEv
 225              	_ZN7_thread8dispatchEv:
 226              	.LFB35:
  18:src/_thread.cpp ****     _thread *old = running;
 227              		.loc 1 18 1 is_stmt 1
 228              		.cfi_startproc
 229 0144 130101FE 		addi	sp,sp,-32
 230              		.cfi_def_cfa_offset 32
 231 0148 233C1100 		sd	ra,24(sp)
GAS LISTING /tmp/ccQmRxCg.s 			page 7


 232 014c 23388100 		sd	s0,16(sp)
 233 0150 23349100 		sd	s1,8(sp)
 234              		.cfi_offset 1, -8
 235              		.cfi_offset 8, -16
 236              		.cfi_offset 9, -24
 237 0154 13040102 		addi	s0,sp,32
 238              		.cfi_def_cfa 8, 0
  19:src/_thread.cpp ****     if (!old->isFinished() && !old->isBlocked()) { Scheduler::put(old); }
 239              		.loc 1 19 5
  19:src/_thread.cpp ****     if (!old->isFinished() && !old->isBlocked()) { Scheduler::put(old); }
 240              		.loc 1 19 14 is_stmt 0
 241 0158 97040000 		ld	s1,.LANCHOR0
 241      83B40400 
 242              	.LVL19:
  20:src/_thread.cpp ****     running = Scheduler::get();
 243              		.loc 1 20 5 is_stmt 1
 244              	.LBB17:
 245              	.LBB18:
  17:src/../h/_thread.hpp **** 
 246              		.loc 2 17 31
  17:src/../h/_thread.hpp **** 
 247              		.loc 2 17 38 is_stmt 0
 248 0160 83C78402 		lbu	a5,40(s1)
 249              	.LVL20:
 250              	.LBE18:
 251              	.LBE17:
  20:src/_thread.cpp ****     running = Scheduler::get();
 252              		.loc 1 20 28
 253 0164 63960700 		bnez	a5,.L15
 254              	.LVL21:
 255              	.LBB19:
 256              	.LBB20:
  37:src/../h/_thread.hpp **** 
 257              		.loc 2 37 30 is_stmt 1
  37:src/../h/_thread.hpp **** 
 258              		.loc 2 37 37 is_stmt 0
 259 0168 83C7A402 		lbu	a5,42(s1)
 260              	.LVL22:
 261              	.LBE20:
 262              	.LBE19:
  20:src/_thread.cpp ****     running = Scheduler::get();
 263              		.loc 1 20 28
 264 016c 63820704 		beqz	a5,.L18
 265              	.L15:
  21:src/_thread.cpp ****     if (running == nullptr) {
 266              		.loc 1 21 5 is_stmt 1
  21:src/_thread.cpp ****     if (running == nullptr) {
 267              		.loc 1 21 29 is_stmt 0
 268 0170 97000000 		call	_ZN9Scheduler3getEv@plt
 268      E7800000 
 269              	.LVL23:
  21:src/_thread.cpp ****     if (running == nullptr) {
 270              		.loc 1 21 13
 271 0178 97070000 		sd	a0,.LANCHOR0,a5
 271      23B0A700 
  22:src/_thread.cpp ****         printString("vratili smo null\n");
 272              		.loc 1 22 5 is_stmt 1
GAS LISTING /tmp/ccQmRxCg.s 			page 8


 273 0180 63000504 		beqz	a0,.L19
 274              	.L16:
  26:src/_thread.cpp **** }
 275              		.loc 1 26 5
  26:src/_thread.cpp **** }
 276              		.loc 1 26 27 is_stmt 0
 277 0184 97050000 		ld	a1,.LANCHOR0
 277      83B50500 
 278 018c 93858501 		addi	a1,a1,24
 279 0190 13858401 		addi	a0,s1,24
 280 0194 97000000 		call	_ZN7_thread13contextSwitchEPNS_7ContextES1_@plt
 280      E7800000 
 281              	.LVL24:
  27:src/_thread.cpp **** 
 282              		.loc 1 27 1
 283 019c 83308101 		ld	ra,24(sp)
 284              		.cfi_remember_state
 285              		.cfi_restore 1
 286 01a0 03340101 		ld	s0,16(sp)
 287              		.cfi_restore 8
 288              		.cfi_def_cfa 2, 32
 289 01a4 83348100 		ld	s1,8(sp)
 290              		.cfi_restore 9
 291              	.LVL25:
 292 01a8 13010102 		addi	sp,sp,32
 293              		.cfi_def_cfa_offset 0
 294 01ac 67800000 		jr	ra
 295              	.LVL26:
 296              	.L18:
 297              		.cfi_restore_state
  20:src/_thread.cpp ****     running = Scheduler::get();
 298              		.loc 1 20 52 is_stmt 1
  20:src/_thread.cpp ****     running = Scheduler::get();
 299              		.loc 1 20 66 is_stmt 0
 300 01b0 13850400 		mv	a0,s1
 301 01b4 97000000 		call	_ZN9Scheduler3putEP7_thread@plt
 301      E7800000 
 302              	.LVL27:
 303 01bc 6FF05FFB 		j	.L15
 304              	.L19:
  23:src/_thread.cpp ****     }
 305              		.loc 1 23 9 is_stmt 1
  23:src/_thread.cpp ****     }
 306              		.loc 1 23 20 is_stmt 0
 307 01c0 17050000 		lla	a0,.LC0
 307      13050500 
 308 01c8 97000000 		call	_Z11printStringPKc@plt
 308      E7800000 
 309              	.LVL28:
 310 01d0 6FF05FFB 		j	.L16
 311              		.cfi_endproc
 312              	.LFE35:
 314              		.align	2
 315              		.globl	_ZN7_thread10exitThreadEv
 317              	_ZN7_thread10exitThreadEv:
 318              	.LFB37:
  37:src/_thread.cpp **** 
GAS LISTING /tmp/ccQmRxCg.s 			page 9


  38:src/_thread.cpp **** int _thread::exitThread() {
 319              		.loc 1 38 27 is_stmt 1
 320              		.cfi_startproc
 321 01d4 130101FF 		addi	sp,sp,-16
 322              		.cfi_def_cfa_offset 16
 323 01d8 23341100 		sd	ra,8(sp)
 324 01dc 23308100 		sd	s0,0(sp)
 325              		.cfi_offset 1, -8
 326              		.cfi_offset 8, -16
 327 01e0 13040101 		addi	s0,sp,16
 328              		.cfi_def_cfa 8, 0
  39:src/_thread.cpp ****     _thread::running->setFinished(true);
 329              		.loc 1 39 5
 330              	.LVL29:
 331              	.LBB21:
 332              	.LBB22:
  19:src/../h/_thread.hpp **** 
 333              		.loc 2 19 36
  19:src/../h/_thread.hpp **** 
 334              		.loc 2 19 45 is_stmt 0
 335 01e4 97070000 		ld	a5,.LANCHOR0
 335      83B70700 
 336 01ec 13071000 		li	a4,1
 337 01f0 2384E702 		sb	a4,40(a5)
 338              	.LVL30:
 339              	.LBE22:
 340              	.LBE21:
  40:src/_thread.cpp ****     thread_dispatch();
 341              		.loc 1 40 5 is_stmt 1
 342              		.loc 1 40 20 is_stmt 0
 343 01f4 97000000 		call	_Z15thread_dispatchv@plt
 343      E7800000 
 344              	.LVL31:
  41:src/_thread.cpp ****     return 0;
 345              		.loc 1 41 5 is_stmt 1
  42:src/_thread.cpp **** }
 346              		.loc 1 42 1 is_stmt 0
 347 01fc 13050000 		li	a0,0
 348 0200 83308100 		ld	ra,8(sp)
 349              		.cfi_restore 1
 350 0204 03340100 		ld	s0,0(sp)
 351              		.cfi_restore 8
 352              		.cfi_def_cfa 2, 16
 353 0208 13010101 		addi	sp,sp,16
 354              		.cfi_def_cfa_offset 0
 355 020c 67800000 		jr	ra
 356              		.cfi_endproc
 357              	.LFE37:
 359              		.align	2
 360              		.globl	_ZN7_thread8setStartEb
 362              	_ZN7_thread8setStartEb:
 363              	.LFB38:
  43:src/_thread.cpp **** 
  44:src/_thread.cpp **** void _thread::setStart(bool b) {
 364              		.loc 1 44 32 is_stmt 1
 365              		.cfi_startproc
 366              	.LVL32:
GAS LISTING /tmp/ccQmRxCg.s 			page 10


 367 0210 130101FF 		addi	sp,sp,-16
 368              		.cfi_def_cfa_offset 16
 369 0214 23348100 		sd	s0,8(sp)
 370              		.cfi_offset 8, -8
 371 0218 13040101 		addi	s0,sp,16
 372              		.cfi_def_cfa 8, 0
  45:src/_thread.cpp ****     this->started = b;
 373              		.loc 1 45 5
 374              		.loc 1 45 19 is_stmt 0
 375 021c A304B502 		sb	a1,41(a0)
  46:src/_thread.cpp **** }
 376              		.loc 1 46 1
 377 0220 03348100 		ld	s0,8(sp)
 378              		.cfi_restore 8
 379              		.cfi_def_cfa 2, 16
 380 0224 13010101 		addi	sp,sp,16
 381              		.cfi_def_cfa_offset 0
 382 0228 67800000 		jr	ra
 383              		.cfi_endproc
 384              	.LFE38:
 386              		.align	2
 387              		.globl	_ZN7_thread8setBlockEb
 389              	_ZN7_thread8setBlockEb:
 390              	.LFB39:
  47:src/_thread.cpp **** 
  48:src/_thread.cpp **** void _thread::setBlock(bool b) {
 391              		.loc 1 48 32 is_stmt 1
 392              		.cfi_startproc
 393              	.LVL33:
 394 022c 130101FF 		addi	sp,sp,-16
 395              		.cfi_def_cfa_offset 16
 396 0230 23348100 		sd	s0,8(sp)
 397              		.cfi_offset 8, -8
 398 0234 13040101 		addi	s0,sp,16
 399              		.cfi_def_cfa 8, 0
  49:src/_thread.cpp ****     this->blocked = b;
 400              		.loc 1 49 5
 401              		.loc 1 49 19 is_stmt 0
 402 0238 2305B502 		sb	a1,42(a0)
  50:src/_thread.cpp **** }
 403              		.loc 1 50 1
 404 023c 03348100 		ld	s0,8(sp)
 405              		.cfi_restore 8
 406              		.cfi_def_cfa 2, 16
 407 0240 13010101 		addi	sp,sp,16
 408              		.cfi_def_cfa_offset 0
 409 0244 67800000 		jr	ra
 410              		.cfi_endproc
 411              	.LFE39:
 413              		.globl	_ZN7_thread7runningE
 414              		.bss
 415              		.align	3
 416              		.set	.LANCHOR0,. + 0
 419              	_ZN7_thread7runningE:
 420 0000 00000000 		.zero	8
 420      00000000 
 421              		.text
GAS LISTING /tmp/ccQmRxCg.s 			page 11


 422              	.Letext0:
 423              		.file 3 "src/../h/../lib/hw.h"
 424              		.file 4 "src/../h/scheduler.hpp"
 425              		.file 5 "src/../h/riscv.hpp"
 426              		.file 6 "src/../h/syscall_c.hpp"
 427              		.file 7 "src/../test/printing.hpp"
 2975              		.align	3
 2978              	DW.ref.__gxx_personality_v0:
 2979 0000 00000000 		.dword	__gxx_personality_v0
 2979      00000000 
 2980              		.ident	"GCC: (Ubuntu 9.4.0-1ubuntu1~20.04) 9.4.0"
 2981              		.section	.note.GNU-stack,"",@progbits
GAS LISTING /tmp/ccQmRxCg.s 			page 12


DEFINED SYMBOLS
                            *ABS*:0000000000000000 _thread.cpp
     /tmp/ccQmRxCg.s:9      .text:0000000000000000 _ZN7_thread13threadWrapperEv
     /tmp/ccQmRxCg.s:13     .text:0000000000000000 .L0 
     /tmp/ccQmRxCg.s:14     .text:0000000000000000 .L0 
     /tmp/ccQmRxCg.s:15     .text:0000000000000004 .L0 
     /tmp/ccQmRxCg.s:18     .text:000000000000000c .L0 
     /tmp/ccQmRxCg.s:19     .text:000000000000000c .L0 
     /tmp/ccQmRxCg.s:21     .text:0000000000000010 .L0 
     /tmp/ccQmRxCg.s:23     .text:0000000000000010 .L0 
     /tmp/ccQmRxCg.s:24     .text:0000000000000010 .L0 
     /tmp/ccQmRxCg.s:28     .text:0000000000000018 .L0 
     /tmp/ccQmRxCg.s:29     .text:0000000000000018 .L0 
     /tmp/ccQmRxCg.s:30     .text:0000000000000018 .L0 
     /tmp/ccQmRxCg.s:36     .text:0000000000000020 .L0 
     /tmp/ccQmRxCg.s:37     .text:0000000000000020 .L0 
     /tmp/ccQmRxCg.s:42     .text:0000000000000024 .L0 
     /tmp/ccQmRxCg.s:44     .text:0000000000000028 .L0 
     /tmp/ccQmRxCg.s:45     .text:0000000000000028 .L0 
     /tmp/ccQmRxCg.s:48     .text:0000000000000030 .L0 
     /tmp/ccQmRxCg.s:51     .text:0000000000000034 .L0 
     /tmp/ccQmRxCg.s:52     .text:0000000000000034 .L0 
     /tmp/ccQmRxCg.s:55     .text:000000000000003c .L0 
     /tmp/ccQmRxCg.s:56     .text:000000000000003c .L0 
     /tmp/ccQmRxCg.s:59     .text:0000000000000048 .L0 
     /tmp/ccQmRxCg.s:63     .text:0000000000000050 .L0 
     /tmp/ccQmRxCg.s:64     .text:0000000000000050 .L0 
     /tmp/ccQmRxCg.s:67     .text:0000000000000058 .L0 
     /tmp/ccQmRxCg.s:68     .text:000000000000005c .L0 
     /tmp/ccQmRxCg.s:70     .text:0000000000000060 .L0 
     /tmp/ccQmRxCg.s:71     .text:0000000000000060 .L0 
     /tmp/ccQmRxCg.s:73     .text:0000000000000064 .L0 
     /tmp/ccQmRxCg.s:75     .text:0000000000000068 .L0 
     /tmp/ccQmRxCg.s:81     .text:0000000000000068 _ZN7_thread12createThreadEPFvPvES0_
     /tmp/ccQmRxCg.s:84     .text:0000000000000068 .L0 
     /tmp/ccQmRxCg.s:2978   .data.rel.local.DW.ref.__gxx_personality_v0:0000000000000000 DW.ref.__gxx_personality_v0
     /tmp/ccQmRxCg.s:88     .text:0000000000000068 .L0 
     /tmp/ccQmRxCg.s:89     .text:000000000000006c .L0 
     /tmp/ccQmRxCg.s:95     .text:0000000000000080 .L0 
     /tmp/ccQmRxCg.s:96     .text:0000000000000080 .L0 
     /tmp/ccQmRxCg.s:97     .text:0000000000000080 .L0 
     /tmp/ccQmRxCg.s:98     .text:0000000000000080 .L0 
     /tmp/ccQmRxCg.s:99     .text:0000000000000080 .L0 
     /tmp/ccQmRxCg.s:101    .text:0000000000000084 .L0 
     /tmp/ccQmRxCg.s:105    .text:000000000000008c .L0 
     /tmp/ccQmRxCg.s:106    .text:000000000000008c .L0 
     /tmp/ccQmRxCg.s:117    .text:000000000000009c .L0 
     /tmp/ccQmRxCg.s:120    .text:00000000000000a4 .L0 
     /tmp/ccQmRxCg.s:122    .text:00000000000000a8 .L0 
     /tmp/ccQmRxCg.s:129    .text:00000000000000b8 .L0 
     /tmp/ccQmRxCg.s:132    .text:00000000000000bc .L0 
     /tmp/ccQmRxCg.s:136    .text:00000000000000cc .L0 
     /tmp/ccQmRxCg.s:138    .text:00000000000000d0 .L0 
     /tmp/ccQmRxCg.s:142    .text:00000000000000d8 .L0 
     /tmp/ccQmRxCg.s:148    .text:00000000000000ec .L0 
     /tmp/ccQmRxCg.s:150    .text:00000000000000f0 .L0 
     /tmp/ccQmRxCg.s:151    .text:00000000000000f0 .L0 
GAS LISTING /tmp/ccQmRxCg.s 			page 13


     /tmp/ccQmRxCg.s:158    .text:0000000000000100 .L0 
     /tmp/ccQmRxCg.s:166    .text:000000000000010c .L0 
     /tmp/ccQmRxCg.s:176    .text:0000000000000124 .L0 
     /tmp/ccQmRxCg.s:178    .text:000000000000012c .L0 
     /tmp/ccQmRxCg.s:180    .text:0000000000000130 .L0 
     /tmp/ccQmRxCg.s:181    .text:0000000000000130 .L0 
     /tmp/ccQmRxCg.s:183    .text:0000000000000134 .L0 
     /tmp/ccQmRxCg.s:186    .text:0000000000000138 .L0 
     /tmp/ccQmRxCg.s:189    .text:000000000000013c .L0 
     /tmp/ccQmRxCg.s:192    .text:0000000000000140 .L0 
     /tmp/ccQmRxCg.s:194    .text:0000000000000144 .L0 
     /tmp/ccQmRxCg.s:225    .text:0000000000000144 _ZN7_thread8dispatchEv
     /tmp/ccQmRxCg.s:228    .text:0000000000000144 .L0 
     /tmp/ccQmRxCg.s:229    .text:0000000000000144 .L0 
     /tmp/ccQmRxCg.s:230    .text:0000000000000148 .L0 
     /tmp/ccQmRxCg.s:234    .text:0000000000000154 .L0 
     /tmp/ccQmRxCg.s:235    .text:0000000000000154 .L0 
     /tmp/ccQmRxCg.s:236    .text:0000000000000154 .L0 
     /tmp/ccQmRxCg.s:238    .text:0000000000000158 .L0 
     /tmp/ccQmRxCg.s:240    .text:0000000000000158 .L0 
     /tmp/ccQmRxCg.s:241    .text:0000000000000158 .L0 
     /tmp/ccQmRxCg.s:246    .text:0000000000000160 .L0 
     /tmp/ccQmRxCg.s:247    .text:0000000000000160 .L0 
     /tmp/ccQmRxCg.s:248    .text:0000000000000160 .L0 
     /tmp/ccQmRxCg.s:253    .text:0000000000000164 .L0 
     /tmp/ccQmRxCg.s:258    .text:0000000000000168 .L0 
     /tmp/ccQmRxCg.s:259    .text:0000000000000168 .L0 
     /tmp/ccQmRxCg.s:264    .text:000000000000016c .L0 
     /tmp/ccQmRxCg.s:267    .text:0000000000000170 .L0 
     /tmp/ccQmRxCg.s:268    .text:0000000000000170 .L0 
     /tmp/ccQmRxCg.s:271    .text:0000000000000178 .L0 
     /tmp/ccQmRxCg.s:273    .text:0000000000000180 .L0 
     /tmp/ccQmRxCg.s:276    .text:0000000000000184 .L0 
     /tmp/ccQmRxCg.s:277    .text:0000000000000184 .L0 
     /tmp/ccQmRxCg.s:283    .text:000000000000019c .L0 
     /tmp/ccQmRxCg.s:284    .text:00000000000001a0 .L0 
     /tmp/ccQmRxCg.s:285    .text:00000000000001a0 .L0 
     /tmp/ccQmRxCg.s:287    .text:00000000000001a4 .L0 
     /tmp/ccQmRxCg.s:288    .text:00000000000001a4 .L0 
     /tmp/ccQmRxCg.s:290    .text:00000000000001a8 .L0 
     /tmp/ccQmRxCg.s:293    .text:00000000000001ac .L0 
     /tmp/ccQmRxCg.s:297    .text:00000000000001b0 .L0 
     /tmp/ccQmRxCg.s:299    .text:00000000000001b0 .L0 
     /tmp/ccQmRxCg.s:300    .text:00000000000001b0 .L0 
     /tmp/ccQmRxCg.s:306    .text:00000000000001c0 .L0 
     /tmp/ccQmRxCg.s:307    .text:00000000000001c0 .L0 
     /tmp/ccQmRxCg.s:311    .text:00000000000001d4 .L0 
     /tmp/ccQmRxCg.s:317    .text:00000000000001d4 _ZN7_thread10exitThreadEv
     /tmp/ccQmRxCg.s:320    .text:00000000000001d4 .L0 
     /tmp/ccQmRxCg.s:321    .text:00000000000001d4 .L0 
     /tmp/ccQmRxCg.s:322    .text:00000000000001d8 .L0 
     /tmp/ccQmRxCg.s:325    .text:00000000000001e0 .L0 
     /tmp/ccQmRxCg.s:326    .text:00000000000001e0 .L0 
     /tmp/ccQmRxCg.s:328    .text:00000000000001e4 .L0 
     /tmp/ccQmRxCg.s:333    .text:00000000000001e4 .L0 
     /tmp/ccQmRxCg.s:334    .text:00000000000001e4 .L0 
     /tmp/ccQmRxCg.s:335    .text:00000000000001e4 .L0 
GAS LISTING /tmp/ccQmRxCg.s 			page 14


     /tmp/ccQmRxCg.s:342    .text:00000000000001f4 .L0 
     /tmp/ccQmRxCg.s:343    .text:00000000000001f4 .L0 
     /tmp/ccQmRxCg.s:346    .text:00000000000001fc .L0 
     /tmp/ccQmRxCg.s:347    .text:00000000000001fc .L0 
     /tmp/ccQmRxCg.s:349    .text:0000000000000204 .L0 
     /tmp/ccQmRxCg.s:351    .text:0000000000000208 .L0 
     /tmp/ccQmRxCg.s:352    .text:0000000000000208 .L0 
     /tmp/ccQmRxCg.s:354    .text:000000000000020c .L0 
     /tmp/ccQmRxCg.s:356    .text:0000000000000210 .L0 
     /tmp/ccQmRxCg.s:362    .text:0000000000000210 _ZN7_thread8setStartEb
     /tmp/ccQmRxCg.s:365    .text:0000000000000210 .L0 
     /tmp/ccQmRxCg.s:367    .text:0000000000000210 .L0 
     /tmp/ccQmRxCg.s:368    .text:0000000000000214 .L0 
     /tmp/ccQmRxCg.s:370    .text:0000000000000218 .L0 
     /tmp/ccQmRxCg.s:372    .text:000000000000021c .L0 
     /tmp/ccQmRxCg.s:374    .text:000000000000021c .L0 
     /tmp/ccQmRxCg.s:375    .text:000000000000021c .L0 
     /tmp/ccQmRxCg.s:377    .text:0000000000000220 .L0 
     /tmp/ccQmRxCg.s:378    .text:0000000000000224 .L0 
     /tmp/ccQmRxCg.s:379    .text:0000000000000224 .L0 
     /tmp/ccQmRxCg.s:381    .text:0000000000000228 .L0 
     /tmp/ccQmRxCg.s:383    .text:000000000000022c .L0 
     /tmp/ccQmRxCg.s:389    .text:000000000000022c _ZN7_thread8setBlockEb
     /tmp/ccQmRxCg.s:392    .text:000000000000022c .L0 
     /tmp/ccQmRxCg.s:394    .text:000000000000022c .L0 
     /tmp/ccQmRxCg.s:395    .text:0000000000000230 .L0 
     /tmp/ccQmRxCg.s:397    .text:0000000000000234 .L0 
     /tmp/ccQmRxCg.s:399    .text:0000000000000238 .L0 
     /tmp/ccQmRxCg.s:401    .text:0000000000000238 .L0 
     /tmp/ccQmRxCg.s:402    .text:0000000000000238 .L0 
     /tmp/ccQmRxCg.s:404    .text:000000000000023c .L0 
     /tmp/ccQmRxCg.s:405    .text:0000000000000240 .L0 
     /tmp/ccQmRxCg.s:406    .text:0000000000000240 .L0 
     /tmp/ccQmRxCg.s:408    .text:0000000000000244 .L0 
     /tmp/ccQmRxCg.s:410    .text:0000000000000248 .L0 
     /tmp/ccQmRxCg.s:419    .bss:0000000000000000 _ZN7_thread7runningE
     /tmp/ccQmRxCg.s:416    .bss:0000000000000000 .LANCHOR0
     /tmp/ccQmRxCg.s:428    .text:0000000000000248 .L0 
     /tmp/ccQmRxCg.s:30     .text:0000000000000018 .L0 
     /tmp/ccQmRxCg.s:56     .text:000000000000003c .L0 
     /tmp/ccQmRxCg.s:133    .text:00000000000000c0 .L0 
     /tmp/ccQmRxCg.s:241    .text:0000000000000158 .L0 
     /tmp/ccQmRxCg.s:271    .text:0000000000000178 .L0 
     /tmp/ccQmRxCg.s:277    .text:0000000000000184 .L0 
     /tmp/ccQmRxCg.s:219    .rodata.str1.8:0000000000000000 .LC0
     /tmp/ccQmRxCg.s:307    .text:00000000000001c0 .L0 
     /tmp/ccQmRxCg.s:335    .text:00000000000001e4 .L0 
     /tmp/ccQmRxCg.s:49     .text:0000000000000034 .L2
     /tmp/ccQmRxCg.s:26     .text:0000000000000018 .L3
     /tmp/ccQmRxCg.s:127    .text:00000000000000b8 .L10
     /tmp/ccQmRxCg.s:130    .text:00000000000000bc .L6
     /tmp/ccQmRxCg.s:156    .text:0000000000000100 .L11
     /tmp/ccQmRxCg.s:174    .text:0000000000000124 .L5
     /tmp/ccQmRxCg.s:140    .text:00000000000000d8 .L7
     /tmp/ccQmRxCg.s:265    .text:0000000000000170 .L15
     /tmp/ccQmRxCg.s:296    .text:00000000000001b0 .L18
     /tmp/ccQmRxCg.s:304    .text:00000000000001c0 .L19
GAS LISTING /tmp/ccQmRxCg.s 			page 15


     /tmp/ccQmRxCg.s:274    .text:0000000000000184 .L16
     /tmp/ccQmRxCg.s:108    .text:0000000000000090 .LEHB0
     /tmp/ccQmRxCg.s:82     .text:0000000000000068 .LFB34
     /tmp/ccQmRxCg.s:111    .text:0000000000000098 .LEHE0
     /tmp/ccQmRxCg.s:123    .text:00000000000000ac .LEHB1
     /tmp/ccQmRxCg.s:154    .text:00000000000000fc .LEHE1
     /tmp/ccQmRxCg.s:160    .text:0000000000000108 .L12
     /tmp/ccQmRxCg.s:170    .text:000000000000011c .LEHB2
     /tmp/ccQmRxCg.s:173    .text:0000000000000124 .LEHE2
     /tmp/ccQmRxCg.s:1618   .debug_abbrev:0000000000000000 .Ldebug_abbrev0
     /tmp/ccQmRxCg.s:2926   .debug_str:00000000000006da .LASF125
     /tmp/ccQmRxCg.s:2944   .debug_str:000000000000082a .LASF126
     /tmp/ccQmRxCg.s:2778   .debug_str:000000000000024d .LASF127
     /tmp/ccQmRxCg.s:5      .text:0000000000000000 .Ltext0
     /tmp/ccQmRxCg.s:422    .text:0000000000000248 .Letext0
     /tmp/ccQmRxCg.s:2692   .debug_line:0000000000000000 .Ldebug_line0
     /tmp/ccQmRxCg.s:2850   .debug_str:0000000000000491 .LASF0
     /tmp/ccQmRxCg.s:2862   .debug_str:00000000000004c1 .LASF1
     /tmp/ccQmRxCg.s:2838   .debug_str:000000000000044b .LASF2
     /tmp/ccQmRxCg.s:2764   .debug_str:00000000000001fb .LASF3
     /tmp/ccQmRxCg.s:2806   .debug_str:0000000000000326 .LASF4
     /tmp/ccQmRxCg.s:2898   .debug_str:00000000000005dd .LASF5
     /tmp/ccQmRxCg.s:2722   .debug_str:00000000000000a0 .LASF6
     /tmp/ccQmRxCg.s:2866   .debug_str:00000000000004e5 .LASF7
     /tmp/ccQmRxCg.s:2848   .debug_str:000000000000047e .LASF8
     /tmp/ccQmRxCg.s:2938   .debug_str:00000000000007fb .LASF9
     /tmp/ccQmRxCg.s:2788   .debug_str:000000000000029d .LASF10
     /tmp/ccQmRxCg.s:2878   .debug_str:0000000000000547 .LASF11
     /tmp/ccQmRxCg.s:2928   .debug_str:000000000000079e .LASF12
     /tmp/ccQmRxCg.s:2726   .debug_str:00000000000000b0 .LASF13
     /tmp/ccQmRxCg.s:2700   .debug_str:0000000000000026 .LASF14
     /tmp/ccQmRxCg.s:2740   .debug_str:000000000000011a .LASF15
     /tmp/ccQmRxCg.s:2890   .debug_str:0000000000000599 .LASF16
     /tmp/ccQmRxCg.s:2752   .debug_str:0000000000000182 .LASF17
     /tmp/ccQmRxCg.s:2874   .debug_str:0000000000000529 .LASF18
     /tmp/ccQmRxCg.s:2780   .debug_str:000000000000026b .LASF128
     /tmp/ccQmRxCg.s:2800   .debug_str:0000000000000300 .LASF129
     /tmp/ccQmRxCg.s:2934   .debug_str:00000000000007c8 .LASF130
     /tmp/ccQmRxCg.s:2812   .debug_str:0000000000000357 .LASF131
     /tmp/ccQmRxCg.s:2802   .debug_str:0000000000000314 .LASF19
     /tmp/ccQmRxCg.s:2708   .debug_str:0000000000000052 .LASF132
     /tmp/ccQmRxCg.s:2930   .debug_str:00000000000007ad .LASF20
     /tmp/ccQmRxCg.s:2870   .debug_str:0000000000000503 .LASF22
     /tmp/ccQmRxCg.s:2868   .debug_str:00000000000004f8 .LASF29
     /tmp/ccQmRxCg.s:2834   .debug_str:000000000000041b .LASF31
     /tmp/ccQmRxCg.s:2840   .debug_str:0000000000000459 .LASF21
     /tmp/ccQmRxCg.s:2832   .debug_str:0000000000000400 .LASF23
     /tmp/ccQmRxCg.s:2818   .debug_str:0000000000000378 .LASF24
     /tmp/ccQmRxCg.s:2954   .debug_str:0000000000000880 .LASF25
     /tmp/ccQmRxCg.s:2886   .debug_str:0000000000000589 .LASF133
     /tmp/ccQmRxCg.s:2892   .debug_str:00000000000005af .LASF65
     /tmp/ccQmRxCg.s:2920   .debug_str:000000000000069e .LASF67
     /tmp/ccQmRxCg.s:2770   .debug_str:0000000000000224 .LASF134
     /tmp/ccQmRxCg.s:2880   .debug_str:0000000000000556 .LASF26
     /tmp/ccQmRxCg.s:2768   .debug_str:000000000000020a .LASF70
     /tmp/ccQmRxCg.s:2704   .debug_str:000000000000003f .LASF27
     /tmp/ccQmRxCg.s:2936   .debug_str:00000000000007e4 .LASF28
GAS LISTING /tmp/ccQmRxCg.s 			page 16


     /tmp/ccQmRxCg.s:2738   .debug_str:0000000000000110 .LASF30
     /tmp/ccQmRxCg.s:2822   .debug_str:0000000000000393 .LASF32
     /tmp/ccQmRxCg.s:2794   .debug_str:00000000000002de .LASF33
     /tmp/ccQmRxCg.s:2924   .debug_str:00000000000006c3 .LASF34
     /tmp/ccQmRxCg.s:2706   .debug_str:0000000000000048 .LASF35
     /tmp/ccQmRxCg.s:2732   .debug_str:00000000000000d5 .LASF36
     /tmp/ccQmRxCg.s:2942   .debug_str:0000000000000812 .LASF73
     /tmp/ccQmRxCg.s:2730   .debug_str:00000000000000d0 .LASF37
     /tmp/ccQmRxCg.s:2858   .debug_str:00000000000004b4 .LASF38
     /tmp/ccQmRxCg.s:2856   .debug_str:00000000000004ae .LASF39
     /tmp/ccQmRxCg.s:2816   .debug_str:0000000000000370 .LASF40
     /tmp/ccQmRxCg.s:2810   .debug_str:000000000000034e .LASF41
     /tmp/ccQmRxCg.s:2860   .debug_str:00000000000004b9 .LASF42
     /tmp/ccQmRxCg.s:2694   .debug_str:0000000000000000 .LASF43
     /tmp/ccQmRxCg.s:2820   .debug_str:0000000000000385 .LASF45
     /tmp/ccQmRxCg.s:2792   .debug_str:00000000000002c1 .LASF47
     /tmp/ccQmRxCg.s:2948   .debug_str:000000000000084f .LASF44
     /tmp/ccQmRxCg.s:2828   .debug_str:00000000000003c4 .LASF135
     /tmp/ccQmRxCg.s:2854   .debug_str:00000000000004a5 .LASF46
     /tmp/ccQmRxCg.s:2918   .debug_str:0000000000000687 .LASF48
     /tmp/ccQmRxCg.s:2776   .debug_str:0000000000000248 .LASF49
     /tmp/ccQmRxCg.s:2830   .debug_str:00000000000003f0 .LASF50
     /tmp/ccQmRxCg.s:2728   .debug_str:00000000000000c0 .LASF51
     /tmp/ccQmRxCg.s:2900   .debug_str:00000000000005ef .LASF52
     /tmp/ccQmRxCg.s:2742   .debug_str:0000000000000126 .LASF53
     /tmp/ccQmRxCg.s:2808   .debug_str:000000000000032d .LASF54
     /tmp/ccQmRxCg.s:2876   .debug_str:0000000000000533 .LASF55
     /tmp/ccQmRxCg.s:2824   .debug_str:00000000000003ac .LASF56
     /tmp/ccQmRxCg.s:2698   .debug_str:0000000000000010 .LASF57
     /tmp/ccQmRxCg.s:2952   .debug_str:0000000000000871 .LASF58
     /tmp/ccQmRxCg.s:2902   .debug_str:00000000000005fe .LASF59
     /tmp/ccQmRxCg.s:2958   .debug_str:00000000000008af .LASF60
     /tmp/ccQmRxCg.s:2922   .debug_str:00000000000006b2 .LASF61
     /tmp/ccQmRxCg.s:2716   .debug_str:0000000000000076 .LASF62
     /tmp/ccQmRxCg.s:2956   .debug_str:00000000000008a4 .LASF63
     /tmp/ccQmRxCg.s:2744   .debug_str:000000000000013f .LASF64
     /tmp/ccQmRxCg.s:2888   .debug_str:000000000000058e .LASF66
     /tmp/ccQmRxCg.s:2962   .debug_str:00000000000008c3 .LASF68
     /tmp/ccQmRxCg.s:2702   .debug_str:0000000000000036 .LASF69
     /tmp/ccQmRxCg.s:2912   .debug_str:0000000000000647 .LASF71
     /tmp/ccQmRxCg.s:2766   .debug_str:0000000000000201 .LASF72
     /tmp/ccQmRxCg.s:2748   .debug_str:0000000000000155 .LASF74
     /tmp/ccQmRxCg.s:2842   .debug_str:0000000000000465 .LASF75
     /tmp/ccQmRxCg.s:2884   .debug_str:0000000000000576 .LASF76
     /tmp/ccQmRxCg.s:2940   .debug_str:000000000000080b .LASF77
     /tmp/ccQmRxCg.s:2916   .debug_str:0000000000000674 .LASF78
     /tmp/ccQmRxCg.s:2784   .debug_str:000000000000028f .LASF79
     /tmp/ccQmRxCg.s:2754   .debug_str:0000000000000198 .LASF80
     /tmp/ccQmRxCg.s:2696   .debug_str:0000000000000008 .LASF81
     /tmp/ccQmRxCg.s:2904   .debug_str:000000000000060e .LASF82
     /tmp/ccQmRxCg.s:2772   .debug_str:000000000000022c .LASF83
     /tmp/ccQmRxCg.s:2950   .debug_str:000000000000085d .LASF84
     /tmp/ccQmRxCg.s:2968   .debug_str:00000000000008fa .LASF85
     /tmp/ccQmRxCg.s:2774   .debug_str:0000000000000234 .LASF86
     /tmp/ccQmRxCg.s:2852   .debug_str:000000000000049e .LASF87
     /tmp/ccQmRxCg.s:2966   .debug_str:00000000000008e7 .LASF88
     /tmp/ccQmRxCg.s:2718   .debug_str:0000000000000081 .LASF89
GAS LISTING /tmp/ccQmRxCg.s 			page 17


     /tmp/ccQmRxCg.s:2782   .debug_str:000000000000027c .LASF90
     /tmp/ccQmRxCg.s:2786   .debug_str:0000000000000297 .LASF91
     /tmp/ccQmRxCg.s:2932   .debug_str:00000000000007b6 .LASF92
     /tmp/ccQmRxCg.s:2714   .debug_str:0000000000000070 .LASF93
     /tmp/ccQmRxCg.s:2970   .debug_str:0000000000000902 .LASF94
     /tmp/ccQmRxCg.s:2846   .debug_str:0000000000000473 .LASF95
     /tmp/ccQmRxCg.s:2896   .debug_str:00000000000005c5 .LASF96
     /tmp/ccQmRxCg.s:2814   .debug_str:0000000000000365 .LASF97
     /tmp/ccQmRxCg.s:2914   .debug_str:000000000000065c .LASF98
     /tmp/ccQmRxCg.s:2796   .debug_str:00000000000002e7 .LASF99
     /tmp/ccQmRxCg.s:2872   .debug_str:0000000000000513 .LASF100
     /tmp/ccQmRxCg.s:2710   .debug_str:000000000000005a .LASF101
     /tmp/ccQmRxCg.s:2790   .debug_str:00000000000002ab .LASF102
     /tmp/ccQmRxCg.s:2906   .debug_str:0000000000000622 .LASF103
     /tmp/ccQmRxCg.s:2734   .debug_str:00000000000000ee .LASF104
     /tmp/ccQmRxCg.s:2946   .debug_str:000000000000083a .LASF105
     /tmp/ccQmRxCg.s:2760   .debug_str:00000000000001c6 .LASF106
     /tmp/ccQmRxCg.s:2836   .debug_str:0000000000000436 .LASF136
     /tmp/ccQmRxCg.s:390    .text:000000000000022c .LFB39
     /tmp/ccQmRxCg.s:411    .text:0000000000000248 .LFE39
     /tmp/ccQmRxCg.s:2960   .debug_str:00000000000008be .LASF107
     /tmp/ccQmRxCg.s:363    .text:0000000000000210 .LFB38
     /tmp/ccQmRxCg.s:384    .text:000000000000022c .LFE38
     /tmp/ccQmRxCg.s:318    .text:00000000000001d4 .LFB37
     /tmp/ccQmRxCg.s:357    .text:0000000000000210 .LFE37
     /tmp/ccQmRxCg.s:331    .text:00000000000001e4 .LBB21
     /tmp/ccQmRxCg.s:340    .text:00000000000001f4 .LBE21
     /tmp/ccQmRxCg.s:2534   .debug_loc:0000000000000000 .LLST9
     /tmp/ccQmRxCg.s:2542   .debug_loc:0000000000000024 .LLST10
     /tmp/ccQmRxCg.s:344    .text:00000000000001fc .LVL31
     /tmp/ccQmRxCg.s:10     .text:0000000000000000 .LFB36
     /tmp/ccQmRxCg.s:76     .text:0000000000000068 .LFE36
     /tmp/ccQmRxCg.s:32     .text:0000000000000020 .LBB10
     /tmp/ccQmRxCg.s:40     .text:0000000000000024 .LBE10
     /tmp/ccQmRxCg.s:2550   .debug_loc:000000000000004f .LLST0
     /tmp/ccQmRxCg.s:25     .text:0000000000000018 .LVL0
     /tmp/ccQmRxCg.s:46     .text:0000000000000030 .LVL3
     /tmp/ccQmRxCg.s:53     .text:000000000000003c .LVL4
     /tmp/ccQmRxCg.s:65     .text:0000000000000058 .LVL6
     /tmp/ccQmRxCg.s:226    .text:0000000000000144 .LFB35
     /tmp/ccQmRxCg.s:312    .text:00000000000001d4 .LFE35
     /tmp/ccQmRxCg.s:2557   .debug_loc:0000000000000072 .LLST6
     /tmp/ccQmRxCg.s:244    .text:0000000000000160 .LBB17
     /tmp/ccQmRxCg.s:251    .text:0000000000000164 .LBE17
     /tmp/ccQmRxCg.s:2568   .debug_loc:00000000000000a8 .LLST7
     /tmp/ccQmRxCg.s:255    .text:0000000000000168 .LBB19
     /tmp/ccQmRxCg.s:262    .text:000000000000016c .LBE19
     /tmp/ccQmRxCg.s:2575   .debug_loc:00000000000000cb .LLST8
     /tmp/ccQmRxCg.s:269    .text:0000000000000178 .LVL23
     /tmp/ccQmRxCg.s:281    .text:000000000000019c .LVL24
     /tmp/ccQmRxCg.s:302    .text:00000000000001bc .LVL27
     /tmp/ccQmRxCg.s:309    .text:00000000000001d0 .LVL28
     /tmp/ccQmRxCg.s:195    .text:0000000000000144 .LFE34
     /tmp/ccQmRxCg.s:2582   .debug_loc:00000000000000ee .LLST1
     /tmp/ccQmRxCg.s:2611   .debug_loc:0000000000000163 .LLST2
     /tmp/ccQmRxCg.s:2804   .debug_str:000000000000031c .LASF137
     /tmp/ccQmRxCg.s:114    .text:000000000000009c .LBB15
GAS LISTING /tmp/ccQmRxCg.s 			page 18


     /tmp/ccQmRxCg.s:164    .text:000000000000010c .LBE15
     /tmp/ccQmRxCg.s:2629   .debug_loc:00000000000001af .LLST3
     /tmp/ccQmRxCg.s:2643   .debug_loc:00000000000001e8 .LLST4
     /tmp/ccQmRxCg.s:2668   .debug_loc:000000000000024a .LLST5
     /tmp/ccQmRxCg.s:125    .text:00000000000000b4 .LVL11
     /tmp/ccQmRxCg.s:153    .text:00000000000000fc .LVL12
     /tmp/ccQmRxCg.s:110    .text:0000000000000098 .LVL9
     /tmp/ccQmRxCg.s:168    .text:0000000000000118 .LVL14
     /tmp/ccQmRxCg.s:172    .text:0000000000000124 .LVL15
     /tmp/ccQmRxCg.s:2720   .debug_str:0000000000000088 .LASF138
     /tmp/ccQmRxCg.s:2736   .debug_str:000000000000010a .LASF108
     /tmp/ccQmRxCg.s:2882   .debug_str:0000000000000561 .LASF109
     /tmp/ccQmRxCg.s:2746   .debug_str:0000000000000145 .LASF111
     /tmp/ccQmRxCg.s:2758   .debug_str:00000000000001b9 .LASF110
     /tmp/ccQmRxCg.s:2724   .debug_str:00000000000000a7 .LASF112
     /tmp/ccQmRxCg.s:2864   .debug_str:00000000000004d4 .LASF113
     /tmp/ccQmRxCg.s:2712   .debug_str:0000000000000064 .LASF114
     /tmp/ccQmRxCg.s:2762   .debug_str:00000000000001e8 .LASF115
     /tmp/ccQmRxCg.s:2964   .debug_str:00000000000008db .LASF116
     /tmp/ccQmRxCg.s:2910   .debug_str:0000000000000641 .LASF117
     /tmp/ccQmRxCg.s:2894   .debug_str:00000000000005b5 .LASF119
     /tmp/ccQmRxCg.s:2826   .debug_str:00000000000003be .LASF118
     /tmp/ccQmRxCg.s:2756   .debug_str:00000000000001ac .LASF120
     /tmp/ccQmRxCg.s:2844   .debug_str:000000000000046c .LASF121
     /tmp/ccQmRxCg.s:2908   .debug_str:0000000000000631 .LASF122
     /tmp/ccQmRxCg.s:2798   .debug_str:00000000000002f1 .LASF123
     /tmp/ccQmRxCg.s:2750   .debug_str:000000000000016a .LASF124
     /tmp/ccQmRxCg.s:330    .text:00000000000001e4 .LVL29
     /tmp/ccQmRxCg.s:338    .text:00000000000001f4 .LVL30
     /tmp/ccQmRxCg.s:31     .text:0000000000000020 .LVL1
     /tmp/ccQmRxCg.s:38     .text:0000000000000024 .LVL2
     /tmp/ccQmRxCg.s:242    .text:0000000000000160 .LVL19
     /tmp/ccQmRxCg.s:291    .text:00000000000001a8 .LVL25
     /tmp/ccQmRxCg.s:295    .text:00000000000001b0 .LVL26
     /tmp/ccQmRxCg.s:249    .text:0000000000000164 .LVL20
     /tmp/ccQmRxCg.s:254    .text:0000000000000168 .LVL21
     /tmp/ccQmRxCg.s:260    .text:000000000000016c .LVL22
     /tmp/ccQmRxCg.s:87     .text:0000000000000068 .LVL7
     /tmp/ccQmRxCg.s:107    .text:0000000000000090 .LVL8
     /tmp/ccQmRxCg.s:162    .text:000000000000010c .LVL13
     /tmp/ccQmRxCg.s:187    .text:0000000000000138 .LVL17
     /tmp/ccQmRxCg.s:190    .text:000000000000013c .LVL18
     /tmp/ccQmRxCg.s:113    .text:000000000000009c .LVL10
     /tmp/ccQmRxCg.s:184    .text:0000000000000134 .LVL16
     /tmp/ccQmRxCg.s:429    .debug_info:0000000000000000 .Ldebug_info0
     /tmp/ccQmRxCg.s:198    .gcc_except_table:0000000000000000 .LLSDA34

UNDEFINED SYMBOLS
_ZN5Riscv10popSppSpieEv
_Z15thread_dispatchv
_Z8userModev
_Z11thread_exitv
_Znwm
_Znam
_ZN9Scheduler3putEP7_thread
_ZdlPv
_Unwind_Resume
GAS LISTING /tmp/ccQmRxCg.s 			page 19


__gxx_personality_v0
_ZN9Scheduler3getEv
_ZN7_thread13contextSwitchEPNS_7ContextES1_
_Z11printStringPKc
