GAS LISTING /tmp/ccvcHQLG.s 			page 1


   1              		.file	"_thread.cpp"
   2              		.option pic
   3              		.option norelax
   4              		.text
   5              	.Ltext0:
   6              		.align	2
   7              		.globl	_ZN7_thread13threadWrapperEv
   9              	_ZN7_thread13threadWrapperEv:
  10              	.LFB40:
  11              		.file 1 "src/_thread.cpp"
   1:src/_thread.cpp **** 
   2:src/_thread.cpp **** 
   3:src/_thread.cpp **** #include "../h/_thread.hpp"
   4:src/_thread.cpp **** #include "../h/riscv.hpp"
   5:src/_thread.cpp **** #include "../h/syscall_c.hpp"
   6:src/_thread.cpp **** #include "../test/printing.hpp"
   7:src/_thread.cpp **** 
   8:src/_thread.cpp **** _thread *_thread::running = nullptr;
   9:src/_thread.cpp **** int _thread::ID = 0;
  10:src/_thread.cpp **** 
  11:src/_thread.cpp **** 
  12:src/_thread.cpp **** _thread *_thread::createThread(Body body, void* args)
  13:src/_thread.cpp **** {
  14:src/_thread.cpp ****     _thread* newThread = new _thread(body, args);
  15:src/_thread.cpp ****     if(_thread::running){
  16:src/_thread.cpp ****         _thread::running->children.addLast(newThread);
  17:src/_thread.cpp ****     }
  18:src/_thread.cpp ****     return newThread;
  19:src/_thread.cpp **** }
  20:src/_thread.cpp **** 
  21:src/_thread.cpp **** void _thread::dispatch()
  22:src/_thread.cpp **** {
  23:src/_thread.cpp ****     _thread *old = running;
  24:src/_thread.cpp ****     if (!old->isFinished() && !old->isBlocked()) { Scheduler::put(old); }
  25:src/_thread.cpp ****     running = Scheduler::get();
  26:src/_thread.cpp ****     if (running == nullptr) {
  27:src/_thread.cpp ****         printString("vratili smo null\n");
  28:src/_thread.cpp ****     }
  29:src/_thread.cpp **** 
  30:src/_thread.cpp ****     _thread::contextSwitch(&old->context, &running->context);
  31:src/_thread.cpp **** }
  32:src/_thread.cpp **** 
  33:src/_thread.cpp **** void _thread::joinAll(){
  34:src/_thread.cpp ****     while (_thread* curr = children.removeFirst()){
  35:src/_thread.cpp ****         join(&curr);
  36:src/_thread.cpp ****     }
  37:src/_thread.cpp **** 
  38:src/_thread.cpp **** }
  39:src/_thread.cpp **** 
  40:src/_thread.cpp **** void _thread::threadWrapper()
  41:src/_thread.cpp **** {
  12              		.loc 1 41 1
  13              		.cfi_startproc
  14 0000 130101FF 		addi	sp,sp,-16
  15              		.cfi_def_cfa_offset 16
  16 0004 23341100 		sd	ra,8(sp)
  17 0008 23308100 		sd	s0,0(sp)
GAS LISTING /tmp/ccvcHQLG.s 			page 2


  18              		.cfi_offset 1, -8
  19              		.cfi_offset 8, -16
  20 000c 13040101 		addi	s0,sp,16
  21              		.cfi_def_cfa 8, 0
  42:src/_thread.cpp **** 
  43:src/_thread.cpp ****     Riscv::popSppSpie();
  22              		.loc 1 43 5
  23              		.loc 1 43 22 is_stmt 0
  24 0010 97000000 		call	_ZN5Riscv10popSppSpieEv@plt
  24      E7800000 
  25              	.LVL0:
  26              	.L3:
  44:src/_thread.cpp ****     while(!running->isStarted()) thread_dispatch();
  27              		.loc 1 44 5 is_stmt 1 discriminator 2
  28              		.loc 1 44 11 discriminator 2
  29              		.loc 1 44 30 is_stmt 0 discriminator 2
  30 0018 97070000 		ld	a5,.LANCHOR0
  30      83B70700 
  31              	.LVL1:
  32              	.LBB27:
  33              	.LBB28:
  34              		.file 2 "src/../h/_thread.hpp"
   1:src/../h/_thread.hpp **** 
   2:src/../h/_thread.hpp **** 
   3:src/../h/_thread.hpp **** #ifndef OS1_VEZBE07_RISCV_CONTEXT_SWITCH_2_INTERRUPT_TCB_HPP
   4:src/../h/_thread.hpp **** #define OS1_VEZBE07_RISCV_CONTEXT_SWITCH_2_INTERRUPT_TCB_HPP
   5:src/../h/_thread.hpp **** 
   6:src/../h/_thread.hpp **** #include "../lib/hw.h"
   7:src/../h/_thread.hpp **** #include "scheduler.hpp"
   8:src/../h/_thread.hpp **** #include "syscall_c.hpp"
   9:src/../h/_thread.hpp **** 
  10:src/../h/_thread.hpp **** typedef _thread* thread_t;
  11:src/../h/_thread.hpp **** 
  12:src/../h/_thread.hpp **** // Thread Control Block
  13:src/../h/_thread.hpp **** class _thread
  14:src/../h/_thread.hpp **** {
  15:src/../h/_thread.hpp **** public:
  16:src/../h/_thread.hpp ****     ~_thread() { delete[] stack; }
  17:src/../h/_thread.hpp **** 
  18:src/../h/_thread.hpp ****     using Body = void (*)(void*);
  19:src/../h/_thread.hpp **** 
  20:src/../h/_thread.hpp ****     static _thread *createThread(Body body, void* args);
  21:src/../h/_thread.hpp **** 
  22:src/../h/_thread.hpp ****     static void yield();
  23:src/../h/_thread.hpp **** 
  24:src/../h/_thread.hpp ****     static _thread *running;
  25:src/../h/_thread.hpp ****     static sem_t semMaxThreads;
  26:src/../h/_thread.hpp ****     static int ID;
  27:src/../h/_thread.hpp ****     static int exitThread();
  28:src/../h/_thread.hpp **** 
  29:src/../h/_thread.hpp ****     bool isFinished() const { return finished; }
  30:src/../h/_thread.hpp ****     void setFinished(bool value) { finished = value; }
  31:src/../h/_thread.hpp ****     void setStart(bool b);
  32:src/../h/_thread.hpp ****     bool isStarted() const { return started; }
  35              		.loc 2 32 30 is_stmt 1 discriminator 2
  36              		.loc 2 32 37 is_stmt 0 discriminator 2
  37 0020 03C79702 		lbu	a4,41(a5)
GAS LISTING /tmp/ccvcHQLG.s 			page 3


  38              	.LVL2:
  39              	.LBE28:
  40              	.LBE27:
  41              		.loc 1 44 11 discriminator 2
  42 0024 63180700 		bnez	a4,.L2
  43              		.loc 1 44 34 is_stmt 1 discriminator 1
  44              		.loc 1 44 49 is_stmt 0 discriminator 1
  45 0028 97000000 		call	_Z15thread_dispatchv@plt
  45      E7800000 
  46              	.LVL3:
  47              		.loc 1 44 5 discriminator 1
  48 0030 6FF09FFE 		j	.L3
  49              	.L2:
  45:src/_thread.cpp ****     running->body(running->args);
  50              		.loc 1 45 5 is_stmt 1
  51              		.loc 1 45 14 is_stmt 0
  52 0034 03B70700 		ld	a4,0(a5)
  53              		.loc 1 45 18
  54 0038 03B58700 		ld	a0,8(a5)
  55 003c E7000700 		jalr	a4
  56              	.LVL4:
  46:src/_thread.cpp **** //    if(_thread::semMaxThreads) sem_signal(_thread::semMaxThreads);
  47:src/_thread.cpp ****     thread_exit();
  57              		.loc 1 47 5 is_stmt 1
  58              		.loc 1 47 16 is_stmt 0
  59 0040 97000000 		call	_Z11thread_exitv@plt
  59      E7800000 
  60              	.LVL5:
  48:src/_thread.cpp **** }
  61              		.loc 1 48 1
  62 0048 83308100 		ld	ra,8(sp)
  63              		.cfi_restore 1
  64 004c 03340100 		ld	s0,0(sp)
  65              		.cfi_restore 8
  66              		.cfi_def_cfa 2, 16
  67 0050 13010101 		addi	sp,sp,16
  68              		.cfi_def_cfa_offset 0
  69 0054 67800000 		jr	ra
  70              		.cfi_endproc
  71              	.LFE40:
  73              		.align	2
  74              		.globl	_ZN7_thread12createThreadEPFvPvES0_
  76              	_ZN7_thread12createThreadEPFvPvES0_:
  77              	.LFB37:
  13:src/_thread.cpp ****     _thread* newThread = new _thread(body, args);
  78              		.loc 1 13 1 is_stmt 1
  79              		.cfi_startproc
  80              		.cfi_personality 0x9b,DW.ref.__gxx_personality_v0
  81              		.cfi_lsda 0x1b,.LLSDA37
  82              	.LVL6:
  83 0058 130101FD 		addi	sp,sp,-48
  84              		.cfi_def_cfa_offset 48
  85 005c 23341102 		sd	ra,40(sp)
  86 0060 23308102 		sd	s0,32(sp)
  87 0064 233C9100 		sd	s1,24(sp)
  88 0068 23382101 		sd	s2,16(sp)
  89 006c 23343101 		sd	s3,8(sp)
GAS LISTING /tmp/ccvcHQLG.s 			page 4


  90              		.cfi_offset 1, -8
  91              		.cfi_offset 8, -16
  92              		.cfi_offset 9, -24
  93              		.cfi_offset 18, -32
  94              		.cfi_offset 19, -40
  95 0070 13040103 		addi	s0,sp,48
  96              		.cfi_def_cfa 8, 0
  97 0074 13090500 		mv	s2,a0
  98 0078 93890500 		mv	s3,a1
  14:src/_thread.cpp ****     if(_thread::running){
  99              		.loc 1 14 5
  14:src/_thread.cpp ****     if(_thread::running){
 100              		.loc 1 14 48 is_stmt 0
 101 007c 13058004 		li	a0,72
 102              	.LVL7:
 103              	.LEHB0:
 104 0080 97000000 		call	_Znwm@plt
 104      E7800000 
 105              	.LVL8:
 106              	.LEHE0:
 107 0088 93040500 		mv	s1,a0
 108              	.LVL9:
 109              	.LBB40:
 110              	.LBB41:
  33:src/../h/_thread.hpp ****     void setBlock(bool b);
  34:src/../h/_thread.hpp ****     bool isBlocked() const { return blocked; }
  35:src/../h/_thread.hpp ****     void setSemStatus(int s) { semStatus = s; }
  36:src/../h/_thread.hpp ****     int getSemStatus() const { return semStatus; }
  37:src/../h/_thread.hpp ****     int getThreadID();
  38:src/../h/_thread.hpp **** 
  39:src/../h/_thread.hpp **** 
  40:src/../h/_thread.hpp **** 
  41:src/../h/_thread.hpp **** private:
  42:src/../h/_thread.hpp ****     _thread(Body body, void* args) :
  43:src/../h/_thread.hpp ****             body(body),
  44:src/../h/_thread.hpp ****             args(args),
  45:src/../h/_thread.hpp ****             stack(body != nullptr ? new uint64[DEFAULT_STACK_SIZE] : nullptr),
  46:src/../h/_thread.hpp ****             context({
  47:src/../h/_thread.hpp ****                 (uint64) &threadWrapper,
  48:src/../h/_thread.hpp ****                 stack != nullptr ? (uint64) &stack[DEFAULT_STACK_SIZE] : 0
  49:src/../h/_thread.hpp ****             }),
  50:src/../h/_thread.hpp ****             finished(false),
  51:src/../h/_thread.hpp ****             started(true),
  52:src/../h/_thread.hpp ****             blocked(false),
  53:src/../h/_thread.hpp ****             semStatus(0),
  54:src/../h/_thread.hpp ****             myID(ID++),
  55:src/../h/_thread.hpp ****             children()
 111              		.loc 2 55 22
 112 008c 23302501 		sd	s2,0(a0)
 113 0090 23343501 		sd	s3,8(a0)
  45:src/../h/_thread.hpp ****             context({
 114              		.loc 2 45 35
 115 0094 630A0900 		beqz	s2,.L12
  45:src/../h/_thread.hpp ****             context({
 116              		.loc 2 45 66
 117 0098 37850000 		li	a0,32768
 118              	.LEHB1:
GAS LISTING /tmp/ccvcHQLG.s 			page 5


 119 009c 97000000 		call	_Znam@plt
 119      E7800000 
 120              	.LVL10:
 121 00a4 6F008000 		j	.L6
 122              	.L12:
  45:src/../h/_thread.hpp ****             context({
 123              		.loc 2 45 35
 124 00a8 13050000 		li	a0,0
 125              	.L6:
 126              		.loc 2 55 22
 127 00ac 23B8A400 		sd	a0,16(s1)
 128 00b0 97070000 		lla	a5,_ZN7_thread13threadWrapperEv
 128      93870700 
 129 00b8 23BCF400 		sd	a5,24(s1)
  48:src/../h/_thread.hpp ****             }),
 130              		.loc 2 48 34
 131 00bc 630C0504 		beqz	a0,.L13
  48:src/../h/_thread.hpp ****             }),
 132              		.loc 2 48 45
 133 00c0 B7870000 		li	a5,32768
 134 00c4 B307F500 		add	a5,a0,a5
 135              	.L7:
 136              		.loc 2 55 22
 137 00c8 23B0F402 		sd	a5,32(s1)
 138 00cc 23840402 		sb	zero,40(s1)
 139 00d0 93071000 		li	a5,1
 140 00d4 A384F402 		sb	a5,41(s1)
 141 00d8 23850402 		sb	zero,42(s1)
 142 00dc 23A60402 		sw	zero,44(s1)
  54:src/../h/_thread.hpp ****             children()
 143              		.loc 2 54 20
 144 00e0 17070000 		lla	a4,.LANCHOR0
 144      13070700 
 145 00e8 83278700 		lw	a5,8(a4)
 146 00ec 9B861700 		addiw	a3,a5,1
 147 00f0 2324D700 		sw	a3,8(a4)
 148              		.loc 2 55 22
 149 00f4 23A8F402 		sw	a5,48(s1)
 150              	.LVL11:
 151              	.LBB42:
 152              	.LBB43:
 153              		.file 3 "src/../h/list.hpp"
   1:src/../h/list.hpp **** 
   2:src/../h/list.hpp **** #ifndef OS1_VEZBE07_RISCV_CONTEXT_SWITCH_2_INTERRUPT_LIST_HPP
   3:src/../h/list.hpp **** #define OS1_VEZBE07_RISCV_CONTEXT_SWITCH_2_INTERRUPT_LIST_HPP
   4:src/../h/list.hpp **** 
   5:src/../h/list.hpp **** template<typename T>
   6:src/../h/list.hpp **** class List
   7:src/../h/list.hpp **** {
   8:src/../h/list.hpp **** private:
   9:src/../h/list.hpp ****     struct Elem
  10:src/../h/list.hpp ****     {
  11:src/../h/list.hpp ****         T *data;
  12:src/../h/list.hpp ****         Elem *next;
  13:src/../h/list.hpp **** 
  14:src/../h/list.hpp ****         Elem(T *data, Elem *next) : data(data), next(next) {}
  15:src/../h/list.hpp ****     };
GAS LISTING /tmp/ccvcHQLG.s 			page 6


  16:src/../h/list.hpp **** 
  17:src/../h/list.hpp ****     Elem *head, *tail;
  18:src/../h/list.hpp **** 
  19:src/../h/list.hpp **** public:
  20:src/../h/list.hpp ****     List() : head(0), tail(0) {}
 154              		.loc 3 20 29
 155 00f8 23BC0402 		sd	zero,56(s1)
 156 00fc 23B00404 		sd	zero,64(s1)
 157              	.LVL12:
 158              	.LBE43:
 159              	.LBE42:
  56:src/../h/_thread.hpp **** 
  57:src/../h/_thread.hpp ****     {
  58:src/../h/_thread.hpp ****             if (body != nullptr) { Scheduler::put(this);}
 160              		.loc 2 58 13 is_stmt 1
 161 0100 630E0900 		beqz	s2,.L8
 162              		.loc 2 58 36
 163              		.loc 2 58 50 is_stmt 0
 164 0104 13850400 		mv	a0,s1
 165 0108 97000000 		call	_ZN9Scheduler3putEP7_thread@plt
 165      E7800000 
 166              	.LVL13:
 167              	.LEHE1:
 168 0110 6F00C000 		j	.L8
 169              	.L13:
  48:src/../h/_thread.hpp ****             }),
 170              		.loc 2 48 34
 171 0114 93070000 		li	a5,0
 172 0118 6FF01FFB 		j	.L7
 173              	.L8:
 174              	.LVL14:
 175              	.LBE41:
 176              	.LBE40:
  15:src/_thread.cpp ****         _thread::running->children.addLast(newThread);
 177              		.loc 1 15 5 is_stmt 1
  15:src/_thread.cpp ****         _thread::running->children.addLast(newThread);
 178              		.loc 1 15 24 is_stmt 0
 179 011c 17090000 		ld	s2,.LANCHOR0
 179      03390900 
 180              	.LVL15:
  15:src/_thread.cpp ****         _thread::running->children.addLast(newThread);
 181              		.loc 1 15 5
 182 0124 63040902 		beqz	s2,.L5
  16:src/_thread.cpp ****     }
 183              		.loc 1 16 9 is_stmt 1
 184              	.LVL16:
 185              	.LBB44:
 186              	.LBB45:
  21:src/../h/list.hpp **** 
  22:src/../h/list.hpp ****     List(const List<T> &) = delete;
  23:src/../h/list.hpp **** 
  24:src/../h/list.hpp ****     List<T> &operator=(const List<T> &) = delete;
  25:src/../h/list.hpp **** 
  26:src/../h/list.hpp ****     void addFirst(T *data)
  27:src/../h/list.hpp ****     {
  28:src/../h/list.hpp ****         Elem *elem = new Elem(data, head);
  29:src/../h/list.hpp ****         head = elem;
GAS LISTING /tmp/ccvcHQLG.s 			page 7


  30:src/../h/list.hpp ****         if (!tail) { tail = head; }
  31:src/../h/list.hpp ****     }
  32:src/../h/list.hpp **** 
  33:src/../h/list.hpp ****     void addLast(T *data)
  34:src/../h/list.hpp ****     {
  35:src/../h/list.hpp ****         Elem *elem = new Elem(data, 0);
 187              		.loc 3 35 22 is_stmt 0
 188 0128 13050001 		li	a0,16
 189              	.LEHB2:
 190 012c 97000000 		call	_Znwm@plt
 190      E7800000 
 191              	.LVL17:
 192              	.LBB46:
 193              	.LBB47:
  14:src/../h/list.hpp ****     };
 194              		.loc 3 14 58
 195 0134 23309500 		sd	s1,0(a0)
 196 0138 23340500 		sd	zero,8(a0)
 197              	.LVL18:
 198              	.LBE47:
 199              	.LBE46:
  36:src/../h/list.hpp ****         if (tail)
 200              		.loc 3 36 13
 201 013c 83370904 		ld	a5,64(s2)
 202              		.loc 3 36 9
 203 0140 63860702 		beqz	a5,.L10
  37:src/../h/list.hpp ****         {
  38:src/../h/list.hpp ****             tail->next = elem;
 204              		.loc 3 38 13
 205 0144 23B4A700 		sd	a0,8(a5)
  39:src/../h/list.hpp ****             tail = elem;
 206              		.loc 3 39 13
 207 0148 2330A904 		sd	a0,64(s2)
 208              	.LVL19:
 209              	.L5:
 210              	.LBE45:
 211              	.LBE44:
  19:src/_thread.cpp **** 
 212              		.loc 1 19 1
 213 014c 13850400 		mv	a0,s1
 214 0150 83308102 		ld	ra,40(sp)
 215              		.cfi_remember_state
 216              		.cfi_restore 1
 217 0154 03340102 		ld	s0,32(sp)
 218              		.cfi_restore 8
 219              		.cfi_def_cfa 2, 48
 220 0158 83348101 		ld	s1,24(sp)
 221              		.cfi_restore 9
 222              	.LVL20:
 223 015c 03390101 		ld	s2,16(sp)
 224              		.cfi_restore 18
 225 0160 83398100 		ld	s3,8(sp)
 226              		.cfi_restore 19
 227              	.LVL21:
 228 0164 13010103 		addi	sp,sp,48
 229              		.cfi_def_cfa_offset 0
 230 0168 67800000 		jr	ra
GAS LISTING /tmp/ccvcHQLG.s 			page 8


 231              	.LVL22:
 232              	.L10:
 233              		.cfi_restore_state
 234              	.LBB49:
 235              	.LBB48:
  40:src/../h/list.hpp ****         } else
  41:src/../h/list.hpp ****         {
  42:src/../h/list.hpp ****             head = tail = elem;
 236              		.loc 3 42 13
 237 016c 2330A904 		sd	a0,64(s2)
 238 0170 233CA902 		sd	a0,56(s2)
 239              	.LVL23:
 240              	.LBE48:
 241              	.LBE49:
  18:src/_thread.cpp **** }
 242              		.loc 1 18 5 is_stmt 1
  18:src/_thread.cpp **** }
 243              		.loc 1 18 12 is_stmt 0
 244 0174 6FF09FFD 		j	.L5
 245              	.LVL24:
 246              	.L14:
 247 0178 13090500 		mv	s2,a0
 248              	.LVL25:
  14:src/_thread.cpp ****     if(_thread::running){
 249              		.loc 1 14 48
 250 017c 13850400 		mv	a0,s1
 251 0180 97000000 		call	_ZdlPv@plt
 251      E7800000 
 252              	.LVL26:
 253 0188 13050900 		mv	a0,s2
 254 018c 97000000 		call	_Unwind_Resume@plt
 254      E7800000 
 255              	.LVL27:
 256              	.LEHE2:
 257              		.cfi_endproc
 258              	.LFE37:
 259              		.globl	__gxx_personality_v0
 260              		.section	.gcc_except_table,"a",@progbits
 261              	.LLSDA37:
 262 0000 FF       		.byte	0xff
 263 0001 FF       		.byte	0xff
 264 0002 03       		.byte	0x3
 265 0003 27       		.byte	0x27
 266 0004 00000000 		.4byte	.LEHB0-.LFB37
 267 0008 00000000 		.4byte	.LEHE0-.LEHB0
 268 000c 00000000 		.4byte	0
 269 0010 00       		.byte	0
 270 0011 00000000 		.4byte	.LEHB1-.LFB37
 271 0015 00000000 		.4byte	.LEHE1-.LEHB1
 272 0019 00000000 		.4byte	.L14-.LFB37
 273 001d 00       		.byte	0
 274 001e 00000000 		.4byte	.LEHB2-.LFB37
 275 0022 00000000 		.4byte	.LEHE2-.LEHB2
 276 0026 00000000 		.4byte	0
 277 002a 00       		.byte	0
 278              		.text
 280              		.section	.rodata.str1.8,"aMS",@progbits,1
GAS LISTING /tmp/ccvcHQLG.s 			page 9


 281              		.align	3
 282              	.LC0:
 283 0000 76726174 		.string	"vratili smo null\n"
 283      696C6920 
 283      736D6F20 
 283      6E756C6C 
 283      0A00
 284              		.text
 285              		.align	2
 286              		.globl	_ZN7_thread8dispatchEv
 288              	_ZN7_thread8dispatchEv:
 289              	.LFB38:
  22:src/_thread.cpp ****     _thread *old = running;
 290              		.loc 1 22 1 is_stmt 1
 291              		.cfi_startproc
 292 0194 130101FE 		addi	sp,sp,-32
 293              		.cfi_def_cfa_offset 32
 294 0198 233C1100 		sd	ra,24(sp)
 295 019c 23388100 		sd	s0,16(sp)
 296 01a0 23349100 		sd	s1,8(sp)
 297              		.cfi_offset 1, -8
 298              		.cfi_offset 8, -16
 299              		.cfi_offset 9, -24
 300 01a4 13040102 		addi	s0,sp,32
 301              		.cfi_def_cfa 8, 0
  23:src/_thread.cpp ****     if (!old->isFinished() && !old->isBlocked()) { Scheduler::put(old); }
 302              		.loc 1 23 5
  23:src/_thread.cpp ****     if (!old->isFinished() && !old->isBlocked()) { Scheduler::put(old); }
 303              		.loc 1 23 14 is_stmt 0
 304 01a8 97040000 		ld	s1,.LANCHOR0
 304      83B40400 
 305              	.LVL28:
  24:src/_thread.cpp ****     running = Scheduler::get();
 306              		.loc 1 24 5 is_stmt 1
 307              	.LBB50:
 308              	.LBB51:
  29:src/../h/_thread.hpp ****     void setFinished(bool value) { finished = value; }
 309              		.loc 2 29 31
  29:src/../h/_thread.hpp ****     void setFinished(bool value) { finished = value; }
 310              		.loc 2 29 38 is_stmt 0
 311 01b0 83C78402 		lbu	a5,40(s1)
 312              	.LVL29:
 313              	.LBE51:
 314              	.LBE50:
  24:src/_thread.cpp ****     running = Scheduler::get();
 315              		.loc 1 24 28
 316 01b4 63960700 		bnez	a5,.L17
 317              	.LVL30:
 318              	.LBB52:
 319              	.LBB53:
  34:src/../h/_thread.hpp ****     void setSemStatus(int s) { semStatus = s; }
 320              		.loc 2 34 30 is_stmt 1
  34:src/../h/_thread.hpp ****     void setSemStatus(int s) { semStatus = s; }
 321              		.loc 2 34 37 is_stmt 0
 322 01b8 83C7A402 		lbu	a5,42(s1)
 323              	.LVL31:
 324              	.LBE53:
GAS LISTING /tmp/ccvcHQLG.s 			page 10


 325              	.LBE52:
  24:src/_thread.cpp ****     running = Scheduler::get();
 326              		.loc 1 24 28
 327 01bc 63820704 		beqz	a5,.L20
 328              	.L17:
  25:src/_thread.cpp ****     if (running == nullptr) {
 329              		.loc 1 25 5 is_stmt 1
  25:src/_thread.cpp ****     if (running == nullptr) {
 330              		.loc 1 25 29 is_stmt 0
 331 01c0 97000000 		call	_ZN9Scheduler3getEv@plt
 331      E7800000 
 332              	.LVL32:
  25:src/_thread.cpp ****     if (running == nullptr) {
 333              		.loc 1 25 13
 334 01c8 97070000 		sd	a0,.LANCHOR0,a5
 334      23B0A700 
  26:src/_thread.cpp ****         printString("vratili smo null\n");
 335              		.loc 1 26 5 is_stmt 1
 336 01d0 63000504 		beqz	a0,.L21
 337              	.L18:
  30:src/_thread.cpp **** }
 338              		.loc 1 30 5
  30:src/_thread.cpp **** }
 339              		.loc 1 30 27 is_stmt 0
 340 01d4 97050000 		ld	a1,.LANCHOR0
 340      83B50500 
 341 01dc 93858501 		addi	a1,a1,24
 342 01e0 13858401 		addi	a0,s1,24
 343 01e4 97000000 		call	_ZN7_thread13contextSwitchEPNS_7ContextES1_@plt
 343      E7800000 
 344              	.LVL33:
  31:src/_thread.cpp **** 
 345              		.loc 1 31 1
 346 01ec 83308101 		ld	ra,24(sp)
 347              		.cfi_remember_state
 348              		.cfi_restore 1
 349 01f0 03340101 		ld	s0,16(sp)
 350              		.cfi_restore 8
 351              		.cfi_def_cfa 2, 32
 352 01f4 83348100 		ld	s1,8(sp)
 353              		.cfi_restore 9
 354              	.LVL34:
 355 01f8 13010102 		addi	sp,sp,32
 356              		.cfi_def_cfa_offset 0
 357 01fc 67800000 		jr	ra
 358              	.LVL35:
 359              	.L20:
 360              		.cfi_restore_state
  24:src/_thread.cpp ****     running = Scheduler::get();
 361              		.loc 1 24 52 is_stmt 1
  24:src/_thread.cpp ****     running = Scheduler::get();
 362              		.loc 1 24 66 is_stmt 0
 363 0200 13850400 		mv	a0,s1
 364 0204 97000000 		call	_ZN9Scheduler3putEP7_thread@plt
 364      E7800000 
 365              	.LVL36:
 366 020c 6FF05FFB 		j	.L17
GAS LISTING /tmp/ccvcHQLG.s 			page 11


 367              	.L21:
  27:src/_thread.cpp ****     }
 368              		.loc 1 27 9 is_stmt 1
  27:src/_thread.cpp ****     }
 369              		.loc 1 27 20 is_stmt 0
 370 0210 17050000 		lla	a0,.LC0
 370      13050500 
 371 0218 97000000 		call	_Z11printStringPKc@plt
 371      E7800000 
 372              	.LVL37:
 373 0220 6FF05FFB 		j	.L18
 374              		.cfi_endproc
 375              	.LFE38:
 377              		.align	2
 378              		.globl	_ZN7_thread10exitThreadEv
 380              	_ZN7_thread10exitThreadEv:
 381              	.LFB41:
  49:src/_thread.cpp **** 
  50:src/_thread.cpp **** int _thread::exitThread() {
 382              		.loc 1 50 27 is_stmt 1
 383              		.cfi_startproc
 384 0224 130101FF 		addi	sp,sp,-16
 385              		.cfi_def_cfa_offset 16
 386 0228 23341100 		sd	ra,8(sp)
 387 022c 23308100 		sd	s0,0(sp)
 388              		.cfi_offset 1, -8
 389              		.cfi_offset 8, -16
 390 0230 13040101 		addi	s0,sp,16
 391              		.cfi_def_cfa 8, 0
  51:src/_thread.cpp ****     _thread::running->setFinished(true);
 392              		.loc 1 51 5
 393              	.LVL38:
 394              	.LBB54:
 395              	.LBB55:
  30:src/../h/_thread.hpp ****     void setStart(bool b);
 396              		.loc 2 30 36
  30:src/../h/_thread.hpp ****     void setStart(bool b);
 397              		.loc 2 30 45 is_stmt 0
 398 0234 97070000 		ld	a5,.LANCHOR0
 398      83B70700 
 399 023c 13071000 		li	a4,1
 400 0240 2384E702 		sb	a4,40(a5)
 401              	.LVL39:
 402              	.LBE55:
 403              	.LBE54:
  52:src/_thread.cpp ****     thread_dispatch();
 404              		.loc 1 52 5 is_stmt 1
 405              		.loc 1 52 20 is_stmt 0
 406 0244 97000000 		call	_Z15thread_dispatchv@plt
 406      E7800000 
 407              	.LVL40:
  53:src/_thread.cpp ****     return 0;
 408              		.loc 1 53 5 is_stmt 1
  54:src/_thread.cpp **** }
 409              		.loc 1 54 1 is_stmt 0
 410 024c 13050000 		li	a0,0
 411 0250 83308100 		ld	ra,8(sp)
GAS LISTING /tmp/ccvcHQLG.s 			page 12


 412              		.cfi_restore 1
 413 0254 03340100 		ld	s0,0(sp)
 414              		.cfi_restore 8
 415              		.cfi_def_cfa 2, 16
 416 0258 13010101 		addi	sp,sp,16
 417              		.cfi_def_cfa_offset 0
 418 025c 67800000 		jr	ra
 419              		.cfi_endproc
 420              	.LFE41:
 422              		.align	2
 423              		.globl	_ZN7_thread8setStartEb
 425              	_ZN7_thread8setStartEb:
 426              	.LFB42:
  55:src/_thread.cpp **** 
  56:src/_thread.cpp **** void _thread::setStart(bool b) {
 427              		.loc 1 56 32 is_stmt 1
 428              		.cfi_startproc
 429              	.LVL41:
 430 0260 130101FF 		addi	sp,sp,-16
 431              		.cfi_def_cfa_offset 16
 432 0264 23348100 		sd	s0,8(sp)
 433              		.cfi_offset 8, -8
 434 0268 13040101 		addi	s0,sp,16
 435              		.cfi_def_cfa 8, 0
  57:src/_thread.cpp ****     this->started = b;
 436              		.loc 1 57 5
 437              		.loc 1 57 19 is_stmt 0
 438 026c A304B502 		sb	a1,41(a0)
  58:src/_thread.cpp **** }
 439              		.loc 1 58 1
 440 0270 03348100 		ld	s0,8(sp)
 441              		.cfi_restore 8
 442              		.cfi_def_cfa 2, 16
 443 0274 13010101 		addi	sp,sp,16
 444              		.cfi_def_cfa_offset 0
 445 0278 67800000 		jr	ra
 446              		.cfi_endproc
 447              	.LFE42:
 449              		.align	2
 450              		.globl	_ZN7_thread8setBlockEb
 452              	_ZN7_thread8setBlockEb:
 453              	.LFB43:
  59:src/_thread.cpp **** 
  60:src/_thread.cpp **** void _thread::setBlock(bool b) {
 454              		.loc 1 60 32 is_stmt 1
 455              		.cfi_startproc
 456              	.LVL42:
 457 027c 130101FF 		addi	sp,sp,-16
 458              		.cfi_def_cfa_offset 16
 459 0280 23348100 		sd	s0,8(sp)
 460              		.cfi_offset 8, -8
 461 0284 13040101 		addi	s0,sp,16
 462              		.cfi_def_cfa 8, 0
  61:src/_thread.cpp ****     this->blocked = b;
 463              		.loc 1 61 5
 464              		.loc 1 61 19 is_stmt 0
 465 0288 2305B502 		sb	a1,42(a0)
GAS LISTING /tmp/ccvcHQLG.s 			page 13


  62:src/_thread.cpp **** }
 466              		.loc 1 62 1
 467 028c 03348100 		ld	s0,8(sp)
 468              		.cfi_restore 8
 469              		.cfi_def_cfa 2, 16
 470 0290 13010101 		addi	sp,sp,16
 471              		.cfi_def_cfa_offset 0
 472 0294 67800000 		jr	ra
 473              		.cfi_endproc
 474              	.LFE43:
 476              		.align	2
 477              		.globl	_ZN7_thread4joinEPPS_
 479              	_ZN7_thread4joinEPPS_:
 480              	.LFB44:
  63:src/_thread.cpp **** 
  64:src/_thread.cpp **** void _thread::join(thread_t *handle) {
 481              		.loc 1 64 38 is_stmt 1
 482              		.cfi_startproc
 483              	.LVL43:
 484 0298 130101FE 		addi	sp,sp,-32
 485              		.cfi_def_cfa_offset 32
 486 029c 233C1100 		sd	ra,24(sp)
 487 02a0 23388100 		sd	s0,16(sp)
 488 02a4 23349100 		sd	s1,8(sp)
 489              		.cfi_offset 1, -8
 490              		.cfi_offset 8, -16
 491              		.cfi_offset 9, -24
 492 02a8 13040102 		addi	s0,sp,32
 493              		.cfi_def_cfa 8, 0
 494 02ac 93040500 		mv	s1,a0
 495              	.LVL44:
 496              	.L30:
  65:src/_thread.cpp ****     while(!(*handle)->isFinished()) thread_dispatch();
 497              		.loc 1 65 5 discriminator 2
 498              		.loc 1 65 11 discriminator 2
 499              		.loc 1 65 33 is_stmt 0 discriminator 2
 500 02b0 83B70400 		ld	a5,0(s1)
 501              	.LVL45:
 502              	.LBB56:
 503              	.LBB57:
  29:src/../h/_thread.hpp ****     void setFinished(bool value) { finished = value; }
 504              		.loc 2 29 31 is_stmt 1 discriminator 2
  29:src/../h/_thread.hpp ****     void setFinished(bool value) { finished = value; }
 505              		.loc 2 29 38 is_stmt 0 discriminator 2
 506 02b4 83C78702 		lbu	a5,40(a5)
 507              	.LVL46:
 508              	.LBE57:
 509              	.LBE56:
 510              		.loc 1 65 11 discriminator 2
 511 02b8 63980700 		bnez	a5,.L28
 512              		.loc 1 65 37 is_stmt 1 discriminator 1
 513              		.loc 1 65 52 is_stmt 0 discriminator 1
 514 02bc 97000000 		call	_Z15thread_dispatchv@plt
 514      E7800000 
 515              	.LVL47:
 516              		.loc 1 65 5 discriminator 1
 517 02c4 6FF0DFFE 		j	.L30
GAS LISTING /tmp/ccvcHQLG.s 			page 14


 518              	.L28:
  66:src/_thread.cpp **** }
 519              		.loc 1 66 1
 520 02c8 83308101 		ld	ra,24(sp)
 521              		.cfi_restore 1
 522 02cc 03340101 		ld	s0,16(sp)
 523              		.cfi_restore 8
 524              		.cfi_def_cfa 2, 32
 525 02d0 83348100 		ld	s1,8(sp)
 526              		.cfi_restore 9
 527              	.LVL48:
 528 02d4 13010102 		addi	sp,sp,32
 529              		.cfi_def_cfa_offset 0
 530 02d8 67800000 		jr	ra
 531              		.cfi_endproc
 532              	.LFE44:
 534              		.align	2
 535              		.globl	_ZN7_thread7joinAllEv
 537              	_ZN7_thread7joinAllEv:
 538              	.LFB39:
  33:src/_thread.cpp ****     while (_thread* curr = children.removeFirst()){
 539              		.loc 1 33 24 is_stmt 1
 540              		.cfi_startproc
 541              	.LVL49:
 542 02dc 130101FD 		addi	sp,sp,-48
 543              		.cfi_def_cfa_offset 48
 544 02e0 23341102 		sd	ra,40(sp)
 545 02e4 23308102 		sd	s0,32(sp)
 546 02e8 233C9100 		sd	s1,24(sp)
 547 02ec 23382101 		sd	s2,16(sp)
 548              		.cfi_offset 1, -8
 549              		.cfi_offset 8, -16
 550              		.cfi_offset 9, -24
 551              		.cfi_offset 18, -32
 552 02f0 13040103 		addi	s0,sp,48
 553              		.cfi_def_cfa 8, 0
 554 02f4 13090500 		mv	s2,a0
 555 02f8 6F008002 		j	.L36
 556              	.LVL50:
 557              	.L39:
 558              	.LBB58:
 559              	.LBB59:
 560              	.LBB60:
  43:src/../h/list.hpp ****         }
  44:src/../h/list.hpp ****     }
  45:src/../h/list.hpp **** 
  46:src/../h/list.hpp ****     T *removeFirst()
  47:src/../h/list.hpp ****     {
  48:src/../h/list.hpp ****         if (!head) { return 0; }
  49:src/../h/list.hpp **** 
  50:src/../h/list.hpp ****         Elem *elem = head;
  51:src/../h/list.hpp ****         head = head->next;
  52:src/../h/list.hpp ****         if (!head) { tail = 0; }
 561              		.loc 3 52 22 is_stmt 0
 562 02fc 23300904 		sd	zero,64(s2)
 563              	.L34:
  53:src/../h/list.hpp **** 
GAS LISTING /tmp/ccvcHQLG.s 			page 15


  54:src/../h/list.hpp ****         T *ret = elem->data;
 564              		.loc 3 54 12
 565 0300 83340500 		ld	s1,0(a0)
 566              	.LVL51:
  55:src/../h/list.hpp ****         delete elem;
 567              		.loc 3 55 9
 568 0304 97000000 		call	_ZdlPv@plt
 568      E7800000 
 569              	.LVL52:
 570              	.L33:
 571              	.LBE60:
 572              	.LBE59:
  34:src/_thread.cpp ****         join(&curr);
 573              		.loc 1 34 49
 574 030c 233C94FC 		sd	s1,-40(s0)
 575 0310 63880402 		beqz	s1,.L32
  35:src/_thread.cpp ****     }
 576              		.loc 1 35 9 is_stmt 1
  35:src/_thread.cpp ****     }
 577              		.loc 1 35 13 is_stmt 0
 578 0314 130584FD 		addi	a0,s0,-40
 579 0318 97000000 		call	_ZN7_thread4joinEPPS_
 579      E7800000 
 580              	.LVL53:
 581              	.LBE58:
  34:src/_thread.cpp ****         join(&curr);
 582              		.loc 1 34 5 is_stmt 1
 583              	.L36:
  34:src/_thread.cpp ****         join(&curr);
 584              		.loc 1 34 5
 585              	.LBB63:
 586              	.LBB62:
 587              	.LBB61:
  48:src/../h/list.hpp **** 
 588              		.loc 3 48 14 is_stmt 0
 589 0320 03358903 		ld	a0,56(s2)
  48:src/../h/list.hpp **** 
 590              		.loc 3 48 9
 591 0324 630A0500 		beqz	a0,.L37
 592              	.LVL54:
  51:src/../h/list.hpp ****         if (!head) { tail = 0; }
 593              		.loc 3 51 22
 594 0328 83378500 		ld	a5,8(a0)
  51:src/../h/list.hpp ****         if (!head) { tail = 0; }
 595              		.loc 3 51 9
 596 032c 233CF902 		sd	a5,56(s2)
  52:src/../h/list.hpp **** 
 597              		.loc 3 52 9
 598 0330 E39807FC 		bnez	a5,.L34
 599 0334 6FF09FFC 		j	.L39
 600              	.LVL55:
 601              	.L37:
  48:src/../h/list.hpp **** 
 602              		.loc 3 48 29
 603 0338 93040500 		mv	s1,a0
 604 033c 6FF01FFD 		j	.L33
 605              	.LVL56:
GAS LISTING /tmp/ccvcHQLG.s 			page 16


 606              	.L32:
 607              	.LBE61:
 608              	.LBE62:
 609              	.LBE63:
  38:src/_thread.cpp **** 
 610              		.loc 1 38 1
 611 0340 83308102 		ld	ra,40(sp)
 612              		.cfi_restore 1
 613 0344 03340102 		ld	s0,32(sp)
 614              		.cfi_restore 8
 615              		.cfi_def_cfa 2, 48
 616 0348 83348101 		ld	s1,24(sp)
 617              		.cfi_restore 9
 618 034c 03390101 		ld	s2,16(sp)
 619              		.cfi_restore 18
 620              	.LVL57:
 621 0350 13010103 		addi	sp,sp,48
 622              		.cfi_def_cfa_offset 0
 623 0354 67800000 		jr	ra
 624              		.cfi_endproc
 625              	.LFE39:
 627              		.align	2
 628              		.globl	_ZN7_thread11getThreadIDEv
 630              	_ZN7_thread11getThreadIDEv:
 631              	.LFB45:
  67:src/_thread.cpp **** 
  68:src/_thread.cpp **** int _thread::getThreadID() {
 632              		.loc 1 68 28 is_stmt 1
 633              		.cfi_startproc
 634              	.LVL58:
 635 0358 130101FE 		addi	sp,sp,-32
 636              		.cfi_def_cfa_offset 32
 637 035c 233C1100 		sd	ra,24(sp)
 638 0360 23388100 		sd	s0,16(sp)
 639 0364 23349100 		sd	s1,8(sp)
 640              		.cfi_offset 1, -8
 641              		.cfi_offset 8, -16
 642              		.cfi_offset 9, -24
 643 0368 13040102 		addi	s0,sp,32
 644              		.cfi_def_cfa 8, 0
 645 036c 93040500 		mv	s1,a0
  69:src/_thread.cpp ****     thread_dispatch();
 646              		.loc 1 69 5
 647              		.loc 1 69 20 is_stmt 0
 648 0370 97000000 		call	_Z15thread_dispatchv@plt
 648      E7800000 
 649              	.LVL59:
  70:src/_thread.cpp ****     return myID;
 650              		.loc 1 70 5 is_stmt 1
  71:src/_thread.cpp **** }
 651              		.loc 1 71 1 is_stmt 0
 652 0378 03A50403 		lw	a0,48(s1)
 653 037c 83308101 		ld	ra,24(sp)
 654              		.cfi_restore 1
 655 0380 03340101 		ld	s0,16(sp)
 656              		.cfi_restore 8
 657              		.cfi_def_cfa 2, 32
GAS LISTING /tmp/ccvcHQLG.s 			page 17


 658 0384 83348100 		ld	s1,8(sp)
 659              		.cfi_restore 9
 660              	.LVL60:
 661 0388 13010102 		addi	sp,sp,32
 662              		.cfi_def_cfa_offset 0
 663 038c 67800000 		jr	ra
 664              		.cfi_endproc
 665              	.LFE45:
 667              		.globl	_ZN7_thread2IDE
 668              		.globl	_ZN7_thread7runningE
 669              		.bss
 670              		.align	3
 671              		.set	.LANCHOR0,. + 0
 674              	_ZN7_thread7runningE:
 675 0000 00000000 		.zero	8
 675      00000000 
 678              	_ZN7_thread2IDE:
 679 0008 00000000 		.zero	4
 680              		.text
 681              	.Letext0:
 682              		.file 4 "src/../h/../lib/hw.h"
 683              		.file 5 "src/../h/scheduler.hpp"
 684              		.file 6 "src/../h/syscall_c.hpp"
 685              		.file 7 "src/../h/riscv.hpp"
 686              		.file 8 "src/../test/printing.hpp"
 4362              		.align	3
 4365              	DW.ref.__gxx_personality_v0:
 4366 0000 00000000 		.dword	__gxx_personality_v0
 4366      00000000 
 4367              		.ident	"GCC: (Ubuntu 9.4.0-1ubuntu1~20.04) 9.4.0"
 4368              		.section	.note.GNU-stack,"",@progbits
GAS LISTING /tmp/ccvcHQLG.s 			page 18


DEFINED SYMBOLS
                            *ABS*:0000000000000000 _thread.cpp
     /tmp/ccvcHQLG.s:9      .text:0000000000000000 _ZN7_thread13threadWrapperEv
     /tmp/ccvcHQLG.s:13     .text:0000000000000000 .L0 
     /tmp/ccvcHQLG.s:14     .text:0000000000000000 .L0 
     /tmp/ccvcHQLG.s:15     .text:0000000000000004 .L0 
     /tmp/ccvcHQLG.s:18     .text:000000000000000c .L0 
     /tmp/ccvcHQLG.s:19     .text:000000000000000c .L0 
     /tmp/ccvcHQLG.s:21     .text:0000000000000010 .L0 
     /tmp/ccvcHQLG.s:23     .text:0000000000000010 .L0 
     /tmp/ccvcHQLG.s:24     .text:0000000000000010 .L0 
     /tmp/ccvcHQLG.s:28     .text:0000000000000018 .L0 
     /tmp/ccvcHQLG.s:29     .text:0000000000000018 .L0 
     /tmp/ccvcHQLG.s:30     .text:0000000000000018 .L0 
     /tmp/ccvcHQLG.s:36     .text:0000000000000020 .L0 
     /tmp/ccvcHQLG.s:37     .text:0000000000000020 .L0 
     /tmp/ccvcHQLG.s:42     .text:0000000000000024 .L0 
     /tmp/ccvcHQLG.s:44     .text:0000000000000028 .L0 
     /tmp/ccvcHQLG.s:45     .text:0000000000000028 .L0 
     /tmp/ccvcHQLG.s:48     .text:0000000000000030 .L0 
     /tmp/ccvcHQLG.s:51     .text:0000000000000034 .L0 
     /tmp/ccvcHQLG.s:52     .text:0000000000000034 .L0 
     /tmp/ccvcHQLG.s:54     .text:0000000000000038 .L0 
     /tmp/ccvcHQLG.s:58     .text:0000000000000040 .L0 
     /tmp/ccvcHQLG.s:59     .text:0000000000000040 .L0 
     /tmp/ccvcHQLG.s:62     .text:0000000000000048 .L0 
     /tmp/ccvcHQLG.s:63     .text:000000000000004c .L0 
     /tmp/ccvcHQLG.s:65     .text:0000000000000050 .L0 
     /tmp/ccvcHQLG.s:66     .text:0000000000000050 .L0 
     /tmp/ccvcHQLG.s:68     .text:0000000000000054 .L0 
     /tmp/ccvcHQLG.s:70     .text:0000000000000058 .L0 
     /tmp/ccvcHQLG.s:76     .text:0000000000000058 _ZN7_thread12createThreadEPFvPvES0_
     /tmp/ccvcHQLG.s:79     .text:0000000000000058 .L0 
     /tmp/ccvcHQLG.s:4365   .data.rel.local.DW.ref.__gxx_personality_v0:0000000000000000 DW.ref.__gxx_personality_v0
     /tmp/ccvcHQLG.s:83     .text:0000000000000058 .L0 
     /tmp/ccvcHQLG.s:84     .text:000000000000005c .L0 
     /tmp/ccvcHQLG.s:90     .text:0000000000000070 .L0 
     /tmp/ccvcHQLG.s:91     .text:0000000000000070 .L0 
     /tmp/ccvcHQLG.s:92     .text:0000000000000070 .L0 
     /tmp/ccvcHQLG.s:93     .text:0000000000000070 .L0 
     /tmp/ccvcHQLG.s:94     .text:0000000000000070 .L0 
     /tmp/ccvcHQLG.s:96     .text:0000000000000074 .L0 
     /tmp/ccvcHQLG.s:100    .text:000000000000007c .L0 
     /tmp/ccvcHQLG.s:101    .text:000000000000007c .L0 
     /tmp/ccvcHQLG.s:112    .text:000000000000008c .L0 
     /tmp/ccvcHQLG.s:115    .text:0000000000000094 .L0 
     /tmp/ccvcHQLG.s:117    .text:0000000000000098 .L0 
     /tmp/ccvcHQLG.s:124    .text:00000000000000a8 .L0 
     /tmp/ccvcHQLG.s:127    .text:00000000000000ac .L0 
     /tmp/ccvcHQLG.s:131    .text:00000000000000bc .L0 
     /tmp/ccvcHQLG.s:133    .text:00000000000000c0 .L0 
     /tmp/ccvcHQLG.s:137    .text:00000000000000c8 .L0 
     /tmp/ccvcHQLG.s:144    .text:00000000000000e0 .L0 
     /tmp/ccvcHQLG.s:149    .text:00000000000000f4 .L0 
     /tmp/ccvcHQLG.s:155    .text:00000000000000f8 .L0 
     /tmp/ccvcHQLG.s:161    .text:0000000000000100 .L0 
     /tmp/ccvcHQLG.s:163    .text:0000000000000104 .L0 
GAS LISTING /tmp/ccvcHQLG.s 			page 19


     /tmp/ccvcHQLG.s:164    .text:0000000000000104 .L0 
     /tmp/ccvcHQLG.s:171    .text:0000000000000114 .L0 
     /tmp/ccvcHQLG.s:178    .text:000000000000011c .L0 
     /tmp/ccvcHQLG.s:179    .text:000000000000011c .L0 
     /tmp/ccvcHQLG.s:182    .text:0000000000000124 .L0 
     /tmp/ccvcHQLG.s:187    .text:0000000000000128 .L0 
     /tmp/ccvcHQLG.s:188    .text:0000000000000128 .L0 
     /tmp/ccvcHQLG.s:195    .text:0000000000000134 .L0 
     /tmp/ccvcHQLG.s:201    .text:000000000000013c .L0 
     /tmp/ccvcHQLG.s:203    .text:0000000000000140 .L0 
     /tmp/ccvcHQLG.s:205    .text:0000000000000144 .L0 
     /tmp/ccvcHQLG.s:207    .text:0000000000000148 .L0 
     /tmp/ccvcHQLG.s:213    .text:000000000000014c .L0 
     /tmp/ccvcHQLG.s:215    .text:0000000000000154 .L0 
     /tmp/ccvcHQLG.s:216    .text:0000000000000154 .L0 
     /tmp/ccvcHQLG.s:218    .text:0000000000000158 .L0 
     /tmp/ccvcHQLG.s:219    .text:0000000000000158 .L0 
     /tmp/ccvcHQLG.s:221    .text:000000000000015c .L0 
     /tmp/ccvcHQLG.s:224    .text:0000000000000160 .L0 
     /tmp/ccvcHQLG.s:226    .text:0000000000000164 .L0 
     /tmp/ccvcHQLG.s:229    .text:0000000000000168 .L0 
     /tmp/ccvcHQLG.s:233    .text:000000000000016c .L0 
     /tmp/ccvcHQLG.s:237    .text:000000000000016c .L0 
     /tmp/ccvcHQLG.s:243    .text:0000000000000174 .L0 
     /tmp/ccvcHQLG.s:244    .text:0000000000000174 .L0 
     /tmp/ccvcHQLG.s:250    .text:000000000000017c .L0 
     /tmp/ccvcHQLG.s:257    .text:0000000000000194 .L0 
     /tmp/ccvcHQLG.s:288    .text:0000000000000194 _ZN7_thread8dispatchEv
     /tmp/ccvcHQLG.s:291    .text:0000000000000194 .L0 
     /tmp/ccvcHQLG.s:292    .text:0000000000000194 .L0 
     /tmp/ccvcHQLG.s:293    .text:0000000000000198 .L0 
     /tmp/ccvcHQLG.s:297    .text:00000000000001a4 .L0 
     /tmp/ccvcHQLG.s:298    .text:00000000000001a4 .L0 
     /tmp/ccvcHQLG.s:299    .text:00000000000001a4 .L0 
     /tmp/ccvcHQLG.s:301    .text:00000000000001a8 .L0 
     /tmp/ccvcHQLG.s:303    .text:00000000000001a8 .L0 
     /tmp/ccvcHQLG.s:304    .text:00000000000001a8 .L0 
     /tmp/ccvcHQLG.s:309    .text:00000000000001b0 .L0 
     /tmp/ccvcHQLG.s:310    .text:00000000000001b0 .L0 
     /tmp/ccvcHQLG.s:311    .text:00000000000001b0 .L0 
     /tmp/ccvcHQLG.s:316    .text:00000000000001b4 .L0 
     /tmp/ccvcHQLG.s:321    .text:00000000000001b8 .L0 
     /tmp/ccvcHQLG.s:322    .text:00000000000001b8 .L0 
     /tmp/ccvcHQLG.s:327    .text:00000000000001bc .L0 
     /tmp/ccvcHQLG.s:330    .text:00000000000001c0 .L0 
     /tmp/ccvcHQLG.s:331    .text:00000000000001c0 .L0 
     /tmp/ccvcHQLG.s:334    .text:00000000000001c8 .L0 
     /tmp/ccvcHQLG.s:336    .text:00000000000001d0 .L0 
     /tmp/ccvcHQLG.s:339    .text:00000000000001d4 .L0 
     /tmp/ccvcHQLG.s:340    .text:00000000000001d4 .L0 
     /tmp/ccvcHQLG.s:346    .text:00000000000001ec .L0 
     /tmp/ccvcHQLG.s:347    .text:00000000000001f0 .L0 
     /tmp/ccvcHQLG.s:348    .text:00000000000001f0 .L0 
     /tmp/ccvcHQLG.s:350    .text:00000000000001f4 .L0 
     /tmp/ccvcHQLG.s:351    .text:00000000000001f4 .L0 
     /tmp/ccvcHQLG.s:353    .text:00000000000001f8 .L0 
     /tmp/ccvcHQLG.s:356    .text:00000000000001fc .L0 
GAS LISTING /tmp/ccvcHQLG.s 			page 20


     /tmp/ccvcHQLG.s:360    .text:0000000000000200 .L0 
     /tmp/ccvcHQLG.s:362    .text:0000000000000200 .L0 
     /tmp/ccvcHQLG.s:363    .text:0000000000000200 .L0 
     /tmp/ccvcHQLG.s:369    .text:0000000000000210 .L0 
     /tmp/ccvcHQLG.s:370    .text:0000000000000210 .L0 
     /tmp/ccvcHQLG.s:374    .text:0000000000000224 .L0 
     /tmp/ccvcHQLG.s:380    .text:0000000000000224 _ZN7_thread10exitThreadEv
     /tmp/ccvcHQLG.s:383    .text:0000000000000224 .L0 
     /tmp/ccvcHQLG.s:384    .text:0000000000000224 .L0 
     /tmp/ccvcHQLG.s:385    .text:0000000000000228 .L0 
     /tmp/ccvcHQLG.s:388    .text:0000000000000230 .L0 
     /tmp/ccvcHQLG.s:389    .text:0000000000000230 .L0 
     /tmp/ccvcHQLG.s:391    .text:0000000000000234 .L0 
     /tmp/ccvcHQLG.s:396    .text:0000000000000234 .L0 
     /tmp/ccvcHQLG.s:397    .text:0000000000000234 .L0 
     /tmp/ccvcHQLG.s:398    .text:0000000000000234 .L0 
     /tmp/ccvcHQLG.s:405    .text:0000000000000244 .L0 
     /tmp/ccvcHQLG.s:406    .text:0000000000000244 .L0 
     /tmp/ccvcHQLG.s:409    .text:000000000000024c .L0 
     /tmp/ccvcHQLG.s:410    .text:000000000000024c .L0 
     /tmp/ccvcHQLG.s:412    .text:0000000000000254 .L0 
     /tmp/ccvcHQLG.s:414    .text:0000000000000258 .L0 
     /tmp/ccvcHQLG.s:415    .text:0000000000000258 .L0 
     /tmp/ccvcHQLG.s:417    .text:000000000000025c .L0 
     /tmp/ccvcHQLG.s:419    .text:0000000000000260 .L0 
     /tmp/ccvcHQLG.s:425    .text:0000000000000260 _ZN7_thread8setStartEb
     /tmp/ccvcHQLG.s:428    .text:0000000000000260 .L0 
     /tmp/ccvcHQLG.s:430    .text:0000000000000260 .L0 
     /tmp/ccvcHQLG.s:431    .text:0000000000000264 .L0 
     /tmp/ccvcHQLG.s:433    .text:0000000000000268 .L0 
     /tmp/ccvcHQLG.s:435    .text:000000000000026c .L0 
     /tmp/ccvcHQLG.s:437    .text:000000000000026c .L0 
     /tmp/ccvcHQLG.s:438    .text:000000000000026c .L0 
     /tmp/ccvcHQLG.s:440    .text:0000000000000270 .L0 
     /tmp/ccvcHQLG.s:441    .text:0000000000000274 .L0 
     /tmp/ccvcHQLG.s:442    .text:0000000000000274 .L0 
     /tmp/ccvcHQLG.s:444    .text:0000000000000278 .L0 
     /tmp/ccvcHQLG.s:446    .text:000000000000027c .L0 
     /tmp/ccvcHQLG.s:452    .text:000000000000027c _ZN7_thread8setBlockEb
     /tmp/ccvcHQLG.s:455    .text:000000000000027c .L0 
     /tmp/ccvcHQLG.s:457    .text:000000000000027c .L0 
     /tmp/ccvcHQLG.s:458    .text:0000000000000280 .L0 
     /tmp/ccvcHQLG.s:460    .text:0000000000000284 .L0 
     /tmp/ccvcHQLG.s:462    .text:0000000000000288 .L0 
     /tmp/ccvcHQLG.s:464    .text:0000000000000288 .L0 
     /tmp/ccvcHQLG.s:465    .text:0000000000000288 .L0 
     /tmp/ccvcHQLG.s:467    .text:000000000000028c .L0 
     /tmp/ccvcHQLG.s:468    .text:0000000000000290 .L0 
     /tmp/ccvcHQLG.s:469    .text:0000000000000290 .L0 
     /tmp/ccvcHQLG.s:471    .text:0000000000000294 .L0 
     /tmp/ccvcHQLG.s:473    .text:0000000000000298 .L0 
     /tmp/ccvcHQLG.s:479    .text:0000000000000298 _ZN7_thread4joinEPPS_
     /tmp/ccvcHQLG.s:482    .text:0000000000000298 .L0 
     /tmp/ccvcHQLG.s:484    .text:0000000000000298 .L0 
     /tmp/ccvcHQLG.s:485    .text:000000000000029c .L0 
     /tmp/ccvcHQLG.s:489    .text:00000000000002a8 .L0 
     /tmp/ccvcHQLG.s:490    .text:00000000000002a8 .L0 
GAS LISTING /tmp/ccvcHQLG.s 			page 21


     /tmp/ccvcHQLG.s:491    .text:00000000000002a8 .L0 
     /tmp/ccvcHQLG.s:493    .text:00000000000002ac .L0 
     /tmp/ccvcHQLG.s:498    .text:00000000000002b0 .L0 
     /tmp/ccvcHQLG.s:499    .text:00000000000002b0 .L0 
     /tmp/ccvcHQLG.s:500    .text:00000000000002b0 .L0 
     /tmp/ccvcHQLG.s:505    .text:00000000000002b4 .L0 
     /tmp/ccvcHQLG.s:506    .text:00000000000002b4 .L0 
     /tmp/ccvcHQLG.s:511    .text:00000000000002b8 .L0 
     /tmp/ccvcHQLG.s:513    .text:00000000000002bc .L0 
     /tmp/ccvcHQLG.s:514    .text:00000000000002bc .L0 
     /tmp/ccvcHQLG.s:517    .text:00000000000002c4 .L0 
     /tmp/ccvcHQLG.s:520    .text:00000000000002c8 .L0 
     /tmp/ccvcHQLG.s:521    .text:00000000000002cc .L0 
     /tmp/ccvcHQLG.s:523    .text:00000000000002d0 .L0 
     /tmp/ccvcHQLG.s:524    .text:00000000000002d0 .L0 
     /tmp/ccvcHQLG.s:526    .text:00000000000002d4 .L0 
     /tmp/ccvcHQLG.s:529    .text:00000000000002d8 .L0 
     /tmp/ccvcHQLG.s:531    .text:00000000000002dc .L0 
     /tmp/ccvcHQLG.s:537    .text:00000000000002dc _ZN7_thread7joinAllEv
     /tmp/ccvcHQLG.s:540    .text:00000000000002dc .L0 
     /tmp/ccvcHQLG.s:542    .text:00000000000002dc .L0 
     /tmp/ccvcHQLG.s:543    .text:00000000000002e0 .L0 
     /tmp/ccvcHQLG.s:548    .text:00000000000002f0 .L0 
     /tmp/ccvcHQLG.s:549    .text:00000000000002f0 .L0 
     /tmp/ccvcHQLG.s:550    .text:00000000000002f0 .L0 
     /tmp/ccvcHQLG.s:551    .text:00000000000002f0 .L0 
     /tmp/ccvcHQLG.s:553    .text:00000000000002f4 .L0 
     /tmp/ccvcHQLG.s:562    .text:00000000000002fc .L0 
     /tmp/ccvcHQLG.s:565    .text:0000000000000300 .L0 
     /tmp/ccvcHQLG.s:568    .text:0000000000000304 .L0 
     /tmp/ccvcHQLG.s:574    .text:000000000000030c .L0 
     /tmp/ccvcHQLG.s:577    .text:0000000000000314 .L0 
     /tmp/ccvcHQLG.s:578    .text:0000000000000314 .L0 
     /tmp/ccvcHQLG.s:584    .text:0000000000000320 .L0 
     /tmp/ccvcHQLG.s:588    .text:0000000000000320 .L0 
     /tmp/ccvcHQLG.s:589    .text:0000000000000320 .L0 
     /tmp/ccvcHQLG.s:591    .text:0000000000000324 .L0 
     /tmp/ccvcHQLG.s:594    .text:0000000000000328 .L0 
     /tmp/ccvcHQLG.s:596    .text:000000000000032c .L0 
     /tmp/ccvcHQLG.s:598    .text:0000000000000330 .L0 
     /tmp/ccvcHQLG.s:603    .text:0000000000000338 .L0 
     /tmp/ccvcHQLG.s:611    .text:0000000000000340 .L0 
     /tmp/ccvcHQLG.s:612    .text:0000000000000344 .L0 
     /tmp/ccvcHQLG.s:614    .text:0000000000000348 .L0 
     /tmp/ccvcHQLG.s:615    .text:0000000000000348 .L0 
     /tmp/ccvcHQLG.s:617    .text:000000000000034c .L0 
     /tmp/ccvcHQLG.s:619    .text:0000000000000350 .L0 
     /tmp/ccvcHQLG.s:622    .text:0000000000000354 .L0 
     /tmp/ccvcHQLG.s:624    .text:0000000000000358 .L0 
     /tmp/ccvcHQLG.s:630    .text:0000000000000358 _ZN7_thread11getThreadIDEv
     /tmp/ccvcHQLG.s:633    .text:0000000000000358 .L0 
     /tmp/ccvcHQLG.s:635    .text:0000000000000358 .L0 
     /tmp/ccvcHQLG.s:636    .text:000000000000035c .L0 
     /tmp/ccvcHQLG.s:640    .text:0000000000000368 .L0 
     /tmp/ccvcHQLG.s:641    .text:0000000000000368 .L0 
     /tmp/ccvcHQLG.s:642    .text:0000000000000368 .L0 
     /tmp/ccvcHQLG.s:644    .text:000000000000036c .L0 
GAS LISTING /tmp/ccvcHQLG.s 			page 22


     /tmp/ccvcHQLG.s:647    .text:0000000000000370 .L0 
     /tmp/ccvcHQLG.s:648    .text:0000000000000370 .L0 
     /tmp/ccvcHQLG.s:651    .text:0000000000000378 .L0 
     /tmp/ccvcHQLG.s:652    .text:0000000000000378 .L0 
     /tmp/ccvcHQLG.s:654    .text:0000000000000380 .L0 
     /tmp/ccvcHQLG.s:656    .text:0000000000000384 .L0 
     /tmp/ccvcHQLG.s:657    .text:0000000000000384 .L0 
     /tmp/ccvcHQLG.s:659    .text:0000000000000388 .L0 
     /tmp/ccvcHQLG.s:662    .text:000000000000038c .L0 
     /tmp/ccvcHQLG.s:664    .text:0000000000000390 .L0 
     /tmp/ccvcHQLG.s:678    .bss:0000000000000008 _ZN7_thread2IDE
     /tmp/ccvcHQLG.s:674    .bss:0000000000000000 _ZN7_thread7runningE
     /tmp/ccvcHQLG.s:671    .bss:0000000000000000 .LANCHOR0
     /tmp/ccvcHQLG.s:687    .text:0000000000000390 .L0 
     /tmp/ccvcHQLG.s:30     .text:0000000000000018 .L0 
     /tmp/ccvcHQLG.s:128    .text:00000000000000b0 .L0 
     /tmp/ccvcHQLG.s:144    .text:00000000000000e0 .L0 
     /tmp/ccvcHQLG.s:179    .text:000000000000011c .L0 
     /tmp/ccvcHQLG.s:304    .text:00000000000001a8 .L0 
     /tmp/ccvcHQLG.s:334    .text:00000000000001c8 .L0 
     /tmp/ccvcHQLG.s:340    .text:00000000000001d4 .L0 
     /tmp/ccvcHQLG.s:282    .rodata.str1.8:0000000000000000 .LC0
     /tmp/ccvcHQLG.s:370    .text:0000000000000210 .L0 
     /tmp/ccvcHQLG.s:398    .text:0000000000000234 .L0 
     /tmp/ccvcHQLG.s:49     .text:0000000000000034 .L2
     /tmp/ccvcHQLG.s:26     .text:0000000000000018 .L3
     /tmp/ccvcHQLG.s:122    .text:00000000000000a8 .L12
     /tmp/ccvcHQLG.s:125    .text:00000000000000ac .L6
     /tmp/ccvcHQLG.s:169    .text:0000000000000114 .L13
     /tmp/ccvcHQLG.s:173    .text:000000000000011c .L8
     /tmp/ccvcHQLG.s:135    .text:00000000000000c8 .L7
     /tmp/ccvcHQLG.s:209    .text:000000000000014c .L5
     /tmp/ccvcHQLG.s:232    .text:000000000000016c .L10
     /tmp/ccvcHQLG.s:328    .text:00000000000001c0 .L17
     /tmp/ccvcHQLG.s:359    .text:0000000000000200 .L20
     /tmp/ccvcHQLG.s:367    .text:0000000000000210 .L21
     /tmp/ccvcHQLG.s:337    .text:00000000000001d4 .L18
     /tmp/ccvcHQLG.s:518    .text:00000000000002c8 .L28
     /tmp/ccvcHQLG.s:496    .text:00000000000002b0 .L30
     /tmp/ccvcHQLG.s:583    .text:0000000000000320 .L36
     /tmp/ccvcHQLG.s:606    .text:0000000000000340 .L32
     /tmp/ccvcHQLG.s:601    .text:0000000000000338 .L37
     /tmp/ccvcHQLG.s:563    .text:0000000000000300 .L34
     /tmp/ccvcHQLG.s:557    .text:00000000000002fc .L39
     /tmp/ccvcHQLG.s:570    .text:000000000000030c .L33
     /tmp/ccvcHQLG.s:103    .text:0000000000000080 .LEHB0
     /tmp/ccvcHQLG.s:77     .text:0000000000000058 .LFB37
     /tmp/ccvcHQLG.s:106    .text:0000000000000088 .LEHE0
     /tmp/ccvcHQLG.s:118    .text:000000000000009c .LEHB1
     /tmp/ccvcHQLG.s:167    .text:0000000000000110 .LEHE1
     /tmp/ccvcHQLG.s:246    .text:0000000000000178 .L14
     /tmp/ccvcHQLG.s:189    .text:000000000000012c .LEHB2
     /tmp/ccvcHQLG.s:256    .text:0000000000000194 .LEHE2
     /tmp/ccvcHQLG.s:2501   .debug_abbrev:0000000000000000 .Ldebug_abbrev0
     /tmp/ccvcHQLG.s:4273   .debug_str:00000000000008c0 .LASF180
     /tmp/ccvcHQLG.s:4017   .debug_str:00000000000000f6 .LASF181
     /tmp/ccvcHQLG.s:4075   .debug_str:00000000000002f4 .LASF182
GAS LISTING /tmp/ccvcHQLG.s 			page 23


     /tmp/ccvcHQLG.s:5      .text:0000000000000000 .Ltext0
     /tmp/ccvcHQLG.s:681    .text:0000000000000390 .Letext0
     /tmp/ccvcHQLG.s:3979   .debug_line:0000000000000000 .Ldebug_line0
     /tmp/ccvcHQLG.s:4093   .debug_str:00000000000003a7 .LASF0
     /tmp/ccvcHQLG.s:4121   .debug_str:00000000000004a3 .LASF1
     /tmp/ccvcHQLG.s:4209   .debug_str:000000000000070b .LASF2
     /tmp/ccvcHQLG.s:4055   .debug_str:0000000000000261 .LASF3
     /tmp/ccvcHQLG.s:4217   .debug_str:0000000000000751 .LASF4
     /tmp/ccvcHQLG.s:4103   .debug_str:00000000000003ca .LASF5
     /tmp/ccvcHQLG.s:3993   .debug_str:000000000000005a .LASF6
     /tmp/ccvcHQLG.s:4173   .debug_str:00000000000005ef .LASF7
     /tmp/ccvcHQLG.s:4111   .debug_str:0000000000000446 .LASF8
     /tmp/ccvcHQLG.s:4073   .debug_str:00000000000002e4 .LASF9
     /tmp/ccvcHQLG.s:4079   .debug_str:000000000000032e .LASF10
     /tmp/ccvcHQLG.s:4057   .debug_str:0000000000000267 .LASF11
     /tmp/ccvcHQLG.s:4063   .debug_str:0000000000000293 .LASF12
     /tmp/ccvcHQLG.s:4031   .debug_str:0000000000000179 .LASF13
     /tmp/ccvcHQLG.s:4015   .debug_str:00000000000000e6 .LASF14
     /tmp/ccvcHQLG.s:4245   .debug_str:00000000000007fe .LASF15
     /tmp/ccvcHQLG.s:4053   .debug_str:000000000000024b .LASF16
     /tmp/ccvcHQLG.s:4235   .debug_str:00000000000007aa .LASF17
     /tmp/ccvcHQLG.s:4071   .debug_str:00000000000002da .LASF18
     /tmp/ccvcHQLG.s:4257   .debug_str:0000000000000842 .LASF153
     /tmp/ccvcHQLG.s:4333   .debug_str:0000000000000b5e .LASF183
     /tmp/ccvcHQLG.s:4107   .debug_str:0000000000000408 .LASF184
     /tmp/ccvcHQLG.s:4355   .debug_str:0000000000000c1e .LASF19
     /tmp/ccvcHQLG.s:4291   .debug_str:0000000000000a1c .LASF22
     /tmp/ccvcHQLG.s:4119   .debug_str:000000000000049e .LASF20
     /tmp/ccvcHQLG.s:4019   .debug_str:0000000000000106 .LASF21
     /tmp/ccvcHQLG.s:4271   .debug_str:000000000000089d .LASF78
     /tmp/ccvcHQLG.s:4239   .debug_str:00000000000007d1 .LASF23
     /tmp/ccvcHQLG.s:4155   .debug_str:000000000000058c .LASF24
     /tmp/ccvcHQLG.s:4149   .debug_str:0000000000000575 .LASF25
     /tmp/ccvcHQLG.s:4299   .debug_str:0000000000000a58 .LASF27
     /tmp/ccvcHQLG.s:4191   .debug_str:0000000000000683 .LASF32
     /tmp/ccvcHQLG.s:4213   .debug_str:000000000000072f .LASF185
     /tmp/ccvcHQLG.s:4083   .debug_str:0000000000000351 .LASF186
     /tmp/ccvcHQLG.s:4203   .debug_str:00000000000006ee .LASF26
     /tmp/ccvcHQLG.s:4341   .debug_str:0000000000000ba2 .LASF28
     /tmp/ccvcHQLG.s:4135   .debug_str:0000000000000519 .LASF29
     /tmp/ccvcHQLG.s:4301   .debug_str:0000000000000a6f .LASF30
     /tmp/ccvcHQLG.s:4171   .debug_str:00000000000005e3 .LASF31
     /tmp/ccvcHQLG.s:4113   .debug_str:0000000000000459 .LASF33
     /tmp/ccvcHQLG.s:4357   .debug_str:0000000000000c2c .LASF34
     /tmp/ccvcHQLG.s:4327   .debug_str:0000000000000b1a .LASF35
     /tmp/ccvcHQLG.s:4227   .debug_str:000000000000078b .LASF36
     /tmp/ccvcHQLG.s:4065   .debug_str:00000000000002a2 .LASF37
     /tmp/ccvcHQLG.s:4195   .debug_str:00000000000006b2 .LASF38
     /tmp/ccvcHQLG.s:4023   .debug_str:000000000000011e .LASF39
     /tmp/ccvcHQLG.s:4001   .debug_str:0000000000000090 .LASF40
     /tmp/ccvcHQLG.s:4253   .debug_str:000000000000082f .LASF41
     /tmp/ccvcHQLG.s:4249   .debug_str:0000000000000816 .LASF42
     /tmp/ccvcHQLG.s:4117   .debug_str:000000000000048e .LASF43
     /tmp/ccvcHQLG.s:4243   .debug_str:00000000000007f1 .LASF44
     /tmp/ccvcHQLG.s:4287   .debug_str:00000000000009ef .LASF45
     /tmp/ccvcHQLG.s:4169   .debug_str:00000000000005de .LASF187
     /tmp/ccvcHQLG.s:4123   .debug_str:00000000000004b6 .LASF109
GAS LISTING /tmp/ccvcHQLG.s 			page 24


     /tmp/ccvcHQLG.s:3985   .debug_str:0000000000000018 .LASF111
     /tmp/ccvcHQLG.s:4269   .debug_str:0000000000000895 .LASF46
     /tmp/ccvcHQLG.s:4007   .debug_str:00000000000000b1 .LASF47
     /tmp/ccvcHQLG.s:4347   .debug_str:0000000000000be8 .LASF48
     /tmp/ccvcHQLG.s:4353   .debug_str:0000000000000c04 .LASF114
     /tmp/ccvcHQLG.s:4255   .debug_str:0000000000000837 .LASF49
     /tmp/ccvcHQLG.s:4241   .debug_str:00000000000007d6 .LASF50
     /tmp/ccvcHQLG.s:4267   .debug_str:0000000000000889 .LASF51
     /tmp/ccvcHQLG.s:4297   .debug_str:0000000000000a3d .LASF52
     /tmp/ccvcHQLG.s:4133   .debug_str:0000000000000510 .LASF53
     /tmp/ccvcHQLG.s:4281   .debug_str:00000000000009bb .LASF54
     /tmp/ccvcHQLG.s:4157   .debug_str:0000000000000591 .LASF55
     /tmp/ccvcHQLG.s:3987   .debug_str:000000000000002c .LASF56
     /tmp/ccvcHQLG.s:4009   .debug_str:00000000000000bf .LASF57
     /tmp/ccvcHQLG.s:4335   .debug_str:0000000000000b72 .LASF58
     /tmp/ccvcHQLG.s:4315   .debug_str:0000000000000ad3 .LASF59
     /tmp/ccvcHQLG.s:4127   .debug_str:00000000000004d7 .LASF60
     /tmp/ccvcHQLG.s:4187   .debug_str:0000000000000663 .LASF61
     /tmp/ccvcHQLG.s:4319   .debug_str:0000000000000ae5 .LASF62
     /tmp/ccvcHQLG.s:4141   .debug_str:0000000000000536 .LASF63
     /tmp/ccvcHQLG.s:4039   .debug_str:00000000000001b7 .LASF64
     /tmp/ccvcHQLG.s:4183   .debug_str:0000000000000650 .LASF65
     /tmp/ccvcHQLG.s:4125   .debug_str:00000000000004bc .LASF66
     /tmp/ccvcHQLG.s:4129   .debug_str:00000000000004f0 .LASF117
     /tmp/ccvcHQLG.s:3989   .debug_str:0000000000000045 .LASF67
     /tmp/ccvcHQLG.s:4337   .debug_str:0000000000000b89 .LASF68
     /tmp/ccvcHQLG.s:4231   .debug_str:000000000000079b .LASF69
     /tmp/ccvcHQLG.s:4283   .debug_str:00000000000009d2 .LASF70
     /tmp/ccvcHQLG.s:4233   .debug_str:00000000000007a1 .LASF71
     /tmp/ccvcHQLG.s:4005   .debug_str:00000000000000a9 .LASF72
     /tmp/ccvcHQLG.s:4163   .debug_str:00000000000005ba .LASF73
     /tmp/ccvcHQLG.s:4151   .debug_str:000000000000057a .LASF74
     /tmp/ccvcHQLG.s:4099   .debug_str:00000000000003bf .LASF75
     /tmp/ccvcHQLG.s:4033   .debug_str:0000000000000189 .LASF76
     /tmp/ccvcHQLG.s:4011   .debug_str:00000000000000c8 .LASF80
     /tmp/ccvcHQLG.s:4199   .debug_str:00000000000006c2 .LASF82
     /tmp/ccvcHQLG.s:4035   .debug_str:0000000000000192 .LASF77
     /tmp/ccvcHQLG.s:4105   .debug_str:00000000000003dc .LASF79
     /tmp/ccvcHQLG.s:4047   .debug_str:0000000000000210 .LASF81
     /tmp/ccvcHQLG.s:4037   .debug_str:00000000000001a0 .LASF83
     /tmp/ccvcHQLG.s:4263   .debug_str:0000000000000861 .LASF84
     /tmp/ccvcHQLG.s:4329   .debug_str:0000000000000b39 .LASF85
     /tmp/ccvcHQLG.s:4293   .debug_str:0000000000000a21 .LASF86
     /tmp/ccvcHQLG.s:4181   .debug_str:000000000000063a .LASF87
     /tmp/ccvcHQLG.s:4349   .debug_str:0000000000000bf3 .LASF88
     /tmp/ccvcHQLG.s:4323   .debug_str:0000000000000b08 .LASF89
     /tmp/ccvcHQLG.s:4259   .debug_str:0000000000000853 .LASF188
     /tmp/ccvcHQLG.s:4139   .debug_str:0000000000000531 .LASF90
     /tmp/ccvcHQLG.s:4311   .debug_str:0000000000000ab4 .LASF91
     /tmp/ccvcHQLG.s:4137   .debug_str:0000000000000521 .LASF92
     /tmp/ccvcHQLG.s:4275   .debug_str:0000000000000984 .LASF93
     /tmp/ccvcHQLG.s:4051   .debug_str:0000000000000232 .LASF94
     /tmp/ccvcHQLG.s:4025   .debug_str:000000000000013c .LASF95
     /tmp/ccvcHQLG.s:4279   .debug_str:00000000000009a7 .LASF96
     /tmp/ccvcHQLG.s:4045   .debug_str:00000000000001fe .LASF97
     /tmp/ccvcHQLG.s:4211   .debug_str:0000000000000719 .LASF98
     /tmp/ccvcHQLG.s:4067   .debug_str:00000000000002c3 .LASF99
GAS LISTING /tmp/ccvcHQLG.s 			page 25


     /tmp/ccvcHQLG.s:3981   .debug_str:0000000000000000 .LASF100
     /tmp/ccvcHQLG.s:4201   .debug_str:00000000000006df .LASF101
     /tmp/ccvcHQLG.s:4219   .debug_str:0000000000000758 .LASF102
     /tmp/ccvcHQLG.s:4179   .debug_str:000000000000062a .LASF103
     /tmp/ccvcHQLG.s:3997   .debug_str:000000000000006c .LASF104
     /tmp/ccvcHQLG.s:4003   .debug_str:0000000000000098 .LASF105
     /tmp/ccvcHQLG.s:4305   .debug_str:0000000000000a99 .LASF106
     /tmp/ccvcHQLG.s:3983   .debug_str:000000000000000d .LASF107
     /tmp/ccvcHQLG.s:4307   .debug_str:0000000000000aa4 .LASF108
     /tmp/ccvcHQLG.s:4085   .debug_str:000000000000036c .LASF110
     /tmp/ccvcHQLG.s:4091   .debug_str:000000000000038f .LASF112
     /tmp/ccvcHQLG.s:4289   .debug_str:0000000000000a13 .LASF113
     /tmp/ccvcHQLG.s:4285   .debug_str:00000000000009da .LASF115
     /tmp/ccvcHQLG.s:4205   .debug_str:00000000000006f7 .LASF116
     /tmp/ccvcHQLG.s:4165   .debug_str:00000000000005c2 .LASF118
     /tmp/ccvcHQLG.s:4185   .debug_str:000000000000065c .LASF119
     /tmp/ccvcHQLG.s:4189   .debug_str:0000000000000670 .LASF120
     /tmp/ccvcHQLG.s:4159   .debug_str:000000000000059b .LASF121
     /tmp/ccvcHQLG.s:4115   .debug_str:000000000000047b .LASF122
     /tmp/ccvcHQLG.s:4317   .debug_str:0000000000000add .LASF123
     /tmp/ccvcHQLG.s:4277   .debug_str:0000000000000993 .LASF124
     /tmp/ccvcHQLG.s:4153   .debug_str:0000000000000584 .LASF125
     /tmp/ccvcHQLG.s:4339   .debug_str:0000000000000b8e .LASF126
     /tmp/ccvcHQLG.s:4131   .debug_str:0000000000000508 .LASF127
     /tmp/ccvcHQLG.s:4193   .debug_str:000000000000069e .LASF128
     /tmp/ccvcHQLG.s:4351   .debug_str:0000000000000bfc .LASF129
     /tmp/ccvcHQLG.s:4295   .debug_str:0000000000000a29 .LASF130
     /tmp/ccvcHQLG.s:4197   .debug_str:00000000000006bb .LASF131
     /tmp/ccvcHQLG.s:4221   .debug_str:0000000000000767 .LASF132
     /tmp/ccvcHQLG.s:4223   .debug_str:000000000000077a .LASF133
     /tmp/ccvcHQLG.s:4021   .debug_str:000000000000010b .LASF134
     /tmp/ccvcHQLG.s:4027   .debug_str:000000000000015d .LASF135
     /tmp/ccvcHQLG.s:4089   .debug_str:000000000000037d .LASF136
     /tmp/ccvcHQLG.s:4097   .debug_str:00000000000003b9 .LASF137
     /tmp/ccvcHQLG.s:4043   .debug_str:00000000000001ec .LASF138
     /tmp/ccvcHQLG.s:3995   .debug_str:0000000000000061 .LASF139
     /tmp/ccvcHQLG.s:4215   .debug_str:0000000000000739 .LASF140
     /tmp/ccvcHQLG.s:4207   .debug_str:0000000000000700 .LASF141
     /tmp/ccvcHQLG.s:4343   .debug_str:0000000000000bc3 .LASF142
     /tmp/ccvcHQLG.s:4309   .debug_str:0000000000000aaa .LASF143
     /tmp/ccvcHQLG.s:4029   .debug_str:0000000000000163 .LASF144
     /tmp/ccvcHQLG.s:4303   .debug_str:0000000000000a8f .LASF145
     /tmp/ccvcHQLG.s:4147   .debug_str:000000000000055f .LASF146
     /tmp/ccvcHQLG.s:4313   .debug_str:0000000000000ac4 .LASF147
     /tmp/ccvcHQLG.s:4077   .debug_str:0000000000000312 .LASF148
     /tmp/ccvcHQLG.s:4247   .debug_str:000000000000080a .LASF149
     /tmp/ccvcHQLG.s:4049   .debug_str:0000000000000219 .LASF150
     /tmp/ccvcHQLG.s:4177   .debug_str:0000000000000615 .LASF151
     /tmp/ccvcHQLG.s:4109   .debug_str:0000000000000424 .LASF152
     /tmp/ccvcHQLG.s:4261   .debug_str:0000000000000858 .LASF154
     /tmp/ccvcHQLG.s:4081   .debug_str:000000000000033c .LASF155
     /tmp/ccvcHQLG.s:4145   .debug_str:000000000000054f .LASF156
     /tmp/ccvcHQLG.s:4069   .debug_str:00000000000002d5 .LASF157
     /tmp/ccvcHQLG.s:4265   .debug_str:0000000000000866 .LASF159
     /tmp/ccvcHQLG.s:4095   .debug_str:00000000000003b4 .LASF158
     /tmp/ccvcHQLG.s:4059   .debug_str:0000000000000276 .LASF160
     /tmp/ccvcHQLG.s:631    .text:0000000000000358 .LFB45
GAS LISTING /tmp/ccvcHQLG.s 			page 26


     /tmp/ccvcHQLG.s:665    .text:0000000000000390 .LFE45
     /tmp/ccvcHQLG.s:3630   .debug_loc:0000000000000000 .LLST25
     /tmp/ccvcHQLG.s:649    .text:0000000000000378 .LVL59
     /tmp/ccvcHQLG.s:480    .text:0000000000000298 .LFB44
     /tmp/ccvcHQLG.s:532    .text:00000000000002dc .LFE44
     /tmp/ccvcHQLG.s:4321   .debug_str:0000000000000b01 .LASF161
     /tmp/ccvcHQLG.s:3648   .debug_loc:000000000000004c .LLST19
     /tmp/ccvcHQLG.s:502    .text:00000000000002b4 .LBB56
     /tmp/ccvcHQLG.s:509    .text:00000000000002b8 .LBE56
     /tmp/ccvcHQLG.s:3666   .debug_loc:0000000000000098 .LLST20
     /tmp/ccvcHQLG.s:515    .text:00000000000002c4 .LVL47
     /tmp/ccvcHQLG.s:453    .text:000000000000027c .LFB43
     /tmp/ccvcHQLG.s:474    .text:0000000000000298 .LFE43
     /tmp/ccvcHQLG.s:426    .text:0000000000000260 .LFB42
     /tmp/ccvcHQLG.s:447    .text:000000000000027c .LFE42
     /tmp/ccvcHQLG.s:381    .text:0000000000000224 .LFB41
     /tmp/ccvcHQLG.s:420    .text:0000000000000260 .LFE41
     /tmp/ccvcHQLG.s:394    .text:0000000000000234 .LBB54
     /tmp/ccvcHQLG.s:403    .text:0000000000000244 .LBE54
     /tmp/ccvcHQLG.s:3673   .debug_loc:00000000000000bb .LLST17
     /tmp/ccvcHQLG.s:3681   .debug_loc:00000000000000df .LLST18
     /tmp/ccvcHQLG.s:407    .text:000000000000024c .LVL40
     /tmp/ccvcHQLG.s:10     .text:0000000000000000 .LFB40
     /tmp/ccvcHQLG.s:71     .text:0000000000000058 .LFE40
     /tmp/ccvcHQLG.s:32     .text:0000000000000020 .LBB27
     /tmp/ccvcHQLG.s:40     .text:0000000000000024 .LBE27
     /tmp/ccvcHQLG.s:3689   .debug_loc:000000000000010a .LLST0
     /tmp/ccvcHQLG.s:25     .text:0000000000000018 .LVL0
     /tmp/ccvcHQLG.s:46     .text:0000000000000030 .LVL3
     /tmp/ccvcHQLG.s:60     .text:0000000000000048 .LVL5
     /tmp/ccvcHQLG.s:538    .text:00000000000002dc .LFB39
     /tmp/ccvcHQLG.s:625    .text:0000000000000358 .LFE39
     /tmp/ccvcHQLG.s:3696   .debug_loc:000000000000012d .LLST21
     /tmp/ccvcHQLG.s:3959   .debug_ranges:0000000000000000 .Ldebug_ranges0
     /tmp/ccvcHQLG.s:4229   .debug_str:0000000000000796 .LASF162
     /tmp/ccvcHQLG.s:559    .text:00000000000002fc .LBB59
     /tmp/ccvcHQLG.s:3714   .debug_loc:0000000000000179 .LLST22
     /tmp/ccvcHQLG.s:3729   .debug_loc:00000000000001b3 .LLST23
     /tmp/ccvcHQLG.s:3740   .debug_loc:00000000000001e9 .LLST24
     /tmp/ccvcHQLG.s:569    .text:000000000000030c .LVL52
     /tmp/ccvcHQLG.s:580    .text:0000000000000320 .LVL53
     /tmp/ccvcHQLG.s:289    .text:0000000000000194 .LFB38
     /tmp/ccvcHQLG.s:375    .text:0000000000000224 .LFE38
     /tmp/ccvcHQLG.s:3747   .debug_loc:000000000000020c .LLST14
     /tmp/ccvcHQLG.s:307    .text:00000000000001b0 .LBB50
     /tmp/ccvcHQLG.s:314    .text:00000000000001b4 .LBE50
     /tmp/ccvcHQLG.s:3758   .debug_loc:0000000000000242 .LLST15
     /tmp/ccvcHQLG.s:318    .text:00000000000001b8 .LBB52
     /tmp/ccvcHQLG.s:325    .text:00000000000001bc .LBE52
     /tmp/ccvcHQLG.s:3765   .debug_loc:0000000000000265 .LLST16
     /tmp/ccvcHQLG.s:332    .text:00000000000001c8 .LVL32
     /tmp/ccvcHQLG.s:344    .text:00000000000001ec .LVL33
     /tmp/ccvcHQLG.s:365    .text:000000000000020c .LVL36
     /tmp/ccvcHQLG.s:372    .text:0000000000000220 .LVL37
     /tmp/ccvcHQLG.s:258    .text:0000000000000194 .LFE37
     /tmp/ccvcHQLG.s:3772   .debug_loc:0000000000000288 .LLST1
     /tmp/ccvcHQLG.s:3801   .debug_loc:00000000000002fd .LLST2
GAS LISTING /tmp/ccvcHQLG.s 			page 27


     /tmp/ccvcHQLG.s:4225   .debug_str:0000000000000781 .LASF163
     /tmp/ccvcHQLG.s:3823   .debug_loc:000000000000035c .LLST3
     /tmp/ccvcHQLG.s:109    .text:000000000000008c .LBB40
     /tmp/ccvcHQLG.s:176    .text:000000000000011c .LBE40
     /tmp/ccvcHQLG.s:3838   .debug_loc:00000000000003a5 .LLST4
     /tmp/ccvcHQLG.s:3849   .debug_loc:00000000000003db .LLST5
     /tmp/ccvcHQLG.s:3867   .debug_loc:0000000000000427 .LLST6
     /tmp/ccvcHQLG.s:151    .text:00000000000000f8 .LBB42
     /tmp/ccvcHQLG.s:159    .text:0000000000000100 .LBE42
     /tmp/ccvcHQLG.s:3878   .debug_loc:000000000000045d .LLST7
     /tmp/ccvcHQLG.s:120    .text:00000000000000a4 .LVL10
     /tmp/ccvcHQLG.s:166    .text:0000000000000110 .LVL13
     /tmp/ccvcHQLG.s:185    .text:0000000000000128 .LBB44
     /tmp/ccvcHQLG.s:3887   .debug_loc:0000000000000482 .LLST8
     /tmp/ccvcHQLG.s:3898   .debug_loc:00000000000004b8 .LLST9
     /tmp/ccvcHQLG.s:3913   .debug_loc:00000000000004f2 .LLST10
     /tmp/ccvcHQLG.s:192    .text:0000000000000134 .LBB46
     /tmp/ccvcHQLG.s:199    .text:000000000000013c .LBE46
     /tmp/ccvcHQLG.s:3924   .debug_loc:0000000000000528 .LLST11
     /tmp/ccvcHQLG.s:3932   .debug_loc:000000000000054c .LLST12
     /tmp/ccvcHQLG.s:3939   .debug_loc:000000000000056f .LLST13
     /tmp/ccvcHQLG.s:191    .text:0000000000000134 .LVL17
     /tmp/ccvcHQLG.s:105    .text:0000000000000088 .LVL8
     /tmp/ccvcHQLG.s:252    .text:0000000000000188 .LVL26
     /tmp/ccvcHQLG.s:255    .text:0000000000000194 .LVL27
     /tmp/ccvcHQLG.s:4161   .debug_str:00000000000005a2 .LASF164
     /tmp/ccvcHQLG.s:4087   .debug_str:0000000000000377 .LASF165
     /tmp/ccvcHQLG.s:3999   .debug_str:000000000000007b .LASF166
     /tmp/ccvcHQLG.s:4251   .debug_str:000000000000081f .LASF168
     /tmp/ccvcHQLG.s:4237   .debug_str:00000000000007c0 .LASF167
     /tmp/ccvcHQLG.s:4143   .debug_str:0000000000000543 .LASF169
     /tmp/ccvcHQLG.s:4167   .debug_str:00000000000005d7 .LASF172
     /tmp/ccvcHQLG.s:3991   .debug_str:000000000000004a .LASF174
     /tmp/ccvcHQLG.s:4175   .debug_str:0000000000000602 .LASF170
     /tmp/ccvcHQLG.s:4325   .debug_str:0000000000000b0e .LASF171
     /tmp/ccvcHQLG.s:4101   .debug_str:00000000000003c4 .LASF173
     /tmp/ccvcHQLG.s:4013   .debug_str:00000000000000d6 .LASF175
     /tmp/ccvcHQLG.s:4061   .debug_str:000000000000028d .LASF176
     /tmp/ccvcHQLG.s:4345   .debug_str:0000000000000bdb .LASF177
     /tmp/ccvcHQLG.s:4331   .debug_str:0000000000000b4f .LASF178
     /tmp/ccvcHQLG.s:4041   .debug_str:00000000000001d4 .LASF179
     /tmp/ccvcHQLG.s:634    .text:0000000000000358 .LVL58
     /tmp/ccvcHQLG.s:660    .text:0000000000000388 .LVL60
     /tmp/ccvcHQLG.s:483    .text:0000000000000298 .LVL43
     /tmp/ccvcHQLG.s:495    .text:00000000000002b0 .LVL44
     /tmp/ccvcHQLG.s:527    .text:00000000000002d4 .LVL48
     /tmp/ccvcHQLG.s:501    .text:00000000000002b4 .LVL45
     /tmp/ccvcHQLG.s:507    .text:00000000000002b8 .LVL46
     /tmp/ccvcHQLG.s:393    .text:0000000000000234 .LVL38
     /tmp/ccvcHQLG.s:401    .text:0000000000000244 .LVL39
     /tmp/ccvcHQLG.s:31     .text:0000000000000020 .LVL1
     /tmp/ccvcHQLG.s:38     .text:0000000000000024 .LVL2
     /tmp/ccvcHQLG.s:541    .text:00000000000002dc .LVL49
     /tmp/ccvcHQLG.s:556    .text:00000000000002fc .LVL50
     /tmp/ccvcHQLG.s:620    .text:0000000000000350 .LVL57
     /tmp/ccvcHQLG.s:605    .text:0000000000000340 .LVL56
     /tmp/ccvcHQLG.s:592    .text:0000000000000328 .LVL54
GAS LISTING /tmp/ccvcHQLG.s 			page 28


     /tmp/ccvcHQLG.s:600    .text:0000000000000338 .LVL55
     /tmp/ccvcHQLG.s:566    .text:0000000000000304 .LVL51
     /tmp/ccvcHQLG.s:305    .text:00000000000001b0 .LVL28
     /tmp/ccvcHQLG.s:354    .text:00000000000001f8 .LVL34
     /tmp/ccvcHQLG.s:358    .text:0000000000000200 .LVL35
     /tmp/ccvcHQLG.s:312    .text:00000000000001b4 .LVL29
     /tmp/ccvcHQLG.s:317    .text:00000000000001b8 .LVL30
     /tmp/ccvcHQLG.s:323    .text:00000000000001bc .LVL31
     /tmp/ccvcHQLG.s:82     .text:0000000000000058 .LVL6
     /tmp/ccvcHQLG.s:102    .text:0000000000000080 .LVL7
     /tmp/ccvcHQLG.s:180    .text:0000000000000124 .LVL15
     /tmp/ccvcHQLG.s:245    .text:0000000000000178 .LVL24
     /tmp/ccvcHQLG.s:248    .text:000000000000017c .LVL25
     /tmp/ccvcHQLG.s:227    .text:0000000000000164 .LVL21
     /tmp/ccvcHQLG.s:231    .text:000000000000016c .LVL22
     /tmp/ccvcHQLG.s:174    .text:000000000000011c .LVL14
     /tmp/ccvcHQLG.s:222    .text:000000000000015c .LVL20
     /tmp/ccvcHQLG.s:108    .text:000000000000008c .LVL9
     /tmp/ccvcHQLG.s:150    .text:00000000000000f8 .LVL11
     /tmp/ccvcHQLG.s:157    .text:0000000000000100 .LVL12
     /tmp/ccvcHQLG.s:184    .text:0000000000000128 .LVL16
     /tmp/ccvcHQLG.s:208    .text:000000000000014c .LVL19
     /tmp/ccvcHQLG.s:239    .text:0000000000000174 .LVL23
     /tmp/ccvcHQLG.s:197    .text:000000000000013c .LVL18
     /tmp/ccvcHQLG.s:688    .debug_info:0000000000000000 .Ldebug_info0
     /tmp/ccvcHQLG.s:211    .text:000000000000014c .LBE44
     /tmp/ccvcHQLG.s:234    .text:000000000000016c .LBB49
     /tmp/ccvcHQLG.s:241    .text:0000000000000174 .LBE49
     /tmp/ccvcHQLG.s:558    .text:00000000000002fc .LBB58
     /tmp/ccvcHQLG.s:581    .text:0000000000000320 .LBE58
     /tmp/ccvcHQLG.s:585    .text:0000000000000320 .LBB63
     /tmp/ccvcHQLG.s:609    .text:0000000000000340 .LBE63
     /tmp/ccvcHQLG.s:572    .text:000000000000030c .LBE59
     /tmp/ccvcHQLG.s:586    .text:0000000000000320 .LBB62
     /tmp/ccvcHQLG.s:608    .text:0000000000000340 .LBE62
     /tmp/ccvcHQLG.s:261    .gcc_except_table:0000000000000000 .LLSDA37

UNDEFINED SYMBOLS
_ZN5Riscv10popSppSpieEv
_Z15thread_dispatchv
_Z11thread_exitv
_Znwm
_Znam
_ZN9Scheduler3putEP7_thread
_ZdlPv
_Unwind_Resume
__gxx_personality_v0
_ZN9Scheduler3getEv
_ZN7_thread13contextSwitchEPNS_7ContextES1_
_Z11printStringPKc
