GAS LISTING /tmp/ccvBFrza.s 			page 1


   1              		.file	"_thread.cpp"
   2              		.option pic
   3              		.option norelax
   4              		.text
   5              	.Ltext0:
   6              		.align	2
   7              		.globl	_ZN7_thread12createThreadEPFvvEPv
   9              	_ZN7_thread12createThreadEPFvvEPv:
  10              	.LFB32:
  11              		.file 1 "src/_thread.cpp"
   1:src/_thread.cpp **** 
   2:src/_thread.cpp **** 
   3:src/_thread.cpp **** #include "../h/_thread.hpp"
   4:src/_thread.cpp **** #include "../h/riscv.hpp"
   5:src/_thread.cpp **** 
   6:src/_thread.cpp **** _thread *_thread::running = nullptr;
   7:src/_thread.cpp **** 
   8:src/_thread.cpp **** 
   9:src/_thread.cpp **** _thread *_thread::createThread(Body body, void* args)
  10:src/_thread.cpp **** {
  12              		.loc 1 10 1
  13              		.cfi_startproc
  14              		.cfi_personality 0x9b,DW.ref.__gxx_personality_v0
  15              		.cfi_lsda 0x1b,.LLSDA32
  16              	.LVL0:
  17 0000 130101FD 		addi	sp,sp,-48
  18              		.cfi_def_cfa_offset 48
  19 0004 23341102 		sd	ra,40(sp)
  20 0008 23308102 		sd	s0,32(sp)
  21 000c 233C9100 		sd	s1,24(sp)
  22 0010 23382101 		sd	s2,16(sp)
  23 0014 23343101 		sd	s3,8(sp)
  24              		.cfi_offset 1, -8
  25              		.cfi_offset 8, -16
  26              		.cfi_offset 9, -24
  27              		.cfi_offset 18, -32
  28              		.cfi_offset 19, -40
  29 0018 13040103 		addi	s0,sp,48
  30              		.cfi_def_cfa 8, 0
  31 001c 13090500 		mv	s2,a0
  32 0020 93890500 		mv	s3,a1
  11:src/_thread.cpp ****     _thread* newThread = new _thread(body, args);
  33              		.loc 1 11 5
  34              		.loc 1 11 48 is_stmt 0
  35 0024 13058003 		li	a0,56
  36              	.LVL1:
  37              	.LEHB0:
  38 0028 97000000 		call	_Znwm@plt
  38      E7800000 
  39              	.LVL2:
  40              	.LEHE0:
  41 0030 93040500 		mv	s1,a0
  42              	.LVL3:
  43              	.LBB11:
  44              	.LBB12:
  45              		.file 2 "src/../h/_thread.hpp"
   1:src/../h/_thread.hpp **** 
GAS LISTING /tmp/ccvBFrza.s 			page 2


   2:src/../h/_thread.hpp **** 
   3:src/../h/_thread.hpp **** #ifndef OS1_VEZBE07_RISCV_CONTEXT_SWITCH_2_INTERRUPT_TCB_HPP
   4:src/../h/_thread.hpp **** #define OS1_VEZBE07_RISCV_CONTEXT_SWITCH_2_INTERRUPT_TCB_HPP
   5:src/../h/_thread.hpp **** 
   6:src/../h/_thread.hpp **** #include "../lib/hw.h"
   7:src/../h/_thread.hpp **** #include "scheduler.hpp"
   8:src/../h/_thread.hpp **** 
   9:src/../h/_thread.hpp **** typedef _thread* thread_t;
  10:src/../h/_thread.hpp **** 
  11:src/../h/_thread.hpp **** // Thread Control Block
  12:src/../h/_thread.hpp **** class _thread
  13:src/../h/_thread.hpp **** {
  14:src/../h/_thread.hpp **** public:
  15:src/../h/_thread.hpp ****     ~_thread() { delete[] stack; }
  16:src/../h/_thread.hpp **** 
  17:src/../h/_thread.hpp ****     bool isFinished() const { return finished; }
  18:src/../h/_thread.hpp **** 
  19:src/../h/_thread.hpp ****     void setFinished(bool value) { finished = value; }
  20:src/../h/_thread.hpp **** 
  21:src/../h/_thread.hpp ****     using Body = void (*)();
  22:src/../h/_thread.hpp **** 
  23:src/../h/_thread.hpp ****     static _thread *createThread(Body body, void* args);
  24:src/../h/_thread.hpp **** 
  25:src/../h/_thread.hpp ****     static void yield();
  26:src/../h/_thread.hpp **** 
  27:src/../h/_thread.hpp ****     static _thread *running;
  28:src/../h/_thread.hpp **** 
  29:src/../h/_thread.hpp ****     static int exitThread();
  30:src/../h/_thread.hpp **** 
  31:src/../h/_thread.hpp **** private:
  32:src/../h/_thread.hpp ****     _thread(Body body, void* args) :
  33:src/../h/_thread.hpp ****             body(body),
  34:src/../h/_thread.hpp ****             args(args),
  35:src/../h/_thread.hpp ****             stack(body != nullptr ? new uint64[DEFAULT_STACK_SIZE] : nullptr),
  36:src/../h/_thread.hpp ****             context({
  37:src/../h/_thread.hpp ****                 (uint64) &threadWrapper,
  38:src/../h/_thread.hpp ****                 stack != nullptr ? (uint64) &stack[DEFAULT_STACK_SIZE] : 0
  39:src/../h/_thread.hpp ****             }),
  40:src/../h/_thread.hpp ****             finished(false)
  46              		.loc 2 40 27
  47 0034 23302501 		sd	s2,0(a0)
  48 0038 23343501 		sd	s3,8(a0)
  35:src/../h/_thread.hpp ****             context({
  49              		.loc 2 35 35
  50 003c 630A0900 		beqz	s2,.L6
  35:src/../h/_thread.hpp ****             context({
  51              		.loc 2 35 66
  52 0040 37850000 		li	a0,32768
  53              	.LEHB1:
  54 0044 97000000 		call	_Znam@plt
  54      E7800000 
  55              	.LVL4:
  56 004c 6F008000 		j	.L2
  57              	.L6:
  35:src/../h/_thread.hpp ****             context({
  58              		.loc 2 35 35
  59 0050 13050000 		li	a0,0
GAS LISTING /tmp/ccvBFrza.s 			page 3


  60              	.L2:
  61              		.loc 2 40 27
  62 0054 23B8A400 		sd	a0,16(s1)
  63 0058 97070000 		lla	a5,_ZN7_thread13threadWrapperEv
  63      93870700 
  64 0060 23BCF400 		sd	a5,24(s1)
  38:src/../h/_thread.hpp ****             }),
  65              		.loc 2 38 34
  66 0064 63040502 		beqz	a0,.L7
  38:src/../h/_thread.hpp ****             }),
  67              		.loc 2 38 45
  68 0068 B7870000 		li	a5,32768
  69 006c B307F500 		add	a5,a0,a5
  70              	.L3:
  71              		.loc 2 40 27
  72 0070 23B0F402 		sd	a5,32(s1)
  73 0074 23880402 		sb	zero,48(s1)
  41:src/../h/_thread.hpp ****     {
  42:src/../h/_thread.hpp ****         if (body != nullptr) { Scheduler::put(this); }
  74              		.loc 2 42 9 is_stmt 1
  75 0078 630C0902 		beqz	s2,.L4
  76              		.loc 2 42 32
  77              		.loc 2 42 46 is_stmt 0
  78 007c 13850400 		mv	a0,s1
  79 0080 97000000 		call	_ZN9Scheduler3putEP7_thread@plt
  79      E7800000 
  80              	.LVL5:
  81              	.LEHE1:
  82 0088 6F008002 		j	.L4
  83              	.L7:
  38:src/../h/_thread.hpp ****             }),
  84              		.loc 2 38 34
  85 008c 93070000 		li	a5,0
  86 0090 6FF01FFE 		j	.L3
  87              	.L8:
  88 0094 13090500 		mv	s2,a0
  89              	.LVL6:
  90              	.LBE12:
  91              	.LBE11:
  92              		.loc 1 11 48
  93 0098 13850400 		mv	a0,s1
  94 009c 97000000 		call	_ZdlPv@plt
  94      E7800000 
  95              	.LVL7:
  96 00a4 13050900 		mv	a0,s2
  97              	.LEHB2:
  98 00a8 97000000 		call	_Unwind_Resume@plt
  98      E7800000 
  99              	.LVL8:
 100              	.L4:
  12:src/_thread.cpp ****     Scheduler::put(newThread);
 101              		.loc 1 12 5 is_stmt 1
 102              		.loc 1 12 19 is_stmt 0
 103 00b0 13850400 		mv	a0,s1
 104 00b4 97000000 		call	_ZN9Scheduler3putEP7_thread@plt
 104      E7800000 
 105              	.LVL9:
GAS LISTING /tmp/ccvBFrza.s 			page 4


 106              	.LEHE2:
  13:src/_thread.cpp ****     return newThread;
 107              		.loc 1 13 5 is_stmt 1
  14:src/_thread.cpp **** }
 108              		.loc 1 14 1 is_stmt 0
 109 00bc 13850400 		mv	a0,s1
 110 00c0 83308102 		ld	ra,40(sp)
 111              		.cfi_restore 1
 112 00c4 03340102 		ld	s0,32(sp)
 113              		.cfi_restore 8
 114              		.cfi_def_cfa 2, 48
 115 00c8 83348101 		ld	s1,24(sp)
 116              		.cfi_restore 9
 117              	.LVL10:
 118 00cc 03390101 		ld	s2,16(sp)
 119              		.cfi_restore 18
 120              	.LVL11:
 121 00d0 83398100 		ld	s3,8(sp)
 122              		.cfi_restore 19
 123              	.LVL12:
 124 00d4 13010103 		addi	sp,sp,48
 125              		.cfi_def_cfa_offset 0
 126 00d8 67800000 		jr	ra
 127              		.cfi_endproc
 128              	.LFE32:
 129              		.globl	__gxx_personality_v0
 130              		.section	.gcc_except_table,"a",@progbits
 131              	.LLSDA32:
 132 0000 FF       		.byte	0xff
 133 0001 FF       		.byte	0xff
 134 0002 03       		.byte	0x3
 135 0003 27       		.byte	0x27
 136 0004 00000000 		.4byte	.LEHB0-.LFB32
 137 0008 00000000 		.4byte	.LEHE0-.LEHB0
 138 000c 00000000 		.4byte	0
 139 0010 00       		.byte	0
 140 0011 00000000 		.4byte	.LEHB1-.LFB32
 141 0015 00000000 		.4byte	.LEHE1-.LEHB1
 142 0019 00000000 		.4byte	.L8-.LFB32
 143 001d 00       		.byte	0
 144 001e 00000000 		.4byte	.LEHB2-.LFB32
 145 0022 00000000 		.4byte	.LEHE2-.LEHB2
 146 0026 00000000 		.4byte	0
 147 002a 00       		.byte	0
 148              		.text
 150              		.align	2
 151              		.globl	_ZN7_thread5yieldEv
 153              	_ZN7_thread5yieldEv:
 154              	.LFB33:
  15:src/_thread.cpp **** 
  16:src/_thread.cpp **** void _thread::yield()
  17:src/_thread.cpp **** {
 155              		.loc 1 17 1 is_stmt 1
 156              		.cfi_startproc
 157 00dc 130101FF 		addi	sp,sp,-16
 158              		.cfi_def_cfa_offset 16
 159 00e0 23348100 		sd	s0,8(sp)
GAS LISTING /tmp/ccvBFrza.s 			page 5


 160              		.cfi_offset 8, -8
 161 00e4 13040101 		addi	s0,sp,16
 162              		.cfi_def_cfa 8, 0
  18:src/_thread.cpp ****     __asm__ volatile ("ecall");
 163              		.loc 1 18 5
 164              		.loc 1 18 31 is_stmt 0
 165              	#APP
 166              	# 18 "src/_thread.cpp" 1
  19              	}
 167              		ecall
 168              	# 0 "" 2
 169              		.loc 1 19 1
 170              	#NO_APP
 171 00ec 03348100 		ld	s0,8(sp)
 172              		.cfi_restore 8
 173              		.cfi_def_cfa 2, 16
 174 00f0 13010101 		addi	sp,sp,16
 175              		.cfi_def_cfa_offset 0
 176 00f4 67800000 		jr	ra
 177              		.cfi_endproc
 178              	.LFE33:
 180              		.align	2
 181              		.globl	_ZN7_thread13threadWrapperEv
 183              	_ZN7_thread13threadWrapperEv:
 184              	.LFB35:
  20:src/_thread.cpp **** 
  21:src/_thread.cpp **** void _thread::dispatch()
  22:src/_thread.cpp **** {
  23:src/_thread.cpp ****     _thread *old = running;
  24:src/_thread.cpp ****     if (!old->isFinished()) { Scheduler::put(old); }
  25:src/_thread.cpp ****     running = Scheduler::get();
  26:src/_thread.cpp **** 
  27:src/_thread.cpp ****     _thread::contextSwitch(&old->context, &running->context);
  28:src/_thread.cpp **** }
  29:src/_thread.cpp **** 
  30:src/_thread.cpp **** void _thread::threadWrapper()
  31:src/_thread.cpp **** {
 185              		.loc 1 31 1 is_stmt 1
 186              		.cfi_startproc
 187 00f8 130101FE 		addi	sp,sp,-32
 188              		.cfi_def_cfa_offset 32
 189 00fc 233C1100 		sd	ra,24(sp)
 190 0100 23388100 		sd	s0,16(sp)
 191 0104 23349100 		sd	s1,8(sp)
 192              		.cfi_offset 1, -8
 193              		.cfi_offset 8, -16
 194              		.cfi_offset 9, -24
 195 0108 13040102 		addi	s0,sp,32
 196              		.cfi_def_cfa 8, 0
  32:src/_thread.cpp ****     Riscv::popSppSpie();
 197              		.loc 1 32 5
 198              		.loc 1 32 22 is_stmt 0
 199 010c 97000000 		call	_ZN5Riscv10popSppSpieEv@plt
 199      E7800000 
 200              	.LVL13:
  33:src/_thread.cpp ****     running->body();
 201              		.loc 1 33 5 is_stmt 1
GAS LISTING /tmp/ccvBFrza.s 			page 6


 202              		.loc 1 33 14 is_stmt 0
 203 0114 97040000 		lla	s1,.LANCHOR0
 203      93840400 
 204 011c 83B70400 		ld	a5,0(s1)
 205 0120 83B70700 		ld	a5,0(a5)
 206              		.loc 1 33 18
 207 0124 E7800700 		jalr	a5
 208              	.LVL14:
  34:src/_thread.cpp ****     running->setFinished(true);
 209              		.loc 1 34 5 is_stmt 1
 210              		.loc 1 34 25 is_stmt 0
 211 0128 83B70400 		ld	a5,0(s1)
 212              	.LVL15:
 213              	.LBB13:
 214              	.LBB14:
  19:src/../h/_thread.hpp **** 
 215              		.loc 2 19 36 is_stmt 1
  19:src/../h/_thread.hpp **** 
 216              		.loc 2 19 45 is_stmt 0
 217 012c 13071000 		li	a4,1
 218 0130 2388E702 		sb	a4,48(a5)
 219              	.LVL16:
 220              	.LBE14:
 221              	.LBE13:
  35:src/_thread.cpp ****     _thread::yield();
 222              		.loc 1 35 5 is_stmt 1
 223              		.loc 1 35 19 is_stmt 0
 224 0134 97000000 		call	_ZN7_thread5yieldEv
 224      E7800000 
 225              	.LVL17:
  36:src/_thread.cpp **** }
 226              		.loc 1 36 1
 227 013c 83308101 		ld	ra,24(sp)
 228              		.cfi_restore 1
 229 0140 03340101 		ld	s0,16(sp)
 230              		.cfi_restore 8
 231              		.cfi_def_cfa 2, 32
 232 0144 83348100 		ld	s1,8(sp)
 233              		.cfi_restore 9
 234 0148 13010102 		addi	sp,sp,32
 235              		.cfi_def_cfa_offset 0
 236 014c 67800000 		jr	ra
 237              		.cfi_endproc
 238              	.LFE35:
 240              		.align	2
 241              		.globl	_ZN7_thread8dispatchEv
 243              	_ZN7_thread8dispatchEv:
 244              	.LFB34:
  22:src/_thread.cpp ****     _thread *old = running;
 245              		.loc 1 22 1 is_stmt 1
 246              		.cfi_startproc
 247 0150 130101FE 		addi	sp,sp,-32
 248              		.cfi_def_cfa_offset 32
 249 0154 233C1100 		sd	ra,24(sp)
 250 0158 23388100 		sd	s0,16(sp)
 251 015c 23349100 		sd	s1,8(sp)
 252              		.cfi_offset 1, -8
GAS LISTING /tmp/ccvBFrza.s 			page 7


 253              		.cfi_offset 8, -16
 254              		.cfi_offset 9, -24
 255 0160 13040102 		addi	s0,sp,32
 256              		.cfi_def_cfa 8, 0
  23:src/_thread.cpp ****     if (!old->isFinished()) { Scheduler::put(old); }
 257              		.loc 1 23 5
  23:src/_thread.cpp ****     if (!old->isFinished()) { Scheduler::put(old); }
 258              		.loc 1 23 14 is_stmt 0
 259 0164 97040000 		ld	s1,.LANCHOR0
 259      83B40400 
 260              	.LVL18:
  24:src/_thread.cpp ****     running = Scheduler::get();
 261              		.loc 1 24 5 is_stmt 1
 262              	.LBB15:
 263              	.LBB16:
  17:src/../h/_thread.hpp **** 
 264              		.loc 2 17 31
  17:src/../h/_thread.hpp **** 
 265              		.loc 2 17 38 is_stmt 0
 266 016c 83C70403 		lbu	a5,48(s1)
 267              	.LVL19:
 268              	.LBE16:
 269              	.LBE15:
  24:src/_thread.cpp ****     running = Scheduler::get();
 270              		.loc 1 24 5
 271 0170 638C0702 		beqz	a5,.L18
 272              	.L16:
  25:src/_thread.cpp **** 
 273              		.loc 1 25 5 is_stmt 1
  25:src/_thread.cpp **** 
 274              		.loc 1 25 29 is_stmt 0
 275 0174 97000000 		call	_ZN9Scheduler3getEv@plt
 275      E7800000 
 276              	.LVL20:
  25:src/_thread.cpp **** 
 277              		.loc 1 25 13
 278 017c 97070000 		sd	a0,.LANCHOR0,a5
 278      23B0A700 
  27:src/_thread.cpp **** }
 279              		.loc 1 27 5 is_stmt 1
  27:src/_thread.cpp **** }
 280              		.loc 1 27 27 is_stmt 0
 281 0184 93058501 		addi	a1,a0,24
 282 0188 13858401 		addi	a0,s1,24
 283 018c 97000000 		call	_ZN7_thread13contextSwitchEPNS_7ContextES1_@plt
 283      E7800000 
 284              	.LVL21:
  28:src/_thread.cpp **** 
 285              		.loc 1 28 1
 286 0194 83308101 		ld	ra,24(sp)
 287              		.cfi_remember_state
 288              		.cfi_restore 1
 289 0198 03340101 		ld	s0,16(sp)
 290              		.cfi_restore 8
 291              		.cfi_def_cfa 2, 32
 292 019c 83348100 		ld	s1,8(sp)
 293              		.cfi_restore 9
GAS LISTING /tmp/ccvBFrza.s 			page 8


 294              	.LVL22:
 295 01a0 13010102 		addi	sp,sp,32
 296              		.cfi_def_cfa_offset 0
 297 01a4 67800000 		jr	ra
 298              	.LVL23:
 299              	.L18:
 300              		.cfi_restore_state
  24:src/_thread.cpp ****     running = Scheduler::get();
 301              		.loc 1 24 31 is_stmt 1 discriminator 1
  24:src/_thread.cpp ****     running = Scheduler::get();
 302              		.loc 1 24 45 is_stmt 0 discriminator 1
 303 01a8 13850400 		mv	a0,s1
 304 01ac 97000000 		call	_ZN9Scheduler3putEP7_thread@plt
 304      E7800000 
 305              	.LVL24:
 306 01b4 6FF01FFC 		j	.L16
 307              		.cfi_endproc
 308              	.LFE34:
 310              		.align	2
 311              		.globl	_ZN7_thread10exitThreadEv
 313              	_ZN7_thread10exitThreadEv:
 314              	.LFB36:
  37:src/_thread.cpp **** 
  38:src/_thread.cpp **** int _thread::exitThread() {
 315              		.loc 1 38 27 is_stmt 1
 316              		.cfi_startproc
 317 01b8 130101FF 		addi	sp,sp,-16
 318              		.cfi_def_cfa_offset 16
 319 01bc 23341100 		sd	ra,8(sp)
 320 01c0 23308100 		sd	s0,0(sp)
 321              		.cfi_offset 1, -8
 322              		.cfi_offset 8, -16
 323 01c4 13040101 		addi	s0,sp,16
 324              		.cfi_def_cfa 8, 0
  39:src/_thread.cpp ****     _thread::running->setFinished(true);
 325              		.loc 1 39 5
 326              	.LVL25:
 327              	.LBB17:
 328              	.LBB18:
  19:src/../h/_thread.hpp **** 
 329              		.loc 2 19 36
  19:src/../h/_thread.hpp **** 
 330              		.loc 2 19 45 is_stmt 0
 331 01c8 97070000 		ld	a5,.LANCHOR0
 331      83B70700 
 332 01d0 13071000 		li	a4,1
 333 01d4 2388E702 		sb	a4,48(a5)
 334              	.LVL26:
 335              	.LBE18:
 336              	.LBE17:
  40:src/_thread.cpp ****     _thread::dispatch();
 337              		.loc 1 40 5 is_stmt 1
 338              		.loc 1 40 22 is_stmt 0
 339 01d8 97000000 		call	_ZN7_thread8dispatchEv
 339      E7800000 
 340              	.LVL27:
  41:src/_thread.cpp ****     return 0;
GAS LISTING /tmp/ccvBFrza.s 			page 9


 341              		.loc 1 41 5 is_stmt 1
  42:src/_thread.cpp **** }
 342              		.loc 1 42 1 is_stmt 0
 343 01e0 13050000 		li	a0,0
 344 01e4 83308100 		ld	ra,8(sp)
 345              		.cfi_restore 1
 346 01e8 03340100 		ld	s0,0(sp)
 347              		.cfi_restore 8
 348              		.cfi_def_cfa 2, 16
 349 01ec 13010101 		addi	sp,sp,16
 350              		.cfi_def_cfa_offset 0
 351 01f0 67800000 		jr	ra
 352              		.cfi_endproc
 353              	.LFE36:
 355              		.globl	_ZN7_thread7runningE
 356              		.bss
 357              		.align	3
 358              		.set	.LANCHOR0,. + 0
 361              	_ZN7_thread7runningE:
 362 0000 00000000 		.zero	8
 362      00000000 
 363              		.text
 364              	.Letext0:
 365              		.file 3 "src/../h/../lib/hw.h"
 366              		.file 4 "src/../h/scheduler.hpp"
 367              		.file 5 "src/../h/riscv.hpp"
 2623              		.align	3
 2626              	DW.ref.__gxx_personality_v0:
 2627 0000 00000000 		.dword	__gxx_personality_v0
 2627      00000000 
 2628              		.ident	"GCC: (Ubuntu 9.4.0-1ubuntu1~20.04) 9.4.0"
 2629              		.section	.note.GNU-stack,"",@progbits
GAS LISTING /tmp/ccvBFrza.s 			page 10


DEFINED SYMBOLS
                            *ABS*:0000000000000000 _thread.cpp
     /tmp/ccvBFrza.s:9      .text:0000000000000000 _ZN7_thread12createThreadEPFvvEPv
     /tmp/ccvBFrza.s:13     .text:0000000000000000 .L0 
     /tmp/ccvBFrza.s:2626   .data.rel.local.DW.ref.__gxx_personality_v0:0000000000000000 DW.ref.__gxx_personality_v0
     /tmp/ccvBFrza.s:17     .text:0000000000000000 .L0 
     /tmp/ccvBFrza.s:18     .text:0000000000000004 .L0 
     /tmp/ccvBFrza.s:24     .text:0000000000000018 .L0 
     /tmp/ccvBFrza.s:25     .text:0000000000000018 .L0 
     /tmp/ccvBFrza.s:26     .text:0000000000000018 .L0 
     /tmp/ccvBFrza.s:27     .text:0000000000000018 .L0 
     /tmp/ccvBFrza.s:28     .text:0000000000000018 .L0 
     /tmp/ccvBFrza.s:30     .text:000000000000001c .L0 
     /tmp/ccvBFrza.s:34     .text:0000000000000024 .L0 
     /tmp/ccvBFrza.s:35     .text:0000000000000024 .L0 
     /tmp/ccvBFrza.s:47     .text:0000000000000034 .L0 
     /tmp/ccvBFrza.s:50     .text:000000000000003c .L0 
     /tmp/ccvBFrza.s:52     .text:0000000000000040 .L0 
     /tmp/ccvBFrza.s:59     .text:0000000000000050 .L0 
     /tmp/ccvBFrza.s:62     .text:0000000000000054 .L0 
     /tmp/ccvBFrza.s:183    .text:00000000000000f8 _ZN7_thread13threadWrapperEv
     /tmp/ccvBFrza.s:66     .text:0000000000000064 .L0 
     /tmp/ccvBFrza.s:68     .text:0000000000000068 .L0 
     /tmp/ccvBFrza.s:72     .text:0000000000000070 .L0 
     /tmp/ccvBFrza.s:75     .text:0000000000000078 .L0 
     /tmp/ccvBFrza.s:77     .text:000000000000007c .L0 
     /tmp/ccvBFrza.s:78     .text:000000000000007c .L0 
     /tmp/ccvBFrza.s:85     .text:000000000000008c .L0 
     /tmp/ccvBFrza.s:93     .text:0000000000000098 .L0 
     /tmp/ccvBFrza.s:102    .text:00000000000000b0 .L0 
     /tmp/ccvBFrza.s:103    .text:00000000000000b0 .L0 
     /tmp/ccvBFrza.s:108    .text:00000000000000bc .L0 
     /tmp/ccvBFrza.s:109    .text:00000000000000bc .L0 
     /tmp/ccvBFrza.s:111    .text:00000000000000c4 .L0 
     /tmp/ccvBFrza.s:113    .text:00000000000000c8 .L0 
     /tmp/ccvBFrza.s:114    .text:00000000000000c8 .L0 
     /tmp/ccvBFrza.s:116    .text:00000000000000cc .L0 
     /tmp/ccvBFrza.s:119    .text:00000000000000d0 .L0 
     /tmp/ccvBFrza.s:122    .text:00000000000000d4 .L0 
     /tmp/ccvBFrza.s:125    .text:00000000000000d8 .L0 
     /tmp/ccvBFrza.s:127    .text:00000000000000dc .L0 
     /tmp/ccvBFrza.s:153    .text:00000000000000dc _ZN7_thread5yieldEv
     /tmp/ccvBFrza.s:156    .text:00000000000000dc .L0 
     /tmp/ccvBFrza.s:157    .text:00000000000000dc .L0 
     /tmp/ccvBFrza.s:158    .text:00000000000000e0 .L0 
     /tmp/ccvBFrza.s:160    .text:00000000000000e4 .L0 
     /tmp/ccvBFrza.s:162    .text:00000000000000e8 .L0 
     /tmp/ccvBFrza.s:164    .text:00000000000000e8 .L0 
     src/_thread.cpp:18     .text:00000000000000e8 .L0 
     /tmp/ccvBFrza.s:171    .text:00000000000000ec .L0 
     /tmp/ccvBFrza.s:172    .text:00000000000000f0 .L0 
     /tmp/ccvBFrza.s:173    .text:00000000000000f0 .L0 
     /tmp/ccvBFrza.s:175    .text:00000000000000f4 .L0 
     /tmp/ccvBFrza.s:177    .text:00000000000000f8 .L0 
     /tmp/ccvBFrza.s:186    .text:00000000000000f8 .L0 
     /tmp/ccvBFrza.s:187    .text:00000000000000f8 .L0 
     /tmp/ccvBFrza.s:188    .text:00000000000000fc .L0 
GAS LISTING /tmp/ccvBFrza.s 			page 11


     /tmp/ccvBFrza.s:192    .text:0000000000000108 .L0 
     /tmp/ccvBFrza.s:193    .text:0000000000000108 .L0 
     /tmp/ccvBFrza.s:194    .text:0000000000000108 .L0 
     /tmp/ccvBFrza.s:196    .text:000000000000010c .L0 
     /tmp/ccvBFrza.s:198    .text:000000000000010c .L0 
     /tmp/ccvBFrza.s:199    .text:000000000000010c .L0 
     /tmp/ccvBFrza.s:202    .text:0000000000000114 .L0 
     /tmp/ccvBFrza.s:203    .text:0000000000000114 .L0 
     /tmp/ccvBFrza.s:207    .text:0000000000000124 .L0 
     /tmp/ccvBFrza.s:210    .text:0000000000000128 .L0 
     /tmp/ccvBFrza.s:211    .text:0000000000000128 .L0 
     /tmp/ccvBFrza.s:216    .text:000000000000012c .L0 
     /tmp/ccvBFrza.s:217    .text:000000000000012c .L0 
     /tmp/ccvBFrza.s:223    .text:0000000000000134 .L0 
     /tmp/ccvBFrza.s:224    .text:0000000000000134 .L0 
     /tmp/ccvBFrza.s:227    .text:000000000000013c .L0 
     /tmp/ccvBFrza.s:228    .text:0000000000000140 .L0 
     /tmp/ccvBFrza.s:230    .text:0000000000000144 .L0 
     /tmp/ccvBFrza.s:231    .text:0000000000000144 .L0 
     /tmp/ccvBFrza.s:233    .text:0000000000000148 .L0 
     /tmp/ccvBFrza.s:235    .text:000000000000014c .L0 
     /tmp/ccvBFrza.s:237    .text:0000000000000150 .L0 
     /tmp/ccvBFrza.s:243    .text:0000000000000150 _ZN7_thread8dispatchEv
     /tmp/ccvBFrza.s:246    .text:0000000000000150 .L0 
     /tmp/ccvBFrza.s:247    .text:0000000000000150 .L0 
     /tmp/ccvBFrza.s:248    .text:0000000000000154 .L0 
     /tmp/ccvBFrza.s:252    .text:0000000000000160 .L0 
     /tmp/ccvBFrza.s:253    .text:0000000000000160 .L0 
     /tmp/ccvBFrza.s:254    .text:0000000000000160 .L0 
     /tmp/ccvBFrza.s:256    .text:0000000000000164 .L0 
     /tmp/ccvBFrza.s:258    .text:0000000000000164 .L0 
     /tmp/ccvBFrza.s:259    .text:0000000000000164 .L0 
     /tmp/ccvBFrza.s:264    .text:000000000000016c .L0 
     /tmp/ccvBFrza.s:265    .text:000000000000016c .L0 
     /tmp/ccvBFrza.s:266    .text:000000000000016c .L0 
     /tmp/ccvBFrza.s:271    .text:0000000000000170 .L0 
     /tmp/ccvBFrza.s:274    .text:0000000000000174 .L0 
     /tmp/ccvBFrza.s:275    .text:0000000000000174 .L0 
     /tmp/ccvBFrza.s:278    .text:000000000000017c .L0 
     /tmp/ccvBFrza.s:280    .text:0000000000000184 .L0 
     /tmp/ccvBFrza.s:281    .text:0000000000000184 .L0 
     /tmp/ccvBFrza.s:286    .text:0000000000000194 .L0 
     /tmp/ccvBFrza.s:287    .text:0000000000000198 .L0 
     /tmp/ccvBFrza.s:288    .text:0000000000000198 .L0 
     /tmp/ccvBFrza.s:290    .text:000000000000019c .L0 
     /tmp/ccvBFrza.s:291    .text:000000000000019c .L0 
     /tmp/ccvBFrza.s:293    .text:00000000000001a0 .L0 
     /tmp/ccvBFrza.s:296    .text:00000000000001a4 .L0 
     /tmp/ccvBFrza.s:300    .text:00000000000001a8 .L0 
     /tmp/ccvBFrza.s:302    .text:00000000000001a8 .L0 
     /tmp/ccvBFrza.s:303    .text:00000000000001a8 .L0 
     /tmp/ccvBFrza.s:307    .text:00000000000001b8 .L0 
     /tmp/ccvBFrza.s:313    .text:00000000000001b8 _ZN7_thread10exitThreadEv
     /tmp/ccvBFrza.s:316    .text:00000000000001b8 .L0 
     /tmp/ccvBFrza.s:317    .text:00000000000001b8 .L0 
     /tmp/ccvBFrza.s:318    .text:00000000000001bc .L0 
     /tmp/ccvBFrza.s:321    .text:00000000000001c4 .L0 
GAS LISTING /tmp/ccvBFrza.s 			page 12


     /tmp/ccvBFrza.s:322    .text:00000000000001c4 .L0 
     /tmp/ccvBFrza.s:324    .text:00000000000001c8 .L0 
     /tmp/ccvBFrza.s:329    .text:00000000000001c8 .L0 
     /tmp/ccvBFrza.s:330    .text:00000000000001c8 .L0 
     /tmp/ccvBFrza.s:331    .text:00000000000001c8 .L0 
     /tmp/ccvBFrza.s:338    .text:00000000000001d8 .L0 
     /tmp/ccvBFrza.s:339    .text:00000000000001d8 .L0 
     /tmp/ccvBFrza.s:342    .text:00000000000001e0 .L0 
     /tmp/ccvBFrza.s:343    .text:00000000000001e0 .L0 
     /tmp/ccvBFrza.s:345    .text:00000000000001e8 .L0 
     /tmp/ccvBFrza.s:347    .text:00000000000001ec .L0 
     /tmp/ccvBFrza.s:348    .text:00000000000001ec .L0 
     /tmp/ccvBFrza.s:350    .text:00000000000001f0 .L0 
     /tmp/ccvBFrza.s:352    .text:00000000000001f4 .L0 
     /tmp/ccvBFrza.s:361    .bss:0000000000000000 _ZN7_thread7runningE
     /tmp/ccvBFrza.s:358    .bss:0000000000000000 .LANCHOR0
     /tmp/ccvBFrza.s:368    .text:00000000000001f4 .L0 
     /tmp/ccvBFrza.s:63     .text:0000000000000058 .L0 
     /tmp/ccvBFrza.s:203    .text:0000000000000114 .L0 
     /tmp/ccvBFrza.s:259    .text:0000000000000164 .L0 
     /tmp/ccvBFrza.s:278    .text:000000000000017c .L0 
     /tmp/ccvBFrza.s:331    .text:00000000000001c8 .L0 
     /tmp/ccvBFrza.s:57     .text:0000000000000050 .L6
     /tmp/ccvBFrza.s:60     .text:0000000000000054 .L2
     /tmp/ccvBFrza.s:83     .text:000000000000008c .L7
     /tmp/ccvBFrza.s:100    .text:00000000000000b0 .L4
     /tmp/ccvBFrza.s:70     .text:0000000000000070 .L3
     /tmp/ccvBFrza.s:299    .text:00000000000001a8 .L18
     /tmp/ccvBFrza.s:272    .text:0000000000000174 .L16
     /tmp/ccvBFrza.s:37     .text:0000000000000028 .LEHB0
     /tmp/ccvBFrza.s:10     .text:0000000000000000 .LFB32
     /tmp/ccvBFrza.s:40     .text:0000000000000030 .LEHE0
     /tmp/ccvBFrza.s:53     .text:0000000000000044 .LEHB1
     /tmp/ccvBFrza.s:81     .text:0000000000000088 .LEHE1
     /tmp/ccvBFrza.s:87     .text:0000000000000094 .L8
     /tmp/ccvBFrza.s:97     .text:00000000000000a8 .LEHB2
     /tmp/ccvBFrza.s:106    .text:00000000000000bc .LEHE2
     /tmp/ccvBFrza.s:1369   .debug_abbrev:0000000000000000 .Ldebug_abbrev0
     /tmp/ccvBFrza.s:2584   .debug_str:0000000000000617 .LASF104
     /tmp/ccvBFrza.s:2598   .debug_str:0000000000000738 .LASF105
     /tmp/ccvBFrza.s:2446   .debug_str:00000000000001d5 .LASF106
     /tmp/ccvBFrza.s:5      .text:0000000000000000 .Ltext0
     /tmp/ccvBFrza.s:364    .text:00000000000001f4 .Letext0
     /tmp/ccvBFrza.s:2380   .debug_line:0000000000000000 .Ldebug_line0
     /tmp/ccvBFrza.s:2510   .debug_str:00000000000003e4 .LASF0
     /tmp/ccvBFrza.s:2524   .debug_str:000000000000041c .LASF1
     /tmp/ccvBFrza.s:2498   .debug_str:00000000000003a3 .LASF2
     /tmp/ccvBFrza.s:2432   .debug_str:0000000000000183 .LASF3
     /tmp/ccvBFrza.s:2470   .debug_str:00000000000002a7 .LASF4
     /tmp/ccvBFrza.s:2558   .debug_str:0000000000000536 .LASF5
     /tmp/ccvBFrza.s:2400   .debug_str:000000000000006c .LASF6
     /tmp/ccvBFrza.s:2528   .debug_str:0000000000000437 .LASF7
     /tmp/ccvBFrza.s:2508   .debug_str:00000000000003d1 .LASF8
     /tmp/ccvBFrza.s:2594   .debug_str:0000000000000721 .LASF9
     /tmp/ccvBFrza.s:2454   .debug_str:000000000000021d .LASF10
     /tmp/ccvBFrza.s:2540   .debug_str:0000000000000499 .LASF11
     /tmp/ccvBFrza.s:2586   .debug_str:00000000000006db .LASF12
GAS LISTING /tmp/ccvBFrza.s 			page 13


     /tmp/ccvBFrza.s:2402   .debug_str:0000000000000073 .LASF13
     /tmp/ccvBFrza.s:2386   .debug_str:000000000000001e .LASF14
     /tmp/ccvBFrza.s:2416   .debug_str:00000000000000d8 .LASF15
     /tmp/ccvBFrza.s:2550   .debug_str:00000000000004d6 .LASF16
     /tmp/ccvBFrza.s:2424   .debug_str:000000000000012a .LASF17
     /tmp/ccvBFrza.s:2536   .debug_str:000000000000047b .LASF18
     /tmp/ccvBFrza.s:2448   .debug_str:00000000000001f3 .LASF107
     /tmp/ccvBFrza.s:2464   .debug_str:0000000000000281 .LASF108
     /tmp/ccvBFrza.s:2592   .debug_str:0000000000000705 .LASF109
     /tmp/ccvBFrza.s:2476   .debug_str:00000000000002d8 .LASF110
     /tmp/ccvBFrza.s:2466   .debug_str:0000000000000295 .LASF19
     /tmp/ccvBFrza.s:2390   .debug_str:0000000000000037 .LASF111
     /tmp/ccvBFrza.s:2588   .debug_str:00000000000006ea .LASF20
     /tmp/ccvBFrza.s:2532   .debug_str:0000000000000455 .LASF22
     /tmp/ccvBFrza.s:2530   .debug_str:000000000000044a .LASF112
     /tmp/ccvBFrza.s:2494   .debug_str:0000000000000373 .LASF113
     /tmp/ccvBFrza.s:2500   .debug_str:00000000000003b1 .LASF21
     /tmp/ccvBFrza.s:2492   .debug_str:0000000000000358 .LASF23
     /tmp/ccvBFrza.s:2482   .debug_str:00000000000002f9 .LASF24
     /tmp/ccvBFrza.s:2552   .debug_str:00000000000004ec .LASF25
     /tmp/ccvBFrza.s:2546   .debug_str:00000000000004c6 .LASF114
     /tmp/ccvBFrza.s:2502   .debug_str:00000000000003bd .LASF51
     /tmp/ccvBFrza.s:2578   .debug_str:00000000000005e3 .LASF53
     /tmp/ccvBFrza.s:2438   .debug_str:00000000000001ac .LASF115
     /tmp/ccvBFrza.s:2542   .debug_str:00000000000004a8 .LASF26
     /tmp/ccvBFrza.s:2436   .debug_str:0000000000000192 .LASF56
     /tmp/ccvBFrza.s:2394   .debug_str:0000000000000049 .LASF59
     /tmp/ccvBFrza.s:2406   .debug_str:0000000000000093 .LASF27
     /tmp/ccvBFrza.s:2518   .debug_str:0000000000000407 .LASF28
     /tmp/ccvBFrza.s:2516   .debug_str:0000000000000401 .LASF29
     /tmp/ccvBFrza.s:2480   .debug_str:00000000000002f1 .LASF30
     /tmp/ccvBFrza.s:2520   .debug_str:000000000000040c .LASF31
     /tmp/ccvBFrza.s:2474   .debug_str:00000000000002cf .LASF32
     /tmp/ccvBFrza.s:2484   .debug_str:0000000000000306 .LASF34
     /tmp/ccvBFrza.s:2458   .debug_str:0000000000000241 .LASF36
     /tmp/ccvBFrza.s:2602   .debug_str:000000000000075d .LASF33
     /tmp/ccvBFrza.s:2490   .debug_str:000000000000032c .LASF116
     /tmp/ccvBFrza.s:2514   .debug_str:00000000000003f8 .LASF35
     /tmp/ccvBFrza.s:2576   .debug_str:00000000000005cc .LASF37
     /tmp/ccvBFrza.s:2444   .debug_str:00000000000001d0 .LASF38
     /tmp/ccvBFrza.s:2404   .debug_str:0000000000000083 .LASF39
     /tmp/ccvBFrza.s:2560   .debug_str:0000000000000548 .LASF40
     /tmp/ccvBFrza.s:2418   .debug_str:00000000000000e4 .LASF41
     /tmp/ccvBFrza.s:2472   .debug_str:00000000000002ae .LASF42
     /tmp/ccvBFrza.s:2538   .debug_str:0000000000000485 .LASF43
     /tmp/ccvBFrza.s:2486   .debug_str:0000000000000314 .LASF44
     /tmp/ccvBFrza.s:2384   .debug_str:0000000000000008 .LASF45
     /tmp/ccvBFrza.s:2604   .debug_str:000000000000076b .LASF46
     /tmp/ccvBFrza.s:2562   .debug_str:0000000000000557 .LASF47
     /tmp/ccvBFrza.s:2582   .debug_str:0000000000000608 .LASF48
     /tmp/ccvBFrza.s:2580   .debug_str:00000000000005f7 .LASF49
     /tmp/ccvBFrza.s:2522   .debug_str:0000000000000416 .LASF50
     /tmp/ccvBFrza.s:2548   .debug_str:00000000000004cb .LASF52
     /tmp/ccvBFrza.s:2610   .debug_str:0000000000000792 .LASF54
     /tmp/ccvBFrza.s:2388   .debug_str:000000000000002e .LASF55
     /tmp/ccvBFrza.s:2570   .debug_str:000000000000058c .LASF57
     /tmp/ccvBFrza.s:2434   .debug_str:0000000000000189 .LASF58
GAS LISTING /tmp/ccvBFrza.s 			page 14


     /tmp/ccvBFrza.s:2420   .debug_str:00000000000000fd .LASF60
     /tmp/ccvBFrza.s:2504   .debug_str:00000000000003c3 .LASF61
     /tmp/ccvBFrza.s:2544   .debug_str:00000000000004b3 .LASF62
     /tmp/ccvBFrza.s:2596   .debug_str:0000000000000731 .LASF63
     /tmp/ccvBFrza.s:2574   .debug_str:00000000000005b9 .LASF64
     /tmp/ccvBFrza.s:2526   .debug_str:000000000000042f .LASF65
     /tmp/ccvBFrza.s:2426   .debug_str:0000000000000140 .LASF66
     /tmp/ccvBFrza.s:2382   .debug_str:0000000000000000 .LASF67
     /tmp/ccvBFrza.s:2460   .debug_str:000000000000025e .LASF68
     /tmp/ccvBFrza.s:2440   .debug_str:00000000000001b4 .LASF69
     /tmp/ccvBFrza.s:2408   .debug_str:0000000000000098 .LASF70
     /tmp/ccvBFrza.s:2614   .debug_str:00000000000007b5 .LASF71
     /tmp/ccvBFrza.s:2442   .debug_str:00000000000001bc .LASF72
     /tmp/ccvBFrza.s:2512   .debug_str:00000000000003f1 .LASF73
     /tmp/ccvBFrza.s:2606   .debug_str:000000000000077a .LASF74
     /tmp/ccvBFrza.s:2398   .debug_str:0000000000000065 .LASF75
     /tmp/ccvBFrza.s:2450   .debug_str:0000000000000204 .LASF76
     /tmp/ccvBFrza.s:2452   .debug_str:0000000000000217 .LASF77
     /tmp/ccvBFrza.s:2590   .debug_str:00000000000006f3 .LASF78
     /tmp/ccvBFrza.s:2396   .debug_str:000000000000005f .LASF79
     /tmp/ccvBFrza.s:2618   .debug_str:00000000000007d3 .LASF80
     /tmp/ccvBFrza.s:2612   .debug_str:00000000000007aa .LASF81
     /tmp/ccvBFrza.s:2556   .debug_str:000000000000051e .LASF82
     /tmp/ccvBFrza.s:2478   .debug_str:00000000000002e6 .LASF83
     /tmp/ccvBFrza.s:2572   .debug_str:00000000000005a1 .LASF84
     /tmp/ccvBFrza.s:2414   .debug_str:00000000000000ce .LASF85
     /tmp/ccvBFrza.s:2534   .debug_str:0000000000000465 .LASF86
     /tmp/ccvBFrza.s:2392   .debug_str:000000000000003f .LASF87
     /tmp/ccvBFrza.s:2456   .debug_str:000000000000022b .LASF88
     /tmp/ccvBFrza.s:2564   .debug_str:0000000000000567 .LASF89
     /tmp/ccvBFrza.s:2410   .debug_str:00000000000000ac .LASF90
     /tmp/ccvBFrza.s:2600   .debug_str:0000000000000748 .LASF91
     /tmp/ccvBFrza.s:2430   .debug_str:0000000000000161 .LASF92
     /tmp/ccvBFrza.s:2496   .debug_str:000000000000038e .LASF117
     /tmp/ccvBFrza.s:314    .text:00000000000001b8 .LFB36
     /tmp/ccvBFrza.s:353    .text:00000000000001f4 .LFE36
     /tmp/ccvBFrza.s:327    .text:00000000000001c8 .LBB17
     /tmp/ccvBFrza.s:336    .text:00000000000001d8 .LBE17
     /tmp/ccvBFrza.s:2232   .debug_loc:0000000000000000 .LLST10
     /tmp/ccvBFrza.s:2240   .debug_loc:0000000000000024 .LLST11
     /tmp/ccvBFrza.s:340    .text:00000000000001e0 .LVL27
     /tmp/ccvBFrza.s:184    .text:00000000000000f8 .LFB35
     /tmp/ccvBFrza.s:238    .text:0000000000000150 .LFE35
     /tmp/ccvBFrza.s:213    .text:000000000000012c .LBB13
     /tmp/ccvBFrza.s:221    .text:0000000000000134 .LBE13
     /tmp/ccvBFrza.s:2248   .debug_loc:000000000000004f .LLST6
     /tmp/ccvBFrza.s:2256   .debug_loc:0000000000000073 .LLST7
     /tmp/ccvBFrza.s:200    .text:0000000000000114 .LVL13
     /tmp/ccvBFrza.s:225    .text:000000000000013c .LVL17
     /tmp/ccvBFrza.s:244    .text:0000000000000150 .LFB34
     /tmp/ccvBFrza.s:308    .text:00000000000001b8 .LFE34
     /tmp/ccvBFrza.s:2263   .debug_loc:0000000000000096 .LLST8
     /tmp/ccvBFrza.s:262    .text:000000000000016c .LBB15
     /tmp/ccvBFrza.s:269    .text:0000000000000170 .LBE15
     /tmp/ccvBFrza.s:2274   .debug_loc:00000000000000cc .LLST9
     /tmp/ccvBFrza.s:276    .text:000000000000017c .LVL20
     /tmp/ccvBFrza.s:284    .text:0000000000000194 .LVL21
GAS LISTING /tmp/ccvBFrza.s 			page 15


     /tmp/ccvBFrza.s:305    .text:00000000000001b4 .LVL24
     /tmp/ccvBFrza.s:154    .text:00000000000000dc .LFB33
     /tmp/ccvBFrza.s:178    .text:00000000000000f8 .LFE33
     /tmp/ccvBFrza.s:128    .text:00000000000000dc .LFE32
     /tmp/ccvBFrza.s:2281   .debug_loc:00000000000000ef .LLST0
     /tmp/ccvBFrza.s:2310   .debug_loc:0000000000000164 .LLST1
     /tmp/ccvBFrza.s:2468   .debug_str:000000000000029d .LASF93
     /tmp/ccvBFrza.s:2328   .debug_loc:00000000000001b0 .LLST2
     /tmp/ccvBFrza.s:43     .text:0000000000000034 .LBB11
     /tmp/ccvBFrza.s:91     .text:0000000000000098 .LBE11
     /tmp/ccvBFrza.s:2339   .debug_loc:00000000000001e6 .LLST3
     /tmp/ccvBFrza.s:2346   .debug_loc:0000000000000209 .LLST4
     /tmp/ccvBFrza.s:2360   .debug_loc:0000000000000242 .LLST5
     /tmp/ccvBFrza.s:55     .text:000000000000004c .LVL4
     /tmp/ccvBFrza.s:80     .text:0000000000000088 .LVL5
     /tmp/ccvBFrza.s:39     .text:0000000000000030 .LVL2
     /tmp/ccvBFrza.s:95     .text:00000000000000a4 .LVL7
     /tmp/ccvBFrza.s:99     .text:00000000000000b0 .LVL8
     /tmp/ccvBFrza.s:105    .text:00000000000000bc .LVL9
     /tmp/ccvBFrza.s:2608   .debug_str:000000000000078d .LASF94
     /tmp/ccvBFrza.s:2616   .debug_str:00000000000007bd .LASF118
     /tmp/ccvBFrza.s:2412   .debug_str:00000000000000c8 .LASF95
     /tmp/ccvBFrza.s:2568   .debug_str:0000000000000586 .LASF96
     /tmp/ccvBFrza.s:2554   .debug_str:000000000000050e .LASF98
     /tmp/ccvBFrza.s:2488   .debug_str:0000000000000326 .LASF97
     /tmp/ccvBFrza.s:2428   .debug_str:0000000000000154 .LASF99
     /tmp/ccvBFrza.s:2506   .debug_str:00000000000003ca .LASF100
     /tmp/ccvBFrza.s:2566   .debug_str:0000000000000576 .LASF101
     /tmp/ccvBFrza.s:2462   .debug_str:0000000000000272 .LASF102
     /tmp/ccvBFrza.s:2422   .debug_str:0000000000000112 .LASF103
     /tmp/ccvBFrza.s:326    .text:00000000000001c8 .LVL25
     /tmp/ccvBFrza.s:334    .text:00000000000001d8 .LVL26
     /tmp/ccvBFrza.s:212    .text:000000000000012c .LVL15
     /tmp/ccvBFrza.s:219    .text:0000000000000134 .LVL16
     /tmp/ccvBFrza.s:260    .text:000000000000016c .LVL18
     /tmp/ccvBFrza.s:294    .text:00000000000001a0 .LVL22
     /tmp/ccvBFrza.s:298    .text:00000000000001a8 .LVL23
     /tmp/ccvBFrza.s:267    .text:0000000000000170 .LVL19
     /tmp/ccvBFrza.s:16     .text:0000000000000000 .LVL0
     /tmp/ccvBFrza.s:36     .text:0000000000000028 .LVL1
     /tmp/ccvBFrza.s:89     .text:0000000000000098 .LVL6
     /tmp/ccvBFrza.s:120    .text:00000000000000d0 .LVL11
     /tmp/ccvBFrza.s:123    .text:00000000000000d4 .LVL12
     /tmp/ccvBFrza.s:117    .text:00000000000000cc .LVL10
     /tmp/ccvBFrza.s:42     .text:0000000000000034 .LVL3
     /tmp/ccvBFrza.s:369    .debug_info:0000000000000000 .Ldebug_info0
     /tmp/ccvBFrza.s:131    .gcc_except_table:0000000000000000 .LLSDA32

UNDEFINED SYMBOLS
_Znwm
_Znam
_ZN9Scheduler3putEP7_thread
_ZdlPv
_Unwind_Resume
__gxx_personality_v0
_ZN5Riscv10popSppSpieEv
_ZN9Scheduler3getEv
GAS LISTING /tmp/ccvBFrza.s 			page 16


_ZN7_thread13contextSwitchEPNS_7ContextES1_
