GAS LISTING /tmp/ccr9umi9.s 			page 1


   1              		.file	"main.cpp"
   2              		.option pic
   3              		.option norelax
   4              		.text
   5              	.Ltext0:
   6              		.align	2
   7              		.globl	_Z15userMainWrapperPv
   9              	_Z15userMainWrapperPv:
  10              	.LFB37:
  11              		.file 1 "src/main.cpp"
   1:src/main.cpp  **** 
   2:src/main.cpp  **** 
   3:src/main.cpp  **** #include "../test/printing.hpp"
   4:src/main.cpp  **** #include "../h/syscall_c.hpp"
   5:src/main.cpp  **** #include "../h/riscv.hpp"
   6:src/main.cpp  **** #include "../h/_thread.hpp"
   7:src/main.cpp  **** #include "../h/memory.hpp"
   8:src/main.cpp  **** 
   9:src/main.cpp  **** extern void userMain();
  10:src/main.cpp  **** 
  11:src/main.cpp  **** void userMainWrapper(void* arg){
  12              		.loc 1 11 32
  13              		.cfi_startproc
  14              	.LVL0:
  15 0000 130101FF 		addi	sp,sp,-16
  16              		.cfi_def_cfa_offset 16
  17 0004 23341100 		sd	ra,8(sp)
  18 0008 23308100 		sd	s0,0(sp)
  19              		.cfi_offset 1, -8
  20              		.cfi_offset 8, -16
  21 000c 13040101 		addi	s0,sp,16
  22              		.cfi_def_cfa 8, 0
  12:src/main.cpp  ****     userMain();
  23              		.loc 1 12 5
  24              		.loc 1 12 13 is_stmt 0
  25 0010 97000000 		call	_Z8userMainv@plt
  25      E7800000 
  26              	.LVL1:
  13:src/main.cpp  **** }
  27              		.loc 1 13 1
  28 0018 83308100 		ld	ra,8(sp)
  29              		.cfi_restore 1
  30 001c 03340100 		ld	s0,0(sp)
  31              		.cfi_restore 8
  32              		.cfi_def_cfa 2, 16
  33 0020 13010101 		addi	sp,sp,16
  34              		.cfi_def_cfa_offset 0
  35 0024 67800000 		jr	ra
  36              		.cfi_endproc
  37              	.LFE37:
  39              		.section	.rodata.str1.8,"aMS",@progbits,1
  40              		.align	3
  41              	.LC0:
  42 0000 46494E49 		.string	"FINISHED!\n"
  42      53484544 
  42      210A00
  43              		.text
GAS LISTING /tmp/ccr9umi9.s 			page 2


  44              		.align	2
  45              		.globl	main
  47              	main:
  48              	.LFB38:
  14:src/main.cpp  **** 
  15:src/main.cpp  **** void main()
  16:src/main.cpp  **** {
  49              		.loc 1 16 1 is_stmt 1
  50              		.cfi_startproc
  51 0028 130101FE 		addi	sp,sp,-32
  52              		.cfi_def_cfa_offset 32
  53 002c 233C1100 		sd	ra,24(sp)
  54 0030 23388100 		sd	s0,16(sp)
  55              		.cfi_offset 1, -8
  56              		.cfi_offset 8, -16
  57 0034 13040102 		addi	s0,sp,32
  58              		.cfi_def_cfa 8, 0
  17:src/main.cpp  **** 
  18:src/main.cpp  ****     Riscv::w_stvec((uint64) &Riscv::supervisorTrap);
  59              		.loc 1 18 5
  60              		.loc 1 18 19 is_stmt 0
  61 0038 97070000 		la	a5,_ZN5Riscv14supervisorTrapEv
  61      83B70700 
  62              	.LVL2:
  63              	.LBB10:
  64              	.LBB11:
  65              		.file 2 "src/../h/riscv.hpp"
   1:src/../h/riscv.hpp **** 
   2:src/../h/riscv.hpp **** 
   3:src/../h/riscv.hpp **** #ifndef OS1_VEZBE07_RISCV_CONTEXT_SWITCH_2_INTERRUPT_RISCV_HPP
   4:src/../h/riscv.hpp **** #define OS1_VEZBE07_RISCV_CONTEXT_SWITCH_2_INTERRUPT_RISCV_HPP
   5:src/../h/riscv.hpp **** 
   6:src/../h/riscv.hpp **** #include "../lib/hw.h"
   7:src/../h/riscv.hpp **** 
   8:src/../h/riscv.hpp **** #define READ_REG(var, regname) __asm__ volatile("mv %0, " regname: "=r"(var))
   9:src/../h/riscv.hpp **** #define WRITE_REG(regname, val) __asm__ volatile("mv " regname ", %0" :: "r"(val))
  10:src/../h/riscv.hpp **** 
  11:src/../h/riscv.hpp **** namespace Num{
  12:src/../h/riscv.hpp ****     constexpr uint8 SCALL_USER_MODE = 0x00;
  13:src/../h/riscv.hpp ****     constexpr uint8 SCALL_MEM_ALLOC = 0x01;
  14:src/../h/riscv.hpp ****     constexpr uint8 SCALL_MEM_FREE = 0x02;
  15:src/../h/riscv.hpp ****     constexpr uint8 SCALL_MEM_GET_FREE_SPACE = 0x03;
  16:src/../h/riscv.hpp ****     constexpr uint8 SCALL_MEM_GET_LARGEST_FREE_BLOCK = 0x04;
  17:src/../h/riscv.hpp ****     constexpr uint8 SCALL_THREAD_CREATE= 0x11;
  18:src/../h/riscv.hpp ****     constexpr uint8 SCALL_THREAD_EXIT = 0x12;
  19:src/../h/riscv.hpp ****     constexpr uint8 SCALL_THREAD_DISPATCH = 0x13;
  20:src/../h/riscv.hpp ****     constexpr uint8 SCALL_SEM_OPEN = 0x21;
  21:src/../h/riscv.hpp ****     constexpr uint8 SCALL_SEM_CLOSE = 0x22;
  22:src/../h/riscv.hpp ****     constexpr uint8 SCALL_SEM_WAIT = 0x23;
  23:src/../h/riscv.hpp ****     constexpr uint8 SCALL_SEM_SIGNAL = 0x24;
  24:src/../h/riscv.hpp ****     constexpr uint8 SCALL_GETC = 0x41;
  25:src/../h/riscv.hpp ****     constexpr uint8 SCALL_PUTC = 0x42;
  26:src/../h/riscv.hpp **** }
  27:src/../h/riscv.hpp **** 
  28:src/../h/riscv.hpp **** 
  29:src/../h/riscv.hpp **** class Riscv
  30:src/../h/riscv.hpp **** {
GAS LISTING /tmp/ccr9umi9.s 			page 3


  31:src/../h/riscv.hpp **** public:
  32:src/../h/riscv.hpp **** 
  33:src/../h/riscv.hpp ****     // pop sstatus.spp and sstatus.spie bits (has to be a non inline function)
  34:src/../h/riscv.hpp ****     static void popSppSpie();
  35:src/../h/riscv.hpp **** 
  36:src/../h/riscv.hpp ****     // read register scause
  37:src/../h/riscv.hpp ****     static uint64 r_scause();
  38:src/../h/riscv.hpp **** 
  39:src/../h/riscv.hpp ****     // write register scause
  40:src/../h/riscv.hpp ****     static void w_scause(uint64 scause);
  41:src/../h/riscv.hpp **** 
  42:src/../h/riscv.hpp ****     // read register sepc
  43:src/../h/riscv.hpp ****     static uint64 r_sepc();
  44:src/../h/riscv.hpp **** 
  45:src/../h/riscv.hpp ****     // write register sepc
  46:src/../h/riscv.hpp ****     static void w_sepc(uint64 sepc);
  47:src/../h/riscv.hpp **** 
  48:src/../h/riscv.hpp ****     // read register stvec
  49:src/../h/riscv.hpp ****     static uint64 r_stvec();
  50:src/../h/riscv.hpp **** 
  51:src/../h/riscv.hpp ****     // write register stvec
  52:src/../h/riscv.hpp ****     static void w_stvec(uint64 stvec);
  53:src/../h/riscv.hpp **** 
  54:src/../h/riscv.hpp ****     // read register stval
  55:src/../h/riscv.hpp ****     static uint64 r_stval();
  56:src/../h/riscv.hpp **** 
  57:src/../h/riscv.hpp ****     // write register stval
  58:src/../h/riscv.hpp ****     static void w_stval(uint64 stval);
  59:src/../h/riscv.hpp **** 
  60:src/../h/riscv.hpp ****     enum BitMaskSip
  61:src/../h/riscv.hpp ****     {
  62:src/../h/riscv.hpp ****         SIP_SSIP = (1 << 1),
  63:src/../h/riscv.hpp ****         SIP_STIP = (1 << 5),
  64:src/../h/riscv.hpp ****         SIP_SEIP = (1 << 9),
  65:src/../h/riscv.hpp ****     };
  66:src/../h/riscv.hpp **** 
  67:src/../h/riscv.hpp ****     // mask set register sip
  68:src/../h/riscv.hpp ****     static void ms_sip(uint64 mask);
  69:src/../h/riscv.hpp **** 
  70:src/../h/riscv.hpp ****     // mask clear register sip
  71:src/../h/riscv.hpp ****     static void mc_sip(uint64 mask);
  72:src/../h/riscv.hpp **** 
  73:src/../h/riscv.hpp ****     // read register sip
  74:src/../h/riscv.hpp ****     static uint64 r_sip();
  75:src/../h/riscv.hpp **** 
  76:src/../h/riscv.hpp ****     // write register sip
  77:src/../h/riscv.hpp ****     static void w_sip(uint64 sip);
  78:src/../h/riscv.hpp **** 
  79:src/../h/riscv.hpp ****     enum BitMaskSstatus
  80:src/../h/riscv.hpp ****     {
  81:src/../h/riscv.hpp ****         SSTATUS_SIE = (1 << 1),
  82:src/../h/riscv.hpp ****         SSTATUS_SPIE = (1 << 5),
  83:src/../h/riscv.hpp ****         SSTATUS_SPP = (1 << 8),
  84:src/../h/riscv.hpp ****     };
  85:src/../h/riscv.hpp **** 
  86:src/../h/riscv.hpp ****     // mask set register sstatus
  87:src/../h/riscv.hpp ****     static void ms_sstatus(uint64 mask);
GAS LISTING /tmp/ccr9umi9.s 			page 4


  88:src/../h/riscv.hpp **** 
  89:src/../h/riscv.hpp ****     // mask clear register sstatus
  90:src/../h/riscv.hpp ****     static void mc_sstatus(uint64 mask);
  91:src/../h/riscv.hpp **** 
  92:src/../h/riscv.hpp ****     // read register sstatus
  93:src/../h/riscv.hpp ****     static uint64 r_sstatus();
  94:src/../h/riscv.hpp **** 
  95:src/../h/riscv.hpp ****     // write register sstatus
  96:src/../h/riscv.hpp ****     static void w_sstatus(uint64 sstatus);
  97:src/../h/riscv.hpp **** 
  98:src/../h/riscv.hpp ****     // supervisor trap
  99:src/../h/riscv.hpp ****     static void supervisorTrap();
 100:src/../h/riscv.hpp **** 
 101:src/../h/riscv.hpp ****     // set mode
 102:src/../h/riscv.hpp ****     static void setUserMode(bool b) {userMode = b;}
 103:src/../h/riscv.hpp **** 
 104:src/../h/riscv.hpp **** private:
 105:src/../h/riscv.hpp **** 
 106:src/../h/riscv.hpp ****     // supervisor trap handler
 107:src/../h/riscv.hpp ****     static void handleSupervisorTrap();
 108:src/../h/riscv.hpp ****     static bool userMode;
 109:src/../h/riscv.hpp **** 
 110:src/../h/riscv.hpp **** };
 111:src/../h/riscv.hpp **** 
 112:src/../h/riscv.hpp **** inline uint64 Riscv::r_scause()
 113:src/../h/riscv.hpp **** {
 114:src/../h/riscv.hpp ****     uint64 volatile scause;
 115:src/../h/riscv.hpp ****     __asm__ volatile ("csrr %[scause], scause" : [scause] "=r"(scause));
 116:src/../h/riscv.hpp ****     return scause;
 117:src/../h/riscv.hpp **** }
 118:src/../h/riscv.hpp **** 
 119:src/../h/riscv.hpp **** inline void Riscv::w_scause(uint64 scause)
 120:src/../h/riscv.hpp **** {
 121:src/../h/riscv.hpp ****     __asm__ volatile ("csrw scause, %[scause]" : : [scause] "r"(scause));
 122:src/../h/riscv.hpp **** }
 123:src/../h/riscv.hpp **** 
 124:src/../h/riscv.hpp **** inline uint64 Riscv::r_sepc()
 125:src/../h/riscv.hpp **** {
 126:src/../h/riscv.hpp ****     uint64 volatile sepc;
 127:src/../h/riscv.hpp ****     __asm__ volatile ("csrr %[sepc], sepc" : [sepc] "=r"(sepc));
 128:src/../h/riscv.hpp ****     return sepc;
 129:src/../h/riscv.hpp **** }
 130:src/../h/riscv.hpp **** 
 131:src/../h/riscv.hpp **** inline void Riscv::w_sepc(uint64 sepc)
 132:src/../h/riscv.hpp **** {
 133:src/../h/riscv.hpp ****     __asm__ volatile ("csrw sepc, %[sepc]" : : [sepc] "r"(sepc));
 134:src/../h/riscv.hpp **** }
 135:src/../h/riscv.hpp **** 
 136:src/../h/riscv.hpp **** inline uint64 Riscv::r_stvec()
 137:src/../h/riscv.hpp **** {
 138:src/../h/riscv.hpp ****     uint64 volatile stvec;
 139:src/../h/riscv.hpp ****     __asm__ volatile ("csrr %[stvec], stvec" : [stvec] "=r"(stvec));
 140:src/../h/riscv.hpp ****     return stvec;
 141:src/../h/riscv.hpp **** }
 142:src/../h/riscv.hpp **** 
 143:src/../h/riscv.hpp **** inline void Riscv::w_stvec(uint64 stvec)
 144:src/../h/riscv.hpp **** {
GAS LISTING /tmp/ccr9umi9.s 			page 5


 145:src/../h/riscv.hpp ****     __asm__ volatile ("csrw stvec, %[stvec]" : : [stvec] "r"(stvec));
  66              		.loc 2 145 5 is_stmt 1
  67              		.loc 2 145 69 is_stmt 0
  68              	#APP
  69              	# 145 "src/../h/riscv.hpp" 1
 146              	}
  70              		csrw stvec, a5
  71              	# 0 "" 2
  72              	.LVL3:
  73              	#NO_APP
  74              	.LBE11:
  75              	.LBE10:
  19:src/main.cpp  ****     memory::initialize();
  76              		.loc 1 19 5 is_stmt 1
  77              		.loc 1 19 23 is_stmt 0
  78 0044 97000000 		call	_ZN6memory10initializeEv@plt
  78      E7800000 
  79              	.LVL4:
  20:src/main.cpp  **** 
  21:src/main.cpp  ****     // idle nit
  22:src/main.cpp  ****     thread_t idleThread = nullptr;
  80              		.loc 1 22 5 is_stmt 1
  81              		.loc 1 22 14 is_stmt 0
  82 004c 233404FE 		sd	zero,-24(s0)
  23:src/main.cpp  ****     thread_create(&idleThread, nullptr, nullptr);
  83              		.loc 1 23 5 is_stmt 1
  84              		.loc 1 23 18 is_stmt 0
  85 0050 13060000 		li	a2,0
  86 0054 93050000 		li	a1,0
  87 0058 130584FE 		addi	a0,s0,-24
  88 005c 97000000 		call	_Z13thread_createPP7_threadPFvPvES2_@plt
  88      E7800000 
  89              	.LVL5:
  24:src/main.cpp  ****     _thread::running = idleThread;
  90              		.loc 1 24 5 is_stmt 1
  91              		.loc 1 24 22 is_stmt 0
  92 0064 97070000 		la	a5,_ZN7_thread7runningE
  92      83B70700 
  93 006c 033784FE 		ld	a4,-24(s0)
  94 0070 23B0E700 		sd	a4,0(a5)
  25:src/main.cpp  **** 
  26:src/main.cpp  ****     Riscv::ms_sstatus(Riscv::SSTATUS_SIE);
  95              		.loc 1 26 5 is_stmt 1
  96              	.LVL6:
  97              	.LBB12:
  98              	.LBB13:
 147:src/../h/riscv.hpp **** 
 148:src/../h/riscv.hpp **** inline uint64 Riscv::r_stval()
 149:src/../h/riscv.hpp **** {
 150:src/../h/riscv.hpp ****     uint64 volatile stval;
 151:src/../h/riscv.hpp ****     __asm__ volatile ("csrr %[stval], stval" : [stval] "=r"(stval));
 152:src/../h/riscv.hpp ****     return stval;
 153:src/../h/riscv.hpp **** }
 154:src/../h/riscv.hpp **** 
 155:src/../h/riscv.hpp **** inline void Riscv::w_stval(uint64 stval)
 156:src/../h/riscv.hpp **** {
 157:src/../h/riscv.hpp ****     __asm__ volatile ("csrw stval, %[stval]" : : [stval] "r"(stval));
GAS LISTING /tmp/ccr9umi9.s 			page 6


 158:src/../h/riscv.hpp **** }
 159:src/../h/riscv.hpp **** 
 160:src/../h/riscv.hpp **** inline void Riscv::ms_sip(uint64 mask)
 161:src/../h/riscv.hpp **** {
 162:src/../h/riscv.hpp ****     __asm__ volatile ("csrs sip, %[mask]" : : [mask] "r"(mask));
 163:src/../h/riscv.hpp **** }
 164:src/../h/riscv.hpp **** 
 165:src/../h/riscv.hpp **** inline void Riscv::mc_sip(uint64 mask)
 166:src/../h/riscv.hpp **** {
 167:src/../h/riscv.hpp ****     __asm__ volatile ("csrc sip, %[mask]" : : [mask] "r"(mask));
 168:src/../h/riscv.hpp **** }
 169:src/../h/riscv.hpp **** 
 170:src/../h/riscv.hpp **** inline uint64 Riscv::r_sip()
 171:src/../h/riscv.hpp **** {
 172:src/../h/riscv.hpp ****     uint64 volatile sip;
 173:src/../h/riscv.hpp ****     __asm__ volatile ("csrr %[sip], sip" : [sip] "=r"(sip));
 174:src/../h/riscv.hpp ****     return sip;
 175:src/../h/riscv.hpp **** }
 176:src/../h/riscv.hpp **** 
 177:src/../h/riscv.hpp **** inline void Riscv::w_sip(uint64 sip)
 178:src/../h/riscv.hpp **** {
 179:src/../h/riscv.hpp ****     __asm__ volatile ("csrw sip, %[sip]" : : [sip] "r"(sip));
 180:src/../h/riscv.hpp **** }
 181:src/../h/riscv.hpp **** 
 182:src/../h/riscv.hpp **** inline void Riscv::ms_sstatus(uint64 mask)
 183:src/../h/riscv.hpp **** {
 184:src/../h/riscv.hpp ****     __asm__ volatile ("csrs sstatus, %[mask]" : : [mask] "r"(mask));
  99              		.loc 2 184 5
 100              		.loc 2 184 68 is_stmt 0
 101 0074 93072000 		li	a5,2
 102              	#APP
 103              	# 184 "src/../h/riscv.hpp" 1
 185              	}
 104              		csrs sstatus, a5
 105              	# 0 "" 2
 106              	.LVL7:
 107              	#NO_APP
 108              	.LBE13:
 109              	.LBE12:
  27:src/main.cpp  **** 
  28:src/main.cpp  ****     Riscv::setUserMode(true);
 110              		.loc 1 28 5 is_stmt 1
 111              	.LBB14:
 112              	.LBB15:
 102:src/../h/riscv.hpp **** 
 113              		.loc 2 102 38
 102:src/../h/riscv.hpp **** 
 114              		.loc 2 102 47 is_stmt 0
 115 007c 97070000 		la	a5,_ZN5Riscv8userModeE
 115      83B70700 
 116 0084 13071000 		li	a4,1
 117 0088 2380E700 		sb	a4,0(a5)
 118              	.LVL8:
 119              	.LBE15:
 120              	.LBE14:
  29:src/main.cpp  **** 
  30:src/main.cpp  ****     uint8 userCode = 0x0;
GAS LISTING /tmp/ccr9umi9.s 			page 7


 121              		.loc 1 30 5 is_stmt 1
  31:src/main.cpp  ****     WRITE_REG("a7", userCode);
 122              		.loc 1 31 5
 123              		.loc 1 31 30 is_stmt 0
 124 008c 93070000 		li	a5,0
 125              	#APP
 126              	# 31 "src/main.cpp" 1
  32              	    __asm__ volatile("ecall");
 127              		mv a7, a5
 128              	# 0 "" 2
 129              		.loc 1 32 5 is_stmt 1
 130              		.loc 1 32 30 is_stmt 0
 131              	# 32 "src/main.cpp" 1
  33              	
  34:src/main.cpp  ****     thread_t userThread;
 132              		ecall
 133              	# 0 "" 2
 134              		.loc 1 34 5 is_stmt 1
  35:src/main.cpp  ****     thread_create(&userThread, &userMainWrapper, nullptr);
 135              		.loc 1 35 5
 136              		.loc 1 35 18 is_stmt 0
 137              	#NO_APP
 138 0098 13060000 		li	a2,0
 139 009c 97050000 		lla	a1,_Z15userMainWrapperPv
 139      93850500 
 140 00a4 130504FE 		addi	a0,s0,-32
 141 00a8 97000000 		call	_Z13thread_createPP7_threadPFvPvES2_@plt
 141      E7800000 
 142              	.LVL9:
 143              	.L5:
  36:src/main.cpp  ****     while (!userThread->isFinished()) thread_dispatch();
 144              		.loc 1 36 5 is_stmt 1
 145              		.loc 1 36 12
 146              		.loc 1 36 35 is_stmt 0
 147 00b0 833704FE 		ld	a5,-32(s0)
 148              	.LVL10:
 149              	.LBB16:
 150              	.LBB17:
 151              		.file 3 "src/../h/_thread.hpp"
   1:src/../h/_thread.hpp **** 
   2:src/../h/_thread.hpp **** 
   3:src/../h/_thread.hpp **** #ifndef OS1_VEZBE07_RISCV_CONTEXT_SWITCH_2_INTERRUPT_TCB_HPP
   4:src/../h/_thread.hpp **** #define OS1_VEZBE07_RISCV_CONTEXT_SWITCH_2_INTERRUPT_TCB_HPP
   5:src/../h/_thread.hpp **** 
   6:src/../h/_thread.hpp **** #include "../lib/hw.h"
   7:src/../h/_thread.hpp **** #include "scheduler.hpp"
   8:src/../h/_thread.hpp **** 
   9:src/../h/_thread.hpp **** typedef _thread* thread_t;
  10:src/../h/_thread.hpp **** 
  11:src/../h/_thread.hpp **** // Thread Control Block
  12:src/../h/_thread.hpp **** class _thread
  13:src/../h/_thread.hpp **** {
  14:src/../h/_thread.hpp **** public:
  15:src/../h/_thread.hpp ****     ~_thread() { delete[] stack; }
  16:src/../h/_thread.hpp **** 
  17:src/../h/_thread.hpp ****     bool isFinished() const { return finished; }
 152              		.loc 3 17 31 is_stmt 1
GAS LISTING /tmp/ccr9umi9.s 			page 8


 153              		.loc 3 17 38 is_stmt 0
 154 00b4 83C78702 		lbu	a5,40(a5)
 155              	.LVL11:
 156              	.LBE17:
 157              	.LBE16:
 158              		.loc 1 36 12
 159 00b8 63980700 		bnez	a5,.L4
 160              		.loc 1 36 39 is_stmt 1 discriminator 1
 161              		.loc 1 36 54 is_stmt 0 discriminator 1
 162 00bc 97000000 		call	_Z15thread_dispatchv@plt
 162      E7800000 
 163              	.LVL12:
 164 00c4 6FF0DFFE 		j	.L5
 165              	.L4:
  37:src/main.cpp  **** 
  38:src/main.cpp  ****     printString("FINISHED!\n");
 166              		.loc 1 38 5 is_stmt 1
 167              		.loc 1 38 16 is_stmt 0
 168 00c8 17050000 		lla	a0,.LC0
 168      13050500 
 169 00d0 97000000 		call	_Z11printStringPKc@plt
 169      E7800000 
 170              	.LVL13:
  39:src/main.cpp  **** }
 171              		.loc 1 39 1
 172 00d8 83308101 		ld	ra,24(sp)
 173              		.cfi_restore 1
 174 00dc 03340101 		ld	s0,16(sp)
 175              		.cfi_restore 8
 176              		.cfi_def_cfa 2, 32
 177 00e0 13010102 		addi	sp,sp,32
 178              		.cfi_def_cfa_offset 0
 179 00e4 67800000 		jr	ra
 180              		.cfi_endproc
 181              	.LFE38:
 183              	.Letext0:
 184              		.file 4 "src/../test/../h/../lib/hw.h"
 185              		.file 5 "src/../test/../h/syscall_c.hpp"
 186              		.file 6 "src/../h/memory.hpp"
 187              		.file 7 "src/../test/printing.hpp"
GAS LISTING /tmp/ccr9umi9.s 			page 9

