GAS LISTING /tmp/ccvGk0DE.s 			page 1


   1              		.file	"riscv.cpp"
   2              		.option pic
   3              		.option norelax
   4              		.text
   5              	.Ltext0:
   6              		.align	2
   7              		.globl	_ZN5Riscv10popSppSpieEv
   9              	_ZN5Riscv10popSppSpieEv:
  10              	.LFB40:
  11              		.file 1 "src/riscv.cpp"
   1:src/riscv.cpp **** 
   2:src/riscv.cpp **** 
   3:src/riscv.cpp **** #include "../h/riscv.hpp"
   4:src/riscv.cpp **** #include "../h/_thread.hpp"
   5:src/riscv.cpp **** #include "../lib/console.h"
   6:src/riscv.cpp **** #include "../lib/mem.h"
   7:src/riscv.cpp **** #include "../h/_sem.hpp"
   8:src/riscv.cpp **** #include "../test/printing.hpp"
   9:src/riscv.cpp **** 
  10:src/riscv.cpp **** using namespace Num;
  11:src/riscv.cpp **** 
  12:src/riscv.cpp **** 
  13:src/riscv.cpp **** void Riscv::popSppSpie()
  14:src/riscv.cpp **** {
  12              		.loc 1 14 1
  13              		.cfi_startproc
  14 0000 130101FF 		addi	sp,sp,-16
  15              		.cfi_def_cfa_offset 16
  16 0004 23348100 		sd	s0,8(sp)
  17              		.cfi_offset 8, -8
  18 0008 13040101 		addi	s0,sp,16
  19              		.cfi_def_cfa 8, 0
  15:src/riscv.cpp ****     __asm__ volatile("csrw sepc, ra");
  20              		.loc 1 15 5
  21              		.loc 1 15 38 is_stmt 0
  22              	#APP
  23              	# 15 "src/riscv.cpp" 1
  16              	    __asm__ volatile("sret");
  24              		csrw sepc, ra
  25              	# 0 "" 2
  26              		.loc 1 16 5 is_stmt 1
  27              		.loc 1 16 29 is_stmt 0
  28              	# 16 "src/riscv.cpp" 1
  17              	
  18:src/riscv.cpp **** }
  29              		sret
  30              	# 0 "" 2
  31              		.loc 1 18 1
  32              	#NO_APP
  33 0014 03348100 		ld	s0,8(sp)
  34              		.cfi_restore 8
  35              		.cfi_def_cfa 2, 16
  36 0018 13010101 		addi	sp,sp,16
  37              		.cfi_def_cfa_offset 0
  38 001c 67800000 		jr	ra
  39              		.cfi_endproc
  40              	.LFE40:
GAS LISTING /tmp/ccvGk0DE.s 			page 2


  42              		.section	.rodata.str1.8,"aMS",@progbits,1
  43              		.align	3
  44              	.LC0:
  45 0000 0A536361 		.string	"\nScause: "
  45      7573653A 
  45      2000
  46              		.text
  47              		.align	2
  48              		.globl	_ZN5Riscv20handleSupervisorTrapEv
  50              	_ZN5Riscv20handleSupervisorTrapEv:
  51              	.LFB41:
  19:src/riscv.cpp **** 
  20:src/riscv.cpp **** 
  21:src/riscv.cpp **** void Riscv::handleSupervisorTrap()
  22:src/riscv.cpp **** {
  52              		.loc 1 22 1 is_stmt 1
  53              		.cfi_startproc
  54 0020 130101FB 		addi	sp,sp,-80
  55              		.cfi_def_cfa_offset 80
  56 0024 23341104 		sd	ra,72(sp)
  57 0028 23308104 		sd	s0,64(sp)
  58 002c 233C9102 		sd	s1,56(sp)
  59 0030 23382103 		sd	s2,48(sp)
  60 0034 23343103 		sd	s3,40(sp)
  61              		.cfi_offset 1, -8
  62              		.cfi_offset 8, -16
  63              		.cfi_offset 9, -24
  64              		.cfi_offset 18, -32
  65              		.cfi_offset 19, -40
  66 0038 13040105 		addi	s0,sp,80
  67              		.cfi_def_cfa 8, 0
  23:src/riscv.cpp ****     uint64 scause = r_scause();
  68              		.loc 1 23 5
  69              	.LBB26:
  70              	.LBB27:
  71              		.file 2 "src/../h/riscv.hpp"
   1:src/../h/riscv.hpp **** 
   2:src/../h/riscv.hpp **** 
   3:src/../h/riscv.hpp **** #ifndef OS1_VEZBE07_RISCV_CONTEXT_SWITCH_2_INTERRUPT_RISCV_HPP
   4:src/../h/riscv.hpp **** #define OS1_VEZBE07_RISCV_CONTEXT_SWITCH_2_INTERRUPT_RISCV_HPP
   5:src/../h/riscv.hpp **** 
   6:src/../h/riscv.hpp **** #include "../lib/hw.h"
   7:src/../h/riscv.hpp **** 
   8:src/../h/riscv.hpp **** #define READ_REG(var, regname) __asm__ volatile("mv %0, " regname: "=r"(var))
   9:src/../h/riscv.hpp **** #define WRITE_REG(regname, val) __asm__ volatile("mv " regname ", %0" :: "r"(val))
  10:src/../h/riscv.hpp **** 
  11:src/../h/riscv.hpp **** namespace Num{
  12:src/../h/riscv.hpp ****     constexpr uint8 SCALL_USER_MODE = 0x00;
  13:src/../h/riscv.hpp ****     constexpr uint8 SCALL_MEM_ALLOC = 0x01;
  14:src/../h/riscv.hpp ****     constexpr uint8 SCALL_MEM_FREE = 0x02;
  15:src/../h/riscv.hpp ****     constexpr uint8 SCALL_MEM_GET_FREE_SPACE = 0x03;
  16:src/../h/riscv.hpp ****     constexpr uint8 SCALL_MEM_GET_LARGEST_FREE_BLOCK = 0x04;
  17:src/../h/riscv.hpp ****     constexpr uint8 SCALL_THREAD_CREATE= 0x11;
  18:src/../h/riscv.hpp ****     constexpr uint8 SCALL_THREAD_EXIT = 0x12;
  19:src/../h/riscv.hpp ****     constexpr uint8 SCALL_THREAD_DISPATCH = 0x13;
  20:src/../h/riscv.hpp ****     constexpr uint8 SCALL_SEM_OPEN = 0x21;
  21:src/../h/riscv.hpp ****     constexpr uint8 SCALL_SEM_CLOSE = 0x22;
GAS LISTING /tmp/ccvGk0DE.s 			page 3


  22:src/../h/riscv.hpp ****     constexpr uint8 SCALL_SEM_WAIT = 0x23;
  23:src/../h/riscv.hpp ****     constexpr uint8 SCALL_SEM_SIGNAL = 0x24;
  24:src/../h/riscv.hpp ****     constexpr uint8 SCALL_GETC = 0x41;
  25:src/../h/riscv.hpp ****     constexpr uint8 SCALL_PUTC = 0x42;
  26:src/../h/riscv.hpp **** }
  27:src/../h/riscv.hpp **** 
  28:src/../h/riscv.hpp **** 
  29:src/../h/riscv.hpp **** class Riscv
  30:src/../h/riscv.hpp **** {
  31:src/../h/riscv.hpp **** public:
  32:src/../h/riscv.hpp **** 
  33:src/../h/riscv.hpp ****     // pop sstatus.spp and sstatus.spie bits (has to be a non inline function)
  34:src/../h/riscv.hpp ****     static void popSppSpie();
  35:src/../h/riscv.hpp **** 
  36:src/../h/riscv.hpp ****     // read register scause
  37:src/../h/riscv.hpp ****     static uint64 r_scause();
  38:src/../h/riscv.hpp **** 
  39:src/../h/riscv.hpp ****     // write register scause
  40:src/../h/riscv.hpp ****     static void w_scause(uint64 scause);
  41:src/../h/riscv.hpp **** 
  42:src/../h/riscv.hpp ****     // read register sepc
  43:src/../h/riscv.hpp ****     static uint64 r_sepc();
  44:src/../h/riscv.hpp **** 
  45:src/../h/riscv.hpp ****     // write register sepc
  46:src/../h/riscv.hpp ****     static void w_sepc(uint64 sepc);
  47:src/../h/riscv.hpp **** 
  48:src/../h/riscv.hpp ****     // read register stvec
  49:src/../h/riscv.hpp ****     static uint64 r_stvec();
  50:src/../h/riscv.hpp **** 
  51:src/../h/riscv.hpp ****     // write register stvec
  52:src/../h/riscv.hpp ****     static void w_stvec(uint64 stvec);
  53:src/../h/riscv.hpp **** 
  54:src/../h/riscv.hpp ****     // read register stval
  55:src/../h/riscv.hpp ****     static uint64 r_stval();
  56:src/../h/riscv.hpp **** 
  57:src/../h/riscv.hpp ****     // write register stval
  58:src/../h/riscv.hpp ****     static void w_stval(uint64 stval);
  59:src/../h/riscv.hpp **** 
  60:src/../h/riscv.hpp ****     enum BitMaskSip
  61:src/../h/riscv.hpp ****     {
  62:src/../h/riscv.hpp ****         SIP_SSIP = (1 << 1),
  63:src/../h/riscv.hpp ****         SIP_STIP = (1 << 5),
  64:src/../h/riscv.hpp ****         SIP_SEIP = (1 << 9),
  65:src/../h/riscv.hpp ****     };
  66:src/../h/riscv.hpp **** 
  67:src/../h/riscv.hpp ****     // mask set register sip
  68:src/../h/riscv.hpp ****     static void ms_sip(uint64 mask);
  69:src/../h/riscv.hpp **** 
  70:src/../h/riscv.hpp ****     // mask clear register sip
  71:src/../h/riscv.hpp ****     static void mc_sip(uint64 mask);
  72:src/../h/riscv.hpp **** 
  73:src/../h/riscv.hpp ****     // read register sip
  74:src/../h/riscv.hpp ****     static uint64 r_sip();
  75:src/../h/riscv.hpp **** 
  76:src/../h/riscv.hpp ****     // write register sip
  77:src/../h/riscv.hpp ****     static void w_sip(uint64 sip);
  78:src/../h/riscv.hpp **** 
GAS LISTING /tmp/ccvGk0DE.s 			page 4


  79:src/../h/riscv.hpp ****     enum BitMaskSstatus
  80:src/../h/riscv.hpp ****     {
  81:src/../h/riscv.hpp ****         SSTATUS_SIE = (1 << 1),
  82:src/../h/riscv.hpp ****         SSTATUS_SPIE = (1 << 5),
  83:src/../h/riscv.hpp ****         SSTATUS_SPP = (1 << 8),
  84:src/../h/riscv.hpp ****     };
  85:src/../h/riscv.hpp **** 
  86:src/../h/riscv.hpp ****     // mask set register sstatus
  87:src/../h/riscv.hpp ****     static void ms_sstatus(uint64 mask);
  88:src/../h/riscv.hpp **** 
  89:src/../h/riscv.hpp ****     // mask clear register sstatus
  90:src/../h/riscv.hpp ****     static void mc_sstatus(uint64 mask);
  91:src/../h/riscv.hpp **** 
  92:src/../h/riscv.hpp ****     // read register sstatus
  93:src/../h/riscv.hpp ****     static uint64 r_sstatus();
  94:src/../h/riscv.hpp **** 
  95:src/../h/riscv.hpp ****     // write register sstatus
  96:src/../h/riscv.hpp ****     static void w_sstatus(uint64 sstatus);
  97:src/../h/riscv.hpp **** 
  98:src/../h/riscv.hpp ****     // supervisor trap
  99:src/../h/riscv.hpp ****     static void supervisorTrap();
 100:src/../h/riscv.hpp **** 
 101:src/../h/riscv.hpp **** private:
 102:src/../h/riscv.hpp **** 
 103:src/../h/riscv.hpp ****     // supervisor trap handler
 104:src/../h/riscv.hpp ****     static void handleSupervisorTrap();
 105:src/../h/riscv.hpp **** 
 106:src/../h/riscv.hpp **** };
 107:src/../h/riscv.hpp **** 
 108:src/../h/riscv.hpp **** inline uint64 Riscv::r_scause()
 109:src/../h/riscv.hpp **** {
 110:src/../h/riscv.hpp ****     uint64 volatile scause;
  72              		.loc 2 110 5
 111:src/../h/riscv.hpp ****     __asm__ volatile ("csrr %[scause], scause" : [scause] "=r"(scause));
  73              		.loc 2 111 5
  74              		.loc 2 111 72 is_stmt 0
  75              	#APP
  76              	# 111 "src/../h/riscv.hpp" 1
 112              	    return scause;
  77              		csrr a5, scause
  78              	# 0 "" 2
  79              	#NO_APP
  80 0040 233CF4FA 		sd	a5,-72(s0)
  81              		.loc 2 112 5 is_stmt 1
  82              		.loc 2 112 12 is_stmt 0
  83 0044 833484FB 		ld	s1,-72(s0)
  84              	.LVL0:
  85              	.LBE27:
  86              	.LBE26:
  24:src/riscv.cpp ****     switch((uint64)scause){
  87              		.loc 1 24 5 is_stmt 1
  88              	.LBB28:
  89 0048 9307F0FF 		li	a5,-1
  90 004c 9397F703 		slli	a5,a5,63
  91 0050 93871700 		addi	a5,a5,1
  92 0054 6384F418 		beq	s1,a5,.L4
  93 0058 9307F0FF 		li	a5,-1
GAS LISTING /tmp/ccvGk0DE.s 			page 5


  94 005c 9397F703 		slli	a5,a5,63
  95 0060 93871700 		addi	a5,a5,1
  96 0064 63EA9704 		bgtu	s1,a5,.L5
  97 0068 938784FF 		addi	a5,s1,-8
  98 006c 13071000 		li	a4,1
  99 0070 6368F718 		bgtu	a5,a4,.L6
 100              	.LBB29:
  25:src/riscv.cpp ****         case 0x0000000000000008UL:
 101              		.loc 1 25 9
  26:src/riscv.cpp ****         case 0x0000000000000009UL: {
 102              		.loc 1 26 9
 103              		.loc 1 26 36
 104              	.LBB30:
  27:src/riscv.cpp ****             uint64 sepc = r_sepc() + 4;
 105              		.loc 1 27 13
 106              	.LBB31:
 107              	.LBB32:
 113:src/../h/riscv.hpp **** }
 114:src/../h/riscv.hpp **** 
 115:src/../h/riscv.hpp **** inline void Riscv::w_scause(uint64 scause)
 116:src/../h/riscv.hpp **** {
 117:src/../h/riscv.hpp ****     __asm__ volatile ("csrw scause, %[scause]" : : [scause] "r"(scause));
 118:src/../h/riscv.hpp **** }
 119:src/../h/riscv.hpp **** 
 120:src/../h/riscv.hpp **** inline uint64 Riscv::r_sepc()
 121:src/../h/riscv.hpp **** {
 122:src/../h/riscv.hpp ****     uint64 volatile sepc;
 108              		.loc 2 122 5
 123:src/../h/riscv.hpp ****     __asm__ volatile ("csrr %[sepc], sepc" : [sepc] "=r"(sepc));
 109              		.loc 2 123 5
 110              		.loc 2 123 64 is_stmt 0
 111              	#APP
 112              	# 123 "src/../h/riscv.hpp" 1
 124              	    return sepc;
 113              		csrr a5, sepc
 114              	# 0 "" 2
 115              	#NO_APP
 116 0078 2334F4FC 		sd	a5,-56(s0)
 117              		.loc 2 124 5 is_stmt 1
 118              		.loc 2 124 12 is_stmt 0
 119 007c 833784FC 		ld	a5,-56(s0)
 120              	.LBE32:
 121              	.LBE31:
 122              		.loc 1 27 38
 123 0080 93844700 		addi	s1,a5,4
 124              	.LVL1:
  28:src/riscv.cpp ****             uint64 sstatus = r_sstatus();
 125              		.loc 1 28 13 is_stmt 1
 126              	.LBB33:
 127              	.LBB34:
 125:src/../h/riscv.hpp **** }
 126:src/../h/riscv.hpp **** 
 127:src/../h/riscv.hpp **** inline void Riscv::w_sepc(uint64 sepc)
 128:src/../h/riscv.hpp **** {
 129:src/../h/riscv.hpp ****     __asm__ volatile ("csrw sepc, %[sepc]" : : [sepc] "r"(sepc));
 130:src/../h/riscv.hpp **** }
 131:src/../h/riscv.hpp **** 
GAS LISTING /tmp/ccvGk0DE.s 			page 6


 132:src/../h/riscv.hpp **** inline uint64 Riscv::r_stvec()
 133:src/../h/riscv.hpp **** {
 134:src/../h/riscv.hpp ****     uint64 volatile stvec;
 135:src/../h/riscv.hpp ****     __asm__ volatile ("csrr %[stvec], stvec" : [stvec] "=r"(stvec));
 136:src/../h/riscv.hpp ****     return stvec;
 137:src/../h/riscv.hpp **** }
 138:src/../h/riscv.hpp **** 
 139:src/../h/riscv.hpp **** inline void Riscv::w_stvec(uint64 stvec)
 140:src/../h/riscv.hpp **** {
 141:src/../h/riscv.hpp ****     __asm__ volatile ("csrw stvec, %[stvec]" : : [stvec] "r"(stvec));
 142:src/../h/riscv.hpp **** }
 143:src/../h/riscv.hpp **** 
 144:src/../h/riscv.hpp **** inline uint64 Riscv::r_stval()
 145:src/../h/riscv.hpp **** {
 146:src/../h/riscv.hpp ****     uint64 volatile stval;
 147:src/../h/riscv.hpp ****     __asm__ volatile ("csrr %[stval], stval" : [stval] "=r"(stval));
 148:src/../h/riscv.hpp ****     return stval;
 149:src/../h/riscv.hpp **** }
 150:src/../h/riscv.hpp **** 
 151:src/../h/riscv.hpp **** inline void Riscv::w_stval(uint64 stval)
 152:src/../h/riscv.hpp **** {
 153:src/../h/riscv.hpp ****     __asm__ volatile ("csrw stval, %[stval]" : : [stval] "r"(stval));
 154:src/../h/riscv.hpp **** }
 155:src/../h/riscv.hpp **** 
 156:src/../h/riscv.hpp **** inline void Riscv::ms_sip(uint64 mask)
 157:src/../h/riscv.hpp **** {
 158:src/../h/riscv.hpp ****     __asm__ volatile ("csrs sip, %[mask]" : : [mask] "r"(mask));
 159:src/../h/riscv.hpp **** }
 160:src/../h/riscv.hpp **** 
 161:src/../h/riscv.hpp **** inline void Riscv::mc_sip(uint64 mask)
 162:src/../h/riscv.hpp **** {
 163:src/../h/riscv.hpp ****     __asm__ volatile ("csrc sip, %[mask]" : : [mask] "r"(mask));
 164:src/../h/riscv.hpp **** }
 165:src/../h/riscv.hpp **** 
 166:src/../h/riscv.hpp **** inline uint64 Riscv::r_sip()
 167:src/../h/riscv.hpp **** {
 168:src/../h/riscv.hpp ****     uint64 volatile sip;
 169:src/../h/riscv.hpp ****     __asm__ volatile ("csrr %[sip], sip" : [sip] "=r"(sip));
 170:src/../h/riscv.hpp ****     return sip;
 171:src/../h/riscv.hpp **** }
 172:src/../h/riscv.hpp **** 
 173:src/../h/riscv.hpp **** inline void Riscv::w_sip(uint64 sip)
 174:src/../h/riscv.hpp **** {
 175:src/../h/riscv.hpp ****     __asm__ volatile ("csrw sip, %[sip]" : : [sip] "r"(sip));
 176:src/../h/riscv.hpp **** }
 177:src/../h/riscv.hpp **** 
 178:src/../h/riscv.hpp **** inline void Riscv::ms_sstatus(uint64 mask)
 179:src/../h/riscv.hpp **** {
 180:src/../h/riscv.hpp ****     __asm__ volatile ("csrs sstatus, %[mask]" : : [mask] "r"(mask));
 181:src/../h/riscv.hpp **** }
 182:src/../h/riscv.hpp **** 
 183:src/../h/riscv.hpp **** inline void Riscv::mc_sstatus(uint64 mask)
 184:src/../h/riscv.hpp **** {
 185:src/../h/riscv.hpp ****     __asm__ volatile ("csrc sstatus, %[mask]" : : [mask] "r"(mask));
 186:src/../h/riscv.hpp **** }
 187:src/../h/riscv.hpp **** 
 188:src/../h/riscv.hpp **** inline uint64 Riscv::r_sstatus()
GAS LISTING /tmp/ccvGk0DE.s 			page 7


 189:src/../h/riscv.hpp **** {
 190:src/../h/riscv.hpp ****     uint64 volatile sstatus;
 128              		.loc 2 190 5
 191:src/../h/riscv.hpp ****     __asm__ volatile ("csrr %[sstatus], sstatus" : [sstatus] "=r"(sstatus));
 129              		.loc 2 191 5
 130              		.loc 2 191 76 is_stmt 0
 131              	#APP
 132              	# 191 "src/../h/riscv.hpp" 1
 192              	    return sstatus;
 133              		csrr a5, sstatus
 134              	# 0 "" 2
 135              	#NO_APP
 136 0088 2330F4FC 		sd	a5,-64(s0)
 137              		.loc 2 192 5 is_stmt 1
 138              		.loc 2 192 12 is_stmt 0
 139 008c 033904FC 		ld	s2,-64(s0)
 140              	.LVL2:
 141              	.LBE34:
 142              	.LBE33:
  29:src/riscv.cpp ****             uint64 scallnum;
 143              		.loc 1 29 13 is_stmt 1
  30:src/riscv.cpp ****             uint64 ret = 0;
 144              		.loc 1 30 13
  31:src/riscv.cpp ****             READ_REG(scallnum, "a7");
 145              		.loc 1 31 13
 146              		.loc 1 31 37 is_stmt 0
 147              	#APP
 148              	# 31 "src/riscv.cpp" 1
  32              	            switch (scallnum) {
 149              		mv a5, a7
 150              	# 0 "" 2
 151              	.LVL3:
 152              		.loc 1 32 13 is_stmt 1
 153              	#NO_APP
 154 0094 13072004 		li	a4,66
 155 0098 6360F706 		bgtu	a5,a4,.L9
 156 009c 93972700 		slli	a5,a5,2
 157              	.LVL4:
 158 00a0 17070000 		lla	a4,.L11
 158      13070700 
 159 00a8 B387E700 		add	a5,a5,a4
 160 00ac 83A70700 		lw	a5,0(a5)
 161 00b0 B387E700 		add	a5,a5,a4
 162 00b4 67800700 		jr	a5
 163              		.section	.rodata
 164              		.align	2
 165              		.align	2
 166              	.L11:
 167 0000 00000000 		.word	.L22-.L11
 168 0004 00000000 		.word	.L21-.L11
 169 0008 00000000 		.word	.L20-.L11
 170 000c 00000000 		.word	.L9-.L11
 171 0010 00000000 		.word	.L9-.L11
 172 0014 00000000 		.word	.L9-.L11
 173 0018 00000000 		.word	.L9-.L11
 174 001c 00000000 		.word	.L9-.L11
 175 0020 00000000 		.word	.L9-.L11
GAS LISTING /tmp/ccvGk0DE.s 			page 8


 176 0024 00000000 		.word	.L9-.L11
 177 0028 00000000 		.word	.L9-.L11
 178 002c 00000000 		.word	.L9-.L11
 179 0030 00000000 		.word	.L9-.L11
 180 0034 00000000 		.word	.L9-.L11
 181 0038 00000000 		.word	.L9-.L11
 182 003c 00000000 		.word	.L9-.L11
 183 0040 00000000 		.word	.L9-.L11
 184 0044 00000000 		.word	.L19-.L11
 185 0048 00000000 		.word	.L18-.L11
 186 004c 00000000 		.word	.L17-.L11
 187 0050 00000000 		.word	.L9-.L11
 188 0054 00000000 		.word	.L9-.L11
 189 0058 00000000 		.word	.L9-.L11
 190 005c 00000000 		.word	.L9-.L11
 191 0060 00000000 		.word	.L9-.L11
 192 0064 00000000 		.word	.L9-.L11
 193 0068 00000000 		.word	.L9-.L11
 194 006c 00000000 		.word	.L9-.L11
 195 0070 00000000 		.word	.L9-.L11
 196 0074 00000000 		.word	.L9-.L11
 197 0078 00000000 		.word	.L9-.L11
 198 007c 00000000 		.word	.L9-.L11
 199 0080 00000000 		.word	.L9-.L11
 200 0084 00000000 		.word	.L16-.L11
 201 0088 00000000 		.word	.L15-.L11
 202 008c 00000000 		.word	.L14-.L11
 203 0090 00000000 		.word	.L13-.L11
 204 0094 00000000 		.word	.L9-.L11
 205 0098 00000000 		.word	.L9-.L11
 206 009c 00000000 		.word	.L9-.L11
 207 00a0 00000000 		.word	.L9-.L11
 208 00a4 00000000 		.word	.L9-.L11
 209 00a8 00000000 		.word	.L9-.L11
 210 00ac 00000000 		.word	.L9-.L11
 211 00b0 00000000 		.word	.L9-.L11
 212 00b4 00000000 		.word	.L9-.L11
 213 00b8 00000000 		.word	.L9-.L11
 214 00bc 00000000 		.word	.L9-.L11
 215 00c0 00000000 		.word	.L9-.L11
 216 00c4 00000000 		.word	.L9-.L11
 217 00c8 00000000 		.word	.L9-.L11
 218 00cc 00000000 		.word	.L9-.L11
 219 00d0 00000000 		.word	.L9-.L11
 220 00d4 00000000 		.word	.L9-.L11
 221 00d8 00000000 		.word	.L9-.L11
 222 00dc 00000000 		.word	.L9-.L11
 223 00e0 00000000 		.word	.L9-.L11
 224 00e4 00000000 		.word	.L9-.L11
 225 00e8 00000000 		.word	.L9-.L11
 226 00ec 00000000 		.word	.L9-.L11
 227 00f0 00000000 		.word	.L9-.L11
 228 00f4 00000000 		.word	.L9-.L11
 229 00f8 00000000 		.word	.L9-.L11
 230 00fc 00000000 		.word	.L9-.L11
 231 0100 00000000 		.word	.L9-.L11
 232 0104 00000000 		.word	.L12-.L11
GAS LISTING /tmp/ccvGk0DE.s 			page 9


 233 0108 00000000 		.word	.L10-.L11
 234              		.text
 235              	.LVL5:
 236              	.L5:
 237              	.LBE30:
 238              	.LBE29:
  24:src/riscv.cpp ****         case 0x0000000000000008UL:
 239              		.loc 1 24 5 is_stmt 0
 240 00b8 9307F0FF 		li	a5,-1
 241 00bc 9397F703 		slli	a5,a5,63
 242 00c0 93879700 		addi	a5,a5,9
 243 00c4 639EF412 		bne	s1,a5,.L6
 244              	.LBB51:
  33:src/riscv.cpp ****                 case SCALL_USER_MODE:
  34:src/riscv.cpp ****                     mc_sstatus(SSTATUS_SPP);
  35:src/riscv.cpp ****                     mc_sip(SIP_SSIP);
  36:src/riscv.cpp ****                     w_sepc(sepc);
  37:src/riscv.cpp ****                     return;
  38:src/riscv.cpp ****                     break;
  39:src/riscv.cpp ****                 case SCALL_MEM_ALLOC:
  40:src/riscv.cpp ****                     size_t size;
  41:src/riscv.cpp ****                     READ_REG(size, "a0");
  42:src/riscv.cpp ****                     __mem_alloc(size);
  43:src/riscv.cpp ****                     break;
  44:src/riscv.cpp ****                 case SCALL_MEM_FREE:
  45:src/riscv.cpp ****                     void* ptr;
  46:src/riscv.cpp ****                     READ_REG(ptr, "a0");
  47:src/riscv.cpp ****                     __mem_free(ptr);
  48:src/riscv.cpp ****                     break;
  49:src/riscv.cpp ****                 case SCALL_MEM_GET_FREE_SPACE:
  50:src/riscv.cpp ****                     break;
  51:src/riscv.cpp ****                 case SCALL_MEM_GET_LARGEST_FREE_BLOCK:
  52:src/riscv.cpp ****                     break;
  53:src/riscv.cpp ****                 case SCALL_THREAD_CREATE: {
  54:src/riscv.cpp ****                     thread_t* handle;
  55:src/riscv.cpp ****                     _thread::Body body;
  56:src/riscv.cpp ****                     void* args;
  57:src/riscv.cpp ****                     READ_REG(handle, "a0");
  58:src/riscv.cpp ****                     READ_REG(body, "a1");
  59:src/riscv.cpp ****                     READ_REG(args, "a2");
  60:src/riscv.cpp ****                     *handle = _thread::createThread(body, args);
  61:src/riscv.cpp ****                     if(*handle != nullptr) ret = 0;
  62:src/riscv.cpp ****                     else ret = -1;
  63:src/riscv.cpp ****                     WRITE_REG("a0", ret);
  64:src/riscv.cpp ****                     break;
  65:src/riscv.cpp ****                 }
  66:src/riscv.cpp ****                 case SCALL_THREAD_EXIT:
  67:src/riscv.cpp ****                     _thread::exitThread();
  68:src/riscv.cpp ****                     break;
  69:src/riscv.cpp ****                 case SCALL_THREAD_DISPATCH:
  70:src/riscv.cpp ****                     _thread::dispatch();
  71:src/riscv.cpp ****                     break;
  72:src/riscv.cpp ****                 case SCALL_SEM_OPEN:
  73:src/riscv.cpp ****                     sem_t* handle;
  74:src/riscv.cpp ****                     uint32 init;
  75:src/riscv.cpp ****                     READ_REG(handle, "a0");
  76:src/riscv.cpp ****                     READ_REG(init, "a1");
GAS LISTING /tmp/ccvGk0DE.s 			page 10


  77:src/riscv.cpp ****                     *handle = _sem::createSemaphore(init);
  78:src/riscv.cpp ****                     if(*handle != nullptr) ret = 0;
  79:src/riscv.cpp ****                     else ret = -1;
  80:src/riscv.cpp ****                     WRITE_REG("a0", ret);
  81:src/riscv.cpp ****                     break;
  82:src/riscv.cpp ****                 case SCALL_SEM_CLOSE:
  83:src/riscv.cpp ****                     sem_t handleClose;
  84:src/riscv.cpp ****                     READ_REG(handleClose, "a0");
  85:src/riscv.cpp ****                     handleClose->close();
  86:src/riscv.cpp ****                     break;
  87:src/riscv.cpp ****                 case SCALL_SEM_WAIT:
  88:src/riscv.cpp ****                     sem_t idWait;
  89:src/riscv.cpp ****                     READ_REG(idWait, "a0");
  90:src/riscv.cpp ****                     idWait->wait();
  91:src/riscv.cpp ****                     break;
  92:src/riscv.cpp ****                 case SCALL_SEM_SIGNAL:
  93:src/riscv.cpp ****                     sem_t idSignal;
  94:src/riscv.cpp ****                     READ_REG(idSignal, "a0");
  95:src/riscv.cpp ****                     idSignal->signal();
  96:src/riscv.cpp ****                     break;
  97:src/riscv.cpp ****                 case SCALL_GETC:
  98:src/riscv.cpp ****                     __getc();
  99:src/riscv.cpp ****                     break;
 100:src/riscv.cpp ****                 case SCALL_PUTC:
 101:src/riscv.cpp ****                     char c;
 102:src/riscv.cpp ****                     READ_REG(c, "a0");
 103:src/riscv.cpp ****                     __putc(c);
 104:src/riscv.cpp ****                     break;
 105:src/riscv.cpp ****                 default:
 106:src/riscv.cpp ****                     break;
 107:src/riscv.cpp ****             }
 108:src/riscv.cpp **** 
 109:src/riscv.cpp ****             w_sstatus(sstatus);
 110:src/riscv.cpp ****             w_sepc(sepc);
 111:src/riscv.cpp ****             break;
 112:src/riscv.cpp ****         }
 113:src/riscv.cpp ****         case 0x8000000000000001UL:
 114:src/riscv.cpp ****             mc_sip(SIP_SSIP);
 115:src/riscv.cpp ****             break;
 116:src/riscv.cpp ****         case 0x8000000000000009UL:
 245              		.loc 1 116 9 is_stmt 1
 117:src/riscv.cpp ****             console_handler();
 246              		.loc 1 117 13
 247              		.loc 1 117 28 is_stmt 0
 248 00c8 97000000 		call	console_handler@plt
 248      E7800000 
 249              	.LVL6:
 118:src/riscv.cpp ****             break;
 250              		.loc 1 118 13 is_stmt 1
 251 00d0 6F004011 		j	.L3
 252              	.LVL7:
 253              	.L22:
 254              	.LBB48:
 255              	.LBB35:
  33:src/riscv.cpp ****                 case SCALL_USER_MODE:
 256              		.loc 1 33 17
  34:src/riscv.cpp ****                     mc_sip(SIP_SSIP);
GAS LISTING /tmp/ccvGk0DE.s 			page 11


 257              		.loc 1 34 21
 258              	.LBB36:
 259              	.LBB37:
 185:src/../h/riscv.hpp **** }
 260              		.loc 2 185 5
 185:src/../h/riscv.hpp **** }
 261              		.loc 2 185 68 is_stmt 0
 262 00d4 93070010 		li	a5,256
 263              	#APP
 264              	# 185 "src/../h/riscv.hpp" 1
 265              		csrc sstatus, a5
 266              	# 0 "" 2
 267              	.LVL8:
 268              	#NO_APP
 269              	.LBE37:
 270              	.LBE36:
  35:src/riscv.cpp ****                     w_sepc(sepc);
 271              		.loc 1 35 21 is_stmt 1
 272              	.LBB38:
 273              	.LBB39:
 163:src/../h/riscv.hpp **** }
 274              		.loc 2 163 5
 163:src/../h/riscv.hpp **** }
 275              		.loc 2 163 64 is_stmt 0
 276 00dc 93072000 		li	a5,2
 277              	#APP
 278              	# 163 "src/../h/riscv.hpp" 1
 279              		csrc sip, a5
 280              	# 0 "" 2
 281              	.LVL9:
 282              	#NO_APP
 283              	.LBE39:
 284              	.LBE38:
  36:src/riscv.cpp ****                     return;
 285              		.loc 1 36 21 is_stmt 1
 286              	.LBB40:
 287              	.LBB41:
 129:src/../h/riscv.hpp **** }
 288              		.loc 2 129 5
 129:src/../h/riscv.hpp **** }
 289              		.loc 2 129 65 is_stmt 0
 290              	#APP
 291              	# 129 "src/../h/riscv.hpp" 1
 130:src/../h/riscv.hpp **** 
 292              		csrw sepc, s1
 293              	# 0 "" 2
 294              		.loc 2 130 1
 295              	#NO_APP
 296 00e8 6F00C00F 		j	.L3
 297              	.LVL10:
 298              	.L21:
 299              	.LBE41:
 300              	.LBE40:
  38:src/riscv.cpp ****                 case SCALL_MEM_ALLOC:
 301              		.loc 1 38 21 is_stmt 1
  39:src/riscv.cpp ****                     size_t size;
 302              		.loc 1 39 17
GAS LISTING /tmp/ccvGk0DE.s 			page 12


  40:src/riscv.cpp ****                     READ_REG(size, "a0");
 303              		.loc 1 40 21
  41:src/riscv.cpp ****                     __mem_alloc(size);
 304              		.loc 1 41 21
  41:src/riscv.cpp ****                     __mem_alloc(size);
 305              		.loc 1 41 41 is_stmt 0
 306              	#APP
 307              	# 41 "src/riscv.cpp" 1
 308              		mv a0, a0
 309              	# 0 "" 2
 310              	.LVL11:
  42:src/riscv.cpp ****                     break;
 311              		.loc 1 42 21 is_stmt 1
  42:src/riscv.cpp ****                     break;
 312              		.loc 1 42 32 is_stmt 0
 313              	#NO_APP
 314 00f0 97000000 		call	__mem_alloc@plt
 314      E7800000 
 315              	.LVL12:
  43:src/riscv.cpp ****                 case SCALL_MEM_FREE:
 316              		.loc 1 43 21 is_stmt 1
 317              	.L9:
 318              	.LBE35:
 109:src/riscv.cpp ****             w_sepc(sepc);
 319              		.loc 1 109 13
 320              	.LBB43:
 321              	.LBB44:
 193:src/../h/riscv.hpp **** }
 194:src/../h/riscv.hpp **** 
 195:src/../h/riscv.hpp **** inline void Riscv::w_sstatus(uint64 sstatus)
 196:src/../h/riscv.hpp **** {
 197:src/../h/riscv.hpp ****     __asm__ volatile ("csrw sstatus, %[sstatus]" : : [sstatus] "r"(sstatus));
 322              		.loc 2 197 5
 323              		.loc 2 197 77 is_stmt 0
 324              	#APP
 325              	# 197 "src/../h/riscv.hpp" 1
 198              	}
 326              		csrw sstatus, s2
 327              	# 0 "" 2
 328              	.LVL13:
 329              	#NO_APP
 330              	.LBE44:
 331              	.LBE43:
 110:src/riscv.cpp ****             break;
 332              		.loc 1 110 13 is_stmt 1
 333              	.LBB45:
 334              	.LBB46:
 129:src/../h/riscv.hpp **** }
 335              		.loc 2 129 5
 129:src/../h/riscv.hpp **** }
 336              		.loc 2 129 65 is_stmt 0
 337              	#APP
 338              	# 129 "src/../h/riscv.hpp" 1
 130:src/../h/riscv.hpp **** 
 339              		csrw sepc, s1
 340              	# 0 "" 2
 341              		.loc 2 130 1
GAS LISTING /tmp/ccvGk0DE.s 			page 13


 342              	#NO_APP
 343 0100 6F00400E 		j	.L3
 344              	.LVL14:
 345              	.L20:
 346              	.LBE46:
 347              	.LBE45:
 348              	.LBB47:
  44:src/riscv.cpp ****                     void* ptr;
 349              		.loc 1 44 17 is_stmt 1
  45:src/riscv.cpp ****                     READ_REG(ptr, "a0");
 350              		.loc 1 45 21
  46:src/riscv.cpp ****                     __mem_free(ptr);
 351              		.loc 1 46 21
  46:src/riscv.cpp ****                     __mem_free(ptr);
 352              		.loc 1 46 40 is_stmt 0
 353              	#APP
 354              	# 46 "src/riscv.cpp" 1
 355              		mv a0, a0
 356              	# 0 "" 2
 357              	.LVL15:
  47:src/riscv.cpp ****                     break;
 358              		.loc 1 47 21 is_stmt 1
  47:src/riscv.cpp ****                     break;
 359              		.loc 1 47 31 is_stmt 0
 360              	#NO_APP
 361 0108 97000000 		call	__mem_free@plt
 361      E7800000 
 362              	.LVL16:
  48:src/riscv.cpp ****                 case SCALL_MEM_GET_FREE_SPACE:
 363              		.loc 1 48 21 is_stmt 1
 364 0110 6FF09FFE 		j	.L9
 365              	.L19:
  53:src/riscv.cpp ****                     thread_t* handle;
 366              		.loc 1 53 17
  53:src/riscv.cpp ****                     thread_t* handle;
 367              		.loc 1 53 43
 368              	.LBB42:
  54:src/riscv.cpp ****                     _thread::Body body;
 369              		.loc 1 54 21
  55:src/riscv.cpp ****                     void* args;
 370              		.loc 1 55 21
  56:src/riscv.cpp ****                     READ_REG(handle, "a0");
 371              		.loc 1 56 21
  57:src/riscv.cpp ****                     READ_REG(body, "a1");
 372              		.loc 1 57 21
  57:src/riscv.cpp ****                     READ_REG(body, "a1");
 373              		.loc 1 57 43 is_stmt 0
 374              	#APP
 375              	# 57 "src/riscv.cpp" 1
 376              		mv s3, a0
 377              	# 0 "" 2
 378              	.LVL17:
  58:src/riscv.cpp ****                     READ_REG(args, "a2");
 379              		.loc 1 58 21 is_stmt 1
  58:src/riscv.cpp ****                     READ_REG(args, "a2");
 380              		.loc 1 58 41 is_stmt 0
 381              	# 58 "src/riscv.cpp" 1
GAS LISTING /tmp/ccvGk0DE.s 			page 14


 382              		mv a0, a1
 383              	# 0 "" 2
 384              	.LVL18:
  59:src/riscv.cpp ****                     *handle = _thread::createThread(body, args);
 385              		.loc 1 59 21 is_stmt 1
  59:src/riscv.cpp ****                     *handle = _thread::createThread(body, args);
 386              		.loc 1 59 41 is_stmt 0
 387              	# 59 "src/riscv.cpp" 1
 388              		mv a1, a2
 389              	# 0 "" 2
 390              	.LVL19:
  60:src/riscv.cpp ****                     if(*handle != nullptr) ret = 0;
 391              		.loc 1 60 21 is_stmt 1
  60:src/riscv.cpp ****                     if(*handle != nullptr) ret = 0;
 392              		.loc 1 60 52 is_stmt 0
 393              	#NO_APP
 394 0120 97000000 		call	_ZN7_thread12createThreadEPFvPvES0_@plt
 394      E7800000 
 395              	.LVL20:
  60:src/riscv.cpp ****                     if(*handle != nullptr) ret = 0;
 396              		.loc 1 60 29
 397 0128 23B0A900 		sd	a0,0(s3)
  61:src/riscv.cpp ****                     else ret = -1;
 398              		.loc 1 61 21 is_stmt 1
 399 012c 63080500 		beqz	a0,.L26
  61:src/riscv.cpp ****                     else ret = -1;
 400              		.loc 1 61 48 is_stmt 0
 401 0130 93070000 		li	a5,0
 402              	.L24:
 403              	.LVL21:
  63:src/riscv.cpp ****                     break;
 404              		.loc 1 63 21 is_stmt 1
  63:src/riscv.cpp ****                     break;
 405              		.loc 1 63 41 is_stmt 0
 406              	#APP
 407              	# 63 "src/riscv.cpp" 1
  64:src/riscv.cpp ****                 }
 408              		mv a0, a5
 409              	# 0 "" 2
 410              		.loc 1 64 21 is_stmt 1
 411              	#NO_APP
 412 0138 6FF01FFC 		j	.L9
 413              	.LVL22:
 414              	.L26:
  62:src/riscv.cpp ****                     WRITE_REG("a0", ret);
 415              		.loc 1 62 30 is_stmt 0
 416 013c 9307F0FF 		li	a5,-1
 417 0140 6FF05FFF 		j	.L24
 418              	.LVL23:
 419              	.L18:
 420              	.LBE42:
  66:src/riscv.cpp ****                     _thread::exitThread();
 421              		.loc 1 66 17 is_stmt 1
  67:src/riscv.cpp ****                     break;
 422              		.loc 1 67 21
  67:src/riscv.cpp ****                     break;
 423              		.loc 1 67 40 is_stmt 0
GAS LISTING /tmp/ccvGk0DE.s 			page 15


 424 0144 97000000 		call	_ZN7_thread10exitThreadEv@plt
 424      E7800000 
 425              	.LVL24:
  68:src/riscv.cpp ****                 case SCALL_THREAD_DISPATCH:
 426              		.loc 1 68 21 is_stmt 1
 427 014c 6FF0DFFA 		j	.L9
 428              	.L17:
  69:src/riscv.cpp ****                     _thread::dispatch();
 429              		.loc 1 69 17
  70:src/riscv.cpp ****                     break;
 430              		.loc 1 70 21
  70:src/riscv.cpp ****                     break;
 431              		.loc 1 70 38 is_stmt 0
 432 0150 97000000 		call	_ZN7_thread8dispatchEv@plt
 432      E7800000 
 433              	.LVL25:
  71:src/riscv.cpp ****                 case SCALL_SEM_OPEN:
 434              		.loc 1 71 21 is_stmt 1
 435 0158 6FF01FFA 		j	.L9
 436              	.L16:
  72:src/riscv.cpp ****                     sem_t* handle;
 437              		.loc 1 72 17
  73:src/riscv.cpp ****                     uint32 init;
 438              		.loc 1 73 21
  74:src/riscv.cpp ****                     READ_REG(handle, "a0");
 439              		.loc 1 74 21
  75:src/riscv.cpp ****                     READ_REG(init, "a1");
 440              		.loc 1 75 21
  75:src/riscv.cpp ****                     READ_REG(init, "a1");
 441              		.loc 1 75 43 is_stmt 0
 442              	#APP
 443              	# 75 "src/riscv.cpp" 1
 444              		mv s3, a0
 445              	# 0 "" 2
 446              	.LVL26:
  76:src/riscv.cpp ****                     *handle = _sem::createSemaphore(init);
 447              		.loc 1 76 21 is_stmt 1
  76:src/riscv.cpp ****                     *handle = _sem::createSemaphore(init);
 448              		.loc 1 76 41 is_stmt 0
 449              	# 76 "src/riscv.cpp" 1
 450              		mv a0, a1
 451              	# 0 "" 2
 452              	.LVL27:
  77:src/riscv.cpp ****                     if(*handle != nullptr) ret = 0;
 453              		.loc 1 77 21 is_stmt 1
  77:src/riscv.cpp ****                     if(*handle != nullptr) ret = 0;
 454              		.loc 1 77 52 is_stmt 0
 455              	#NO_APP
 456 0164 1B050500 		sext.w	a0,a0
 457 0168 97000000 		call	_ZN4_sem15createSemaphoreEj@plt
 457      E7800000 
 458              	.LVL28:
  77:src/riscv.cpp ****                     if(*handle != nullptr) ret = 0;
 459              		.loc 1 77 29
 460 0170 23B0A900 		sd	a0,0(s3)
  78:src/riscv.cpp ****                     else ret = -1;
 461              		.loc 1 78 21 is_stmt 1
GAS LISTING /tmp/ccvGk0DE.s 			page 16


 462 0174 63080500 		beqz	a0,.L27
  78:src/riscv.cpp ****                     else ret = -1;
 463              		.loc 1 78 48 is_stmt 0
 464 0178 93070000 		li	a5,0
 465              	.L25:
 466              	.LVL29:
  80:src/riscv.cpp ****                     break;
 467              		.loc 1 80 21 is_stmt 1
  80:src/riscv.cpp ****                     break;
 468              		.loc 1 80 41 is_stmt 0
 469              	#APP
 470              	# 80 "src/riscv.cpp" 1
  81:src/riscv.cpp ****                 case SCALL_SEM_CLOSE:
 471              		mv a0, a5
 472              	# 0 "" 2
 473              		.loc 1 81 21 is_stmt 1
 474              	#NO_APP
 475 0180 6FF09FF7 		j	.L9
 476              	.LVL30:
 477              	.L27:
  79:src/riscv.cpp ****                     WRITE_REG("a0", ret);
 478              		.loc 1 79 30 is_stmt 0
 479 0184 9307F0FF 		li	a5,-1
 480 0188 6FF05FFF 		j	.L25
 481              	.LVL31:
 482              	.L15:
  82:src/riscv.cpp ****                     sem_t handleClose;
 483              		.loc 1 82 17 is_stmt 1
  83:src/riscv.cpp ****                     READ_REG(handleClose, "a0");
 484              		.loc 1 83 21
  84:src/riscv.cpp ****                     handleClose->close();
 485              		.loc 1 84 21
  84:src/riscv.cpp ****                     handleClose->close();
 486              		.loc 1 84 48 is_stmt 0
 487              	#APP
 488              	# 84 "src/riscv.cpp" 1
 489              		mv a0, a0
 490              	# 0 "" 2
 491              	.LVL32:
  85:src/riscv.cpp ****                     break;
 492              		.loc 1 85 21 is_stmt 1
  85:src/riscv.cpp ****                     break;
 493              		.loc 1 85 39 is_stmt 0
 494              	#NO_APP
 495 0190 97000000 		call	_ZN4_sem5closeEv@plt
 495      E7800000 
 496              	.LVL33:
  86:src/riscv.cpp ****                 case SCALL_SEM_WAIT:
 497              		.loc 1 86 21 is_stmt 1
 498 0198 6FF01FF6 		j	.L9
 499              	.L14:
  87:src/riscv.cpp ****                     sem_t idWait;
 500              		.loc 1 87 17
  88:src/riscv.cpp ****                     READ_REG(idWait, "a0");
 501              		.loc 1 88 21
  89:src/riscv.cpp ****                     idWait->wait();
 502              		.loc 1 89 21
GAS LISTING /tmp/ccvGk0DE.s 			page 17


  89:src/riscv.cpp ****                     idWait->wait();
 503              		.loc 1 89 43 is_stmt 0
 504              	#APP
 505              	# 89 "src/riscv.cpp" 1
 506              		mv a0, a0
 507              	# 0 "" 2
 508              	.LVL34:
  90:src/riscv.cpp ****                     break;
 509              		.loc 1 90 21 is_stmt 1
  90:src/riscv.cpp ****                     break;
 510              		.loc 1 90 33 is_stmt 0
 511              	#NO_APP
 512 01a0 97000000 		call	_ZN4_sem4waitEv@plt
 512      E7800000 
 513              	.LVL35:
  91:src/riscv.cpp ****                 case SCALL_SEM_SIGNAL:
 514              		.loc 1 91 21 is_stmt 1
 515 01a8 6FF01FF5 		j	.L9
 516              	.L13:
  92:src/riscv.cpp ****                     sem_t idSignal;
 517              		.loc 1 92 17
  93:src/riscv.cpp ****                     READ_REG(idSignal, "a0");
 518              		.loc 1 93 21
  94:src/riscv.cpp ****                     idSignal->signal();
 519              		.loc 1 94 21
  94:src/riscv.cpp ****                     idSignal->signal();
 520              		.loc 1 94 45 is_stmt 0
 521              	#APP
 522              	# 94 "src/riscv.cpp" 1
 523              		mv a0, a0
 524              	# 0 "" 2
 525              	.LVL36:
  95:src/riscv.cpp ****                     break;
 526              		.loc 1 95 21 is_stmt 1
  95:src/riscv.cpp ****                     break;
 527              		.loc 1 95 37 is_stmt 0
 528              	#NO_APP
 529 01b0 97000000 		call	_ZN4_sem6signalEv@plt
 529      E7800000 
 530              	.LVL37:
  96:src/riscv.cpp ****                 case SCALL_GETC:
 531              		.loc 1 96 21 is_stmt 1
 532 01b8 6FF01FF4 		j	.L9
 533              	.L12:
  97:src/riscv.cpp ****                     __getc();
 534              		.loc 1 97 17
  98:src/riscv.cpp ****                     break;
 535              		.loc 1 98 21
  98:src/riscv.cpp ****                     break;
 536              		.loc 1 98 27 is_stmt 0
 537 01bc 97000000 		call	__getc@plt
 537      E7800000 
 538              	.LVL38:
  99:src/riscv.cpp ****                 case SCALL_PUTC:
 539              		.loc 1 99 21 is_stmt 1
 540 01c4 6FF05FF3 		j	.L9
 541              	.L10:
GAS LISTING /tmp/ccvGk0DE.s 			page 18


 100:src/riscv.cpp ****                     char c;
 542              		.loc 1 100 17
 101:src/riscv.cpp ****                     READ_REG(c, "a0");
 543              		.loc 1 101 21
 102:src/riscv.cpp ****                     __putc(c);
 544              		.loc 1 102 21
 102:src/riscv.cpp ****                     __putc(c);
 545              		.loc 1 102 38 is_stmt 0
 546              	#APP
 547              	# 102 "src/riscv.cpp" 1
 548              		mv a0, a0
 549              	# 0 "" 2
 550              	.LVL39:
 103:src/riscv.cpp ****                     break;
 551              		.loc 1 103 21 is_stmt 1
 103:src/riscv.cpp ****                     break;
 552              		.loc 1 103 27 is_stmt 0
 553              	#NO_APP
 554 01cc 1375F50F 		andi	a0,a0,0xff
 555 01d0 97000000 		call	__putc@plt
 555      E7800000 
 556              	.LVL40:
 104:src/riscv.cpp ****                 default:
 557              		.loc 1 104 21 is_stmt 1
 558 01d8 6FF01FF2 		j	.L9
 559              	.LVL41:
 560              	.L4:
 561              	.LBE47:
 562              	.LBE48:
 113:src/riscv.cpp ****             mc_sip(SIP_SSIP);
 563              		.loc 1 113 9
 114:src/riscv.cpp ****             break;
 564              		.loc 1 114 13
 565              	.LBB49:
 566              	.LBB50:
 163:src/../h/riscv.hpp **** }
 567              		.loc 2 163 5
 163:src/../h/riscv.hpp **** }
 568              		.loc 2 163 64 is_stmt 0
 569 01dc 93072000 		li	a5,2
 570              	#APP
 571              	# 163 "src/../h/riscv.hpp" 1
 572              		csrc sip, a5
 573              	# 0 "" 2
 574              	.LVL42:
 575              	#NO_APP
 576              	.L3:
 577              	.LBE50:
 578              	.LBE49:
 579              	.LBE51:
 580              	.LBE28:
 119:src/riscv.cpp ****         default:
 120:src/riscv.cpp ****             printString("\nScause: ");
 121:src/riscv.cpp ****             printInt(scause);
 122:src/riscv.cpp ****             thread_exit();
 123:src/riscv.cpp ****             break;
 124:src/riscv.cpp ****     }
GAS LISTING /tmp/ccvGk0DE.s 			page 19


 125:src/riscv.cpp **** }...
 581              		.loc 1 125 1
 582 01e4 83308104 		ld	ra,72(sp)
 583              		.cfi_remember_state
 584              		.cfi_restore 1
 585 01e8 03340104 		ld	s0,64(sp)
 586              		.cfi_restore 8
 587              		.cfi_def_cfa 2, 80
 588 01ec 83348103 		ld	s1,56(sp)
 589              		.cfi_restore 9
 590 01f0 03390103 		ld	s2,48(sp)
 591              		.cfi_restore 18
 592 01f4 83398102 		ld	s3,40(sp)
 593              		.cfi_restore 19
 594 01f8 13010105 		addi	sp,sp,80
 595              		.cfi_def_cfa_offset 0
 596 01fc 67800000 		jr	ra
 597              	.LVL43:
 598              	.L6:
 599              		.cfi_restore_state
 600              	.LBB53:
 601              	.LBB52:
 119:src/riscv.cpp ****         default:
 602              		.loc 1 119 9 is_stmt 1
 120:src/riscv.cpp ****             printString("\nScause: ");
 603              		.loc 1 120 13
 120:src/riscv.cpp ****             printString("\nScause: ");
 604              		.loc 1 120 24 is_stmt 0
 605 0200 17050000 		lla	a0,.LC0
 605      13050500 
 606 0208 97000000 		call	_Z11printStringPKc@plt
 606      E7800000 
 607              	.LVL44:
 121:src/riscv.cpp ****             printInt(scause);
 608              		.loc 1 121 13 is_stmt 1
 121:src/riscv.cpp ****             printInt(scause);
 609              		.loc 1 121 21 is_stmt 0
 610 0210 13060000 		li	a2,0
 611 0214 9305A000 		li	a1,10
 612 0218 1B850400 		sext.w	a0,s1
 613 021c 97000000 		call	_Z8printIntiii@plt
 613      E7800000 
 614              	.LVL45:
 122:src/riscv.cpp ****             thread_exit();
 615              		.loc 1 122 13 is_stmt 1
 122:src/riscv.cpp ****             thread_exit();
 616              		.loc 1 122 24 is_stmt 0
 617 0224 97000000 		call	_Z11thread_exitv@plt
 617      E7800000 
 618              	.LVL46:
 123:src/riscv.cpp ****             break;
 619              		.loc 1 123 13 is_stmt 1
 620 022c 6FF09FFB 		j	.L3
 621              	.LBE52:
 622              	.LBE53:
 623              		.cfi_endproc
 624              	.LFE41:
GAS LISTING /tmp/ccvGk0DE.s 			page 20


 626              	.Letext0:
 627              		.file 3 "src/../h/../lib/hw.h"
 628              		.file 4 "src/../h/list.hpp"
 629              		.file 5 "src/../h/_thread.hpp"
 630              		.file 6 "src/../h/../h/syscall_c.hpp"
 631              		.file 7 "src/../h/_sem.hpp"
 632              		.file 8 "src/../lib/mem.h"
 633              		.file 9 "src/../lib/console.h"
 634              		.file 10 "src/../test/printing.hpp"
GAS LISTING /tmp/ccvGk0DE.s 			page 21


DEFINED SYMBOLS
                            *ABS*:0000000000000000 riscv.cpp
     /tmp/ccvGk0DE.s:9      .text:0000000000000000 _ZN5Riscv10popSppSpieEv
     /tmp/ccvGk0DE.s:13     .text:0000000000000000 .L0 
     /tmp/ccvGk0DE.s:14     .text:0000000000000000 .L0 
     /tmp/ccvGk0DE.s:15     .text:0000000000000004 .L0 
     /tmp/ccvGk0DE.s:17     .text:0000000000000008 .L0 
     /tmp/ccvGk0DE.s:19     .text:000000000000000c .L0 
     /tmp/ccvGk0DE.s:21     .text:000000000000000c .L0 
       src/riscv.cpp:15     .text:000000000000000c .L0 
     /tmp/ccvGk0DE.s:27     .text:0000000000000010 .L0 
       src/riscv.cpp:16     .text:0000000000000010 .L0 
     /tmp/ccvGk0DE.s:33     .text:0000000000000014 .L0 
     /tmp/ccvGk0DE.s:34     .text:0000000000000018 .L0 
     /tmp/ccvGk0DE.s:35     .text:0000000000000018 .L0 
     /tmp/ccvGk0DE.s:37     .text:000000000000001c .L0 
     /tmp/ccvGk0DE.s:39     .text:0000000000000020 .L0 
     /tmp/ccvGk0DE.s:50     .text:0000000000000020 _ZN5Riscv20handleSupervisorTrapEv
     /tmp/ccvGk0DE.s:53     .text:0000000000000020 .L0 
     /tmp/ccvGk0DE.s:54     .text:0000000000000020 .L0 
     /tmp/ccvGk0DE.s:55     .text:0000000000000024 .L0 
     /tmp/ccvGk0DE.s:61     .text:0000000000000038 .L0 
     /tmp/ccvGk0DE.s:62     .text:0000000000000038 .L0 
     /tmp/ccvGk0DE.s:63     .text:0000000000000038 .L0 
     /tmp/ccvGk0DE.s:64     .text:0000000000000038 .L0 
     /tmp/ccvGk0DE.s:65     .text:0000000000000038 .L0 
     /tmp/ccvGk0DE.s:67     .text:000000000000003c .L0 
     /tmp/ccvGk0DE.s:72     .text:000000000000003c .L0 
     /tmp/ccvGk0DE.s:73     .text:000000000000003c .L0 
     /tmp/ccvGk0DE.s:74     .text:000000000000003c .L0 
  src/../h/riscv.hpp:111    .text:000000000000003c .L0 
     /tmp/ccvGk0DE.s:82     .text:0000000000000044 .L0 
     /tmp/ccvGk0DE.s:83     .text:0000000000000044 .L0 
     /tmp/ccvGk0DE.s:89     .text:0000000000000048 .L0 
     /tmp/ccvGk0DE.s:102    .text:0000000000000074 .L0 
     /tmp/ccvGk0DE.s:103    .text:0000000000000074 .L0 
     /tmp/ccvGk0DE.s:105    .text:0000000000000074 .L0 
     /tmp/ccvGk0DE.s:108    .text:0000000000000074 .L0 
     /tmp/ccvGk0DE.s:109    .text:0000000000000074 .L0 
     /tmp/ccvGk0DE.s:110    .text:0000000000000074 .L0 
  src/../h/riscv.hpp:123    .text:0000000000000074 .L0 
     /tmp/ccvGk0DE.s:118    .text:000000000000007c .L0 
     /tmp/ccvGk0DE.s:119    .text:000000000000007c .L0 
     /tmp/ccvGk0DE.s:123    .text:0000000000000080 .L0 
     /tmp/ccvGk0DE.s:128    .text:0000000000000084 .L0 
     /tmp/ccvGk0DE.s:129    .text:0000000000000084 .L0 
     /tmp/ccvGk0DE.s:130    .text:0000000000000084 .L0 
  src/../h/riscv.hpp:191    .text:0000000000000084 .L0 
     /tmp/ccvGk0DE.s:138    .text:000000000000008c .L0 
     /tmp/ccvGk0DE.s:139    .text:000000000000008c .L0 
     /tmp/ccvGk0DE.s:144    .text:0000000000000090 .L0 
     /tmp/ccvGk0DE.s:145    .text:0000000000000090 .L0 
     /tmp/ccvGk0DE.s:146    .text:0000000000000090 .L0 
       src/riscv.cpp:31     .text:0000000000000090 .L0 
     /tmp/ccvGk0DE.s:154    .text:0000000000000094 .L0 
     /tmp/ccvGk0DE.s:240    .text:00000000000000b8 .L0 
     /tmp/ccvGk0DE.s:246    .text:00000000000000c8 .L0 
GAS LISTING /tmp/ccvGk0DE.s 			page 22


     /tmp/ccvGk0DE.s:247    .text:00000000000000c8 .L0 
     /tmp/ccvGk0DE.s:248    .text:00000000000000c8 .L0 
     /tmp/ccvGk0DE.s:251    .text:00000000000000d0 .L0 
     /tmp/ccvGk0DE.s:257    .text:00000000000000d4 .L0 
     /tmp/ccvGk0DE.s:260    .text:00000000000000d4 .L0 
     /tmp/ccvGk0DE.s:261    .text:00000000000000d4 .L0 
     /tmp/ccvGk0DE.s:262    .text:00000000000000d4 .L0 
     /tmp/ccvGk0DE.s:274    .text:00000000000000dc .L0 
     /tmp/ccvGk0DE.s:275    .text:00000000000000dc .L0 
     /tmp/ccvGk0DE.s:276    .text:00000000000000dc .L0 
     /tmp/ccvGk0DE.s:288    .text:00000000000000e4 .L0 
     /tmp/ccvGk0DE.s:289    .text:00000000000000e4 .L0 
  src/../h/riscv.hpp:129    .text:00000000000000e4 .L0 
     /tmp/ccvGk0DE.s:296    .text:00000000000000e8 .L0 
     /tmp/ccvGk0DE.s:302    .text:00000000000000ec .L0 
     /tmp/ccvGk0DE.s:303    .text:00000000000000ec .L0 
     /tmp/ccvGk0DE.s:304    .text:00000000000000ec .L0 
     /tmp/ccvGk0DE.s:305    .text:00000000000000ec .L0 
       src/riscv.cpp:41     .text:00000000000000ec .L0 
     /tmp/ccvGk0DE.s:312    .text:00000000000000f0 .L0 
     /tmp/ccvGk0DE.s:314    .text:00000000000000f0 .L0 
     /tmp/ccvGk0DE.s:319    .text:00000000000000f8 .L0 
     /tmp/ccvGk0DE.s:322    .text:00000000000000f8 .L0 
     /tmp/ccvGk0DE.s:323    .text:00000000000000f8 .L0 
  src/../h/riscv.hpp:197    .text:00000000000000f8 .L0 
     /tmp/ccvGk0DE.s:335    .text:00000000000000fc .L0 
     /tmp/ccvGk0DE.s:336    .text:00000000000000fc .L0 
  src/../h/riscv.hpp:129    .text:00000000000000fc .L0 
     /tmp/ccvGk0DE.s:343    .text:0000000000000100 .L0 
     /tmp/ccvGk0DE.s:350    .text:0000000000000104 .L0 
     /tmp/ccvGk0DE.s:351    .text:0000000000000104 .L0 
     /tmp/ccvGk0DE.s:352    .text:0000000000000104 .L0 
       src/riscv.cpp:46     .text:0000000000000104 .L0 
     /tmp/ccvGk0DE.s:359    .text:0000000000000108 .L0 
     /tmp/ccvGk0DE.s:361    .text:0000000000000108 .L0 
     /tmp/ccvGk0DE.s:364    .text:0000000000000110 .L0 
     /tmp/ccvGk0DE.s:367    .text:0000000000000114 .L0 
     /tmp/ccvGk0DE.s:369    .text:0000000000000114 .L0 
     /tmp/ccvGk0DE.s:370    .text:0000000000000114 .L0 
     /tmp/ccvGk0DE.s:371    .text:0000000000000114 .L0 
     /tmp/ccvGk0DE.s:372    .text:0000000000000114 .L0 
     /tmp/ccvGk0DE.s:373    .text:0000000000000114 .L0 
       src/riscv.cpp:57     .text:0000000000000114 .L0 
     /tmp/ccvGk0DE.s:380    .text:0000000000000118 .L0 
       src/riscv.cpp:58     .text:0000000000000118 .L0 
     /tmp/ccvGk0DE.s:386    .text:000000000000011c .L0 
       src/riscv.cpp:59     .text:000000000000011c .L0 
     /tmp/ccvGk0DE.s:392    .text:0000000000000120 .L0 
     /tmp/ccvGk0DE.s:394    .text:0000000000000120 .L0 
     /tmp/ccvGk0DE.s:397    .text:0000000000000128 .L0 
     /tmp/ccvGk0DE.s:399    .text:000000000000012c .L0 
     /tmp/ccvGk0DE.s:401    .text:0000000000000130 .L0 
     /tmp/ccvGk0DE.s:405    .text:0000000000000134 .L0 
       src/riscv.cpp:63     .text:0000000000000134 .L0 
     /tmp/ccvGk0DE.s:412    .text:0000000000000138 .L0 
     /tmp/ccvGk0DE.s:416    .text:000000000000013c .L0 
     /tmp/ccvGk0DE.s:422    .text:0000000000000144 .L0 
GAS LISTING /tmp/ccvGk0DE.s 			page 23


     /tmp/ccvGk0DE.s:423    .text:0000000000000144 .L0 
     /tmp/ccvGk0DE.s:424    .text:0000000000000144 .L0 
     /tmp/ccvGk0DE.s:427    .text:000000000000014c .L0 
     /tmp/ccvGk0DE.s:430    .text:0000000000000150 .L0 
     /tmp/ccvGk0DE.s:431    .text:0000000000000150 .L0 
     /tmp/ccvGk0DE.s:432    .text:0000000000000150 .L0 
     /tmp/ccvGk0DE.s:435    .text:0000000000000158 .L0 
     /tmp/ccvGk0DE.s:438    .text:000000000000015c .L0 
     /tmp/ccvGk0DE.s:439    .text:000000000000015c .L0 
     /tmp/ccvGk0DE.s:440    .text:000000000000015c .L0 
     /tmp/ccvGk0DE.s:441    .text:000000000000015c .L0 
       src/riscv.cpp:75     .text:000000000000015c .L0 
     /tmp/ccvGk0DE.s:448    .text:0000000000000160 .L0 
       src/riscv.cpp:76     .text:0000000000000160 .L0 
     /tmp/ccvGk0DE.s:454    .text:0000000000000164 .L0 
     /tmp/ccvGk0DE.s:456    .text:0000000000000164 .L0 
     /tmp/ccvGk0DE.s:460    .text:0000000000000170 .L0 
     /tmp/ccvGk0DE.s:462    .text:0000000000000174 .L0 
     /tmp/ccvGk0DE.s:464    .text:0000000000000178 .L0 
     /tmp/ccvGk0DE.s:468    .text:000000000000017c .L0 
       src/riscv.cpp:80     .text:000000000000017c .L0 
     /tmp/ccvGk0DE.s:475    .text:0000000000000180 .L0 
     /tmp/ccvGk0DE.s:479    .text:0000000000000184 .L0 
     /tmp/ccvGk0DE.s:484    .text:000000000000018c .L0 
     /tmp/ccvGk0DE.s:485    .text:000000000000018c .L0 
     /tmp/ccvGk0DE.s:486    .text:000000000000018c .L0 
       src/riscv.cpp:84     .text:000000000000018c .L0 
     /tmp/ccvGk0DE.s:493    .text:0000000000000190 .L0 
     /tmp/ccvGk0DE.s:495    .text:0000000000000190 .L0 
     /tmp/ccvGk0DE.s:498    .text:0000000000000198 .L0 
     /tmp/ccvGk0DE.s:501    .text:000000000000019c .L0 
     /tmp/ccvGk0DE.s:502    .text:000000000000019c .L0 
     /tmp/ccvGk0DE.s:503    .text:000000000000019c .L0 
       src/riscv.cpp:89     .text:000000000000019c .L0 
     /tmp/ccvGk0DE.s:510    .text:00000000000001a0 .L0 
     /tmp/ccvGk0DE.s:512    .text:00000000000001a0 .L0 
     /tmp/ccvGk0DE.s:515    .text:00000000000001a8 .L0 
     /tmp/ccvGk0DE.s:518    .text:00000000000001ac .L0 
     /tmp/ccvGk0DE.s:519    .text:00000000000001ac .L0 
     /tmp/ccvGk0DE.s:520    .text:00000000000001ac .L0 
       src/riscv.cpp:94     .text:00000000000001ac .L0 
     /tmp/ccvGk0DE.s:527    .text:00000000000001b0 .L0 
     /tmp/ccvGk0DE.s:529    .text:00000000000001b0 .L0 
     /tmp/ccvGk0DE.s:532    .text:00000000000001b8 .L0 
     /tmp/ccvGk0DE.s:535    .text:00000000000001bc .L0 
     /tmp/ccvGk0DE.s:536    .text:00000000000001bc .L0 
     /tmp/ccvGk0DE.s:537    .text:00000000000001bc .L0 
     /tmp/ccvGk0DE.s:540    .text:00000000000001c4 .L0 
     /tmp/ccvGk0DE.s:543    .text:00000000000001c8 .L0 
     /tmp/ccvGk0DE.s:544    .text:00000000000001c8 .L0 
     /tmp/ccvGk0DE.s:545    .text:00000000000001c8 .L0 
       src/riscv.cpp:102    .text:00000000000001c8 .L0 
     /tmp/ccvGk0DE.s:552    .text:00000000000001cc .L0 
     /tmp/ccvGk0DE.s:554    .text:00000000000001cc .L0 
     /tmp/ccvGk0DE.s:558    .text:00000000000001d8 .L0 
     /tmp/ccvGk0DE.s:564    .text:00000000000001dc .L0 
     /tmp/ccvGk0DE.s:567    .text:00000000000001dc .L0 
GAS LISTING /tmp/ccvGk0DE.s 			page 24


     /tmp/ccvGk0DE.s:568    .text:00000000000001dc .L0 
     /tmp/ccvGk0DE.s:569    .text:00000000000001dc .L0 
     /tmp/ccvGk0DE.s:582    .text:00000000000001e4 .L0 
     /tmp/ccvGk0DE.s:583    .text:00000000000001e8 .L0 
     /tmp/ccvGk0DE.s:584    .text:00000000000001e8 .L0 
     /tmp/ccvGk0DE.s:586    .text:00000000000001ec .L0 
     /tmp/ccvGk0DE.s:587    .text:00000000000001ec .L0 
     /tmp/ccvGk0DE.s:589    .text:00000000000001f0 .L0 
     /tmp/ccvGk0DE.s:591    .text:00000000000001f4 .L0 
     /tmp/ccvGk0DE.s:593    .text:00000000000001f8 .L0 
     /tmp/ccvGk0DE.s:595    .text:00000000000001fc .L0 
     /tmp/ccvGk0DE.s:599    .text:0000000000000200 .L0 
     /tmp/ccvGk0DE.s:603    .text:0000000000000200 .L0 
     /tmp/ccvGk0DE.s:604    .text:0000000000000200 .L0 
     /tmp/ccvGk0DE.s:605    .text:0000000000000200 .L0 
     /tmp/ccvGk0DE.s:609    .text:0000000000000210 .L0 
     /tmp/ccvGk0DE.s:610    .text:0000000000000210 .L0 
     /tmp/ccvGk0DE.s:616    .text:0000000000000224 .L0 
     /tmp/ccvGk0DE.s:617    .text:0000000000000224 .L0 
     /tmp/ccvGk0DE.s:620    .text:000000000000022c .L0 
     /tmp/ccvGk0DE.s:623    .text:0000000000000230 .L0 
     /tmp/ccvGk0DE.s:635    .text:0000000000000230 .L0 
     /tmp/ccvGk0DE.s:166    .rodata:0000000000000000 .L11
     /tmp/ccvGk0DE.s:158    .text:00000000000000a0 .L0 
     /tmp/ccvGk0DE.s:44     .rodata.str1.8:0000000000000000 .LC0
     /tmp/ccvGk0DE.s:605    .text:0000000000000200 .L0 
     /tmp/ccvGk0DE.s:560    .text:00000000000001dc .L4
     /tmp/ccvGk0DE.s:236    .text:00000000000000b8 .L5
     /tmp/ccvGk0DE.s:598    .text:0000000000000200 .L6
     /tmp/ccvGk0DE.s:317    .text:00000000000000f8 .L9
     /tmp/ccvGk0DE.s:576    .text:00000000000001e4 .L3
     /tmp/ccvGk0DE.s:414    .text:000000000000013c .L26
     /tmp/ccvGk0DE.s:402    .text:0000000000000134 .L24
     /tmp/ccvGk0DE.s:477    .text:0000000000000184 .L27
     /tmp/ccvGk0DE.s:465    .text:000000000000017c .L25
     /tmp/ccvGk0DE.s:253    .text:00000000000000d4 .L22
     /tmp/ccvGk0DE.s:298    .text:00000000000000ec .L21
     /tmp/ccvGk0DE.s:345    .text:0000000000000104 .L20
     /tmp/ccvGk0DE.s:365    .text:0000000000000114 .L19
     /tmp/ccvGk0DE.s:419    .text:0000000000000144 .L18
     /tmp/ccvGk0DE.s:428    .text:0000000000000150 .L17
     /tmp/ccvGk0DE.s:436    .text:000000000000015c .L16
     /tmp/ccvGk0DE.s:482    .text:000000000000018c .L15
     /tmp/ccvGk0DE.s:499    .text:000000000000019c .L14
     /tmp/ccvGk0DE.s:516    .text:00000000000001ac .L13
     /tmp/ccvGk0DE.s:533    .text:00000000000001bc .L12
     /tmp/ccvGk0DE.s:541    .text:00000000000001c8 .L10
     /tmp/ccvGk0DE.s:2221   .debug_abbrev:0000000000000000 .Ldebug_abbrev0
     /tmp/ccvGk0DE.s:3652   .debug_str:0000000000000828 .LASF174
     /tmp/ccvGk0DE.s:3702   .debug_str:0000000000000a47 .LASF175
     /tmp/ccvGk0DE.s:3454   .debug_str:000000000000027f .LASF176
     /tmp/ccvGk0DE.s:5      .text:0000000000000000 .Ltext0
     /tmp/ccvGk0DE.s:626    .text:0000000000000230 .Letext0
     /tmp/ccvGk0DE.s:3364   .debug_line:0000000000000000 .Ldebug_line0
     /tmp/ccvGk0DE.s:3480   .debug_str:0000000000000356 .LASF0
     /tmp/ccvGk0DE.s:3506   .debug_str:0000000000000448 .LASF1
     /tmp/ccvGk0DE.s:3594   .debug_str:00000000000006c4 .LASF2
GAS LISTING /tmp/ccvGk0DE.s 			page 25


     /tmp/ccvGk0DE.s:3438   .debug_str:0000000000000214 .LASF3
     /tmp/ccvGk0DE.s:3452   .debug_str:0000000000000278 .LASF4
     /tmp/ccvGk0DE.s:3602   .debug_str:000000000000070f .LASF5
     /tmp/ccvGk0DE.s:3486   .debug_str:000000000000037d .LASF6
     /tmp/ccvGk0DE.s:3374   .debug_str:0000000000000042 .LASF7
     /tmp/ccvGk0DE.s:3560   .debug_str:00000000000005a7 .LASF8
     /tmp/ccvGk0DE.s:3494   .debug_str:00000000000003e2 .LASF9
     /tmp/ccvGk0DE.s:3450   .debug_str:0000000000000268 .LASF10
     /tmp/ccvGk0DE.s:3462   .debug_str:00000000000002d5 .LASF11
     /tmp/ccvGk0DE.s:3404   .debug_str:00000000000000f7 .LASF12
     /tmp/ccvGk0DE.s:3444   .debug_str:000000000000022d .LASF13
     /tmp/ccvGk0DE.s:3414   .debug_str:000000000000016b .LASF14
     /tmp/ccvGk0DE.s:3402   .debug_str:00000000000000e7 .LASF15
     /tmp/ccvGk0DE.s:3634   .debug_str:00000000000007cf .LASF16
     /tmp/ccvGk0DE.s:3434   .debug_str:00000000000001f0 .LASF17
     /tmp/ccvGk0DE.s:3620   .debug_str:0000000000000776 .LASF18
     /tmp/ccvGk0DE.s:3694   .debug_str:0000000000000a16 .LASF19
     /tmp/ccvGk0DE.s:3524   .debug_str:00000000000004ba .LASF20
     /tmp/ccvGk0DE.s:3654   .debug_str:00000000000008ec .LASF21
     /tmp/ccvGk0DE.s:3368   .debug_str:000000000000000b .LASF22
     /tmp/ccvGk0DE.s:3410   .debug_str:0000000000000137 .LASF23
     /tmp/ccvGk0DE.s:3542   .debug_str:0000000000000527 .LASF24
     /tmp/ccvGk0DE.s:3426   .debug_str:00000000000001ca .LASF25
     /tmp/ccvGk0DE.s:3642   .debug_str:00000000000007f3 .LASF26
     /tmp/ccvGk0DE.s:3604   .debug_str:0000000000000716 .LASF27
     /tmp/ccvGk0DE.s:3568   .debug_str:00000000000005e8 .LASF28
     /tmp/ccvGk0DE.s:3378   .debug_str:0000000000000054 .LASF29
     /tmp/ccvGk0DE.s:3392   .debug_str:00000000000000ab .LASF30
     /tmp/ccvGk0DE.s:3684   .debug_str:00000000000009ea .LASF31
     /tmp/ccvGk0DE.s:3366   .debug_str:0000000000000000 .LASF32
     /tmp/ccvGk0DE.s:3688   .debug_str:00000000000009fe .LASF77
     /tmp/ccvGk0DE.s:3582   .debug_str:0000000000000652 .LASF36
     /tmp/ccvGk0DE.s:3510   .debug_str:0000000000000461 .LASF33
     /tmp/ccvGk0DE.s:3380   .debug_str:0000000000000063 .LASF34
     /tmp/ccvGk0DE.s:3704   .debug_str:0000000000000a55 .LASF35
     /tmp/ccvGk0DE.s:3672   .debug_str:000000000000097a .LASF37
     /tmp/ccvGk0DE.s:3442   .debug_str:0000000000000221 .LASF38
     /tmp/ccvGk0DE.s:3650   .debug_str:000000000000081b .LASF39
     /tmp/ccvGk0DE.s:3422   .debug_str:00000000000001ac .LASF40
     /tmp/ccvGk0DE.s:3470   .debug_str:0000000000000314 .LASF73
     /tmp/ccvGk0DE.s:3478   .debug_str:000000000000033e .LASF75
     /tmp/ccvGk0DE.s:3666   .debug_str:0000000000000967 .LASF41
     /tmp/ccvGk0DE.s:3662   .debug_str:000000000000092e .LASF43
     /tmp/ccvGk0DE.s:3590   .debug_str:00000000000006b0 .LASF45
     /tmp/ccvGk0DE.s:3552   .debug_str:0000000000000574 .LASF47
     /tmp/ccvGk0DE.s:3574   .debug_str:0000000000000609 .LASF42
     /tmp/ccvGk0DE.s:3576   .debug_str:0000000000000610 .LASF44
     /tmp/ccvGk0DE.s:3546   .debug_str:0000000000000545 .LASF46
     /tmp/ccvGk0DE.s:3498   .debug_str:0000000000000417 .LASF48
     /tmp/ccvGk0DE.s:3700   .debug_str:0000000000000a3f .LASF49
     /tmp/ccvGk0DE.s:3656   .debug_str:00000000000008fb .LASF50
     /tmp/ccvGk0DE.s:3540   .debug_str:000000000000051f .LASF51
     /tmp/ccvGk0DE.s:3550   .debug_str:0000000000000560 .LASF52
     /tmp/ccvGk0DE.s:3516   .debug_str:000000000000049b .LASF53
     /tmp/ccvGk0DE.s:3580   .debug_str:000000000000063e .LASF54
     /tmp/ccvGk0DE.s:3728   .debug_str:0000000000000b18 .LASF55
     /tmp/ccvGk0DE.s:3484   .debug_str:0000000000000369 .LASF56
GAS LISTING /tmp/ccvGk0DE.s 			page 26


     /tmp/ccvGk0DE.s:3630   .debug_str:00000000000007bb .LASF57
     /tmp/ccvGk0DE.s:3606   .debug_str:0000000000000725 .LASF58
     /tmp/ccvGk0DE.s:3608   .debug_str:0000000000000738 .LASF59
     /tmp/ccvGk0DE.s:3406   .debug_str:0000000000000106 .LASF60
     /tmp/ccvGk0DE.s:3432   .debug_str:00000000000001ea .LASF61
     /tmp/ccvGk0DE.s:3476   .debug_str:000000000000032c .LASF62
     /tmp/ccvGk0DE.s:3482   .debug_str:0000000000000363 .LASF63
     /tmp/ccvGk0DE.s:3424   .debug_str:00000000000001b8 .LASF64
     /tmp/ccvGk0DE.s:3376   .debug_str:0000000000000049 .LASF65
     /tmp/ccvGk0DE.s:3598   .debug_str:00000000000006dc .LASF66
     /tmp/ccvGk0DE.s:3592   .debug_str:00000000000006b9 .LASF67
     /tmp/ccvGk0DE.s:3720   .debug_str:0000000000000ae0 .LASF68
     /tmp/ccvGk0DE.s:3690   .debug_str:0000000000000a04 .LASF69
     /tmp/ccvGk0DE.s:3708   .debug_str:0000000000000a65 .LASF70
     /tmp/ccvGk0DE.s:3682   .debug_str:00000000000009e0 .LASF71
     /tmp/ccvGk0DE.s:3532   .debug_str:00000000000004e2 .LASF72
     /tmp/ccvGk0DE.s:3696   .debug_str:0000000000000a26 .LASF74
     /tmp/ccvGk0DE.s:3460   .debug_str:00000000000002b9 .LASF76
     /tmp/ccvGk0DE.s:3566   .debug_str:00000000000005d3 .LASF125
     /tmp/ccvGk0DE.s:3492   .debug_str:00000000000003c0 .LASF127
     /tmp/ccvGk0DE.s:3732   .debug_str:0000000000000b3a .LASF78
     /tmp/ccvGk0DE.s:3668   .debug_str:0000000000000970 .LASF177
     /tmp/ccvGk0DE.s:3628   .debug_str:00000000000007b6 .LASF79
     /tmp/ccvGk0DE.s:3490   .debug_str:00000000000003bb .LASF80
     /tmp/ccvGk0DE.s:3536   .debug_str:000000000000050a .LASF81
     /tmp/ccvGk0DE.s:3676   .debug_str:00000000000009a4 .LASF83
     /tmp/ccvGk0DE.s:3578   .debug_str:0000000000000623 .LASF88
     /tmp/ccvGk0DE.s:3596   .debug_str:00000000000006d2 .LASF178
     /tmp/ccvGk0DE.s:3468   .debug_str:00000000000002f9 .LASF179
     /tmp/ccvGk0DE.s:3502   .debug_str:000000000000043a .LASF82
     /tmp/ccvGk0DE.s:3718   .debug_str:0000000000000abf .LASF84
     /tmp/ccvGk0DE.s:3520   .debug_str:00000000000004ac .LASF85
     /tmp/ccvGk0DE.s:3680   .debug_str:00000000000009c0 .LASF86
     /tmp/ccvGk0DE.s:3558   .debug_str:000000000000059b .LASF87
     /tmp/ccvGk0DE.s:3496   .debug_str:00000000000003f5 .LASF89
     /tmp/ccvGk0DE.s:3734   .debug_str:0000000000000b48 .LASF90
     /tmp/ccvGk0DE.s:3712   .debug_str:0000000000000a84 .LASF91
     /tmp/ccvGk0DE.s:3612   .debug_str:000000000000074e .LASF92
     /tmp/ccvGk0DE.s:3446   .debug_str:000000000000023c .LASF93
     /tmp/ccvGk0DE.s:3570   .debug_str:00000000000005f8 .LASF94
     /tmp/ccvGk0DE.s:3408   .debug_str:0000000000000119 .LASF95
     /tmp/ccvGk0DE.s:3386   .debug_str:000000000000008d .LASF96
     /tmp/ccvGk0DE.s:3640   .debug_str:00000000000007eb .LASF180
     /tmp/ccvGk0DE.s:3636   .debug_str:00000000000007db .LASF97
     /tmp/ccvGk0DE.s:3500   .debug_str:000000000000042a .LASF98
     /tmp/ccvGk0DE.s:3464   .debug_str:00000000000002e3 .LASF99
     /tmp/ccvGk0DE.s:3600   .debug_str:00000000000006f4 .LASF100
     /tmp/ccvGk0DE.s:3396   .debug_str:00000000000000c4 .LASF101
     /tmp/ccvGk0DE.s:3674   .debug_str:0000000000000989 .LASF102
     /tmp/ccvGk0DE.s:3632   .debug_str:00000000000007c2 .LASF103
     /tmp/ccvGk0DE.s:3664   .debug_str:0000000000000943 .LASF104
     /tmp/ccvGk0DE.s:3554   .debug_str:0000000000000589 .LASF181
     /tmp/ccvGk0DE.s:3508   .debug_str:000000000000045b .LASF105
     /tmp/ccvGk0DE.s:3548   .debug_str:000000000000054c .LASF106
     /tmp/ccvGk0DE.s:3648   .debug_str:0000000000000813 .LASF182
     /tmp/ccvGk0DE.s:3724   .debug_str:0000000000000b04 .LASF107
     /tmp/ccvGk0DE.s:3730   .debug_str:0000000000000b20 .LASF108
GAS LISTING /tmp/ccvGk0DE.s 			page 27


     /tmp/ccvGk0DE.s:3518   .debug_str:00000000000004a3 .LASF109
     /tmp/ccvGk0DE.s:3658   .debug_str:000000000000090f .LASF110
     /tmp/ccvGk0DE.s:3544   .debug_str:000000000000053b .LASF111
     /tmp/ccvGk0DE.s:3370   .debug_str:0000000000000024 .LASF112
     /tmp/ccvGk0DE.s:3398   .debug_str:00000000000000d0 .LASF113
     /tmp/ccvGk0DE.s:3714   .debug_str:0000000000000aa3 .LASF114
     /tmp/ccvGk0DE.s:3698   .debug_str:0000000000000a35 .LASF115
     /tmp/ccvGk0DE.s:3512   .debug_str:000000000000046a .LASF116
     /tmp/ccvGk0DE.s:3514   .debug_str:0000000000000483 .LASF117
     /tmp/ccvGk0DE.s:3372   .debug_str:000000000000003d .LASF118
     /tmp/ccvGk0DE.s:3716   .debug_str:0000000000000aba .LASF119
     /tmp/ccvGk0DE.s:3616   .debug_str:0000000000000767 .LASF120
     /tmp/ccvGk0DE.s:3660   .debug_str:0000000000000926 .LASF121
     /tmp/ccvGk0DE.s:3618   .debug_str:000000000000076d .LASF122
     /tmp/ccvGk0DE.s:3394   .debug_str:00000000000000bc .LASF123
     /tmp/ccvGk0DE.s:3572   .debug_str:0000000000000601 .LASF124
     /tmp/ccvGk0DE.s:3400   .debug_str:00000000000000d9 .LASF126
     /tmp/ccvGk0DE.s:3584   .debug_str:000000000000065d .LASF128
     /tmp/ccvGk0DE.s:3416   .debug_str:000000000000017b .LASF183
     /tmp/ccvGk0DE.s:3488   .debug_str:000000000000038f .LASF184
     /tmp/ccvGk0DE.s:3428   .debug_str:00000000000001dc .LASF129
     /tmp/ccvGk0DE.s:3420   .debug_str:0000000000000195 .LASF130
     /tmp/ccvGk0DE.s:3726   .debug_str:0000000000000b0f .LASF131
     /tmp/ccvGk0DE.s:3528   .debug_str:00000000000004d1 .LASF132
     /tmp/ccvGk0DE.s:3522   .debug_str:00000000000004b4 .LASF133
     /tmp/ccvGk0DE.s:3644   .debug_str:0000000000000809 .LASF134
     /tmp/ccvGk0DE.s:3556   .debug_str:000000000000058e .LASF135
     /tmp/ccvGk0DE.s:3564   .debug_str:00000000000005c3 .LASF136
     /tmp/ccvGk0DE.s:3588   .debug_str:0000000000000694 .LASF137
     /tmp/ccvGk0DE.s:3430   .debug_str:00000000000001e5 .LASF138
     /tmp/ccvGk0DE.s:3538   .debug_str:000000000000050f .LASF139
     /tmp/ccvGk0DE.s:3638   .debug_str:00000000000007e4 .LASF140
     /tmp/ccvGk0DE.s:3624   .debug_str:000000000000079d .LASF141
     /tmp/ccvGk0DE.s:3384   .debug_str:0000000000000087 .LASF142
     /tmp/ccvGk0DE.s:3388   .debug_str:0000000000000095 .LASF143
     /tmp/ccvGk0DE.s:3472   .debug_str:000000000000031f .LASF144
     /tmp/ccvGk0DE.s:3534   .debug_str:00000000000004f8 .LASF145
     /tmp/ccvGk0DE.s:3614   .debug_str:0000000000000759 .LASF146
     /tmp/ccvGk0DE.s:3586   .debug_str:000000000000067a .LASF147
     /tmp/ccvGk0DE.s:3436   .debug_str:0000000000000206 .LASF148
     /tmp/ccvGk0DE.s:3382   .debug_str:000000000000006c .LASF149
     /tmp/ccvGk0DE.s:3448   .debug_str:000000000000025d .LASF150
     /tmp/ccvGk0DE.s:51     .text:0000000000000020 .LFB41
     /tmp/ccvGk0DE.s:624    .text:0000000000000230 .LFE41
     /tmp/ccvGk0DE.s:3626   .debug_str:00000000000007af .LASF151
     /tmp/ccvGk0DE.s:3130   .debug_loc:0000000000000000 .LLST0
     /tmp/ccvGk0DE.s:3350   .debug_ranges:0000000000000000 .Ldebug_ranges0
     /tmp/ccvGk0DE.s:3670   .debug_str:0000000000000975 .LASF152
     /tmp/ccvGk0DE.s:3149   .debug_loc:000000000000005c .LLST1
     /tmp/ccvGk0DE.s:3692   .debug_str:0000000000000a0e .LASF153
     /tmp/ccvGk0DE.s:3160   .debug_loc:0000000000000092 .LLST2
     /tmp/ccvGk0DE.s:3686   .debug_str:00000000000009f5 .LASF154
     /tmp/ccvGk0DE.s:3171   .debug_loc:00000000000000c8 .LLST3
     /tmp/ccvGk0DE.s:3178   .debug_loc:00000000000000eb .LLST4
     /tmp/ccvGk0DE.s:3504   .debug_str:0000000000000443 .LASF155
     /tmp/ccvGk0DE.s:3214   .debug_loc:0000000000000185 .LLST5
     /tmp/ccvGk0DE.s:3221   .debug_loc:00000000000001a8 .LLST6
GAS LISTING /tmp/ccvGk0DE.s 			page 28


     /tmp/ccvGk0DE.s:3706   .debug_str:0000000000000a5e .LASF156
     /tmp/ccvGk0DE.s:3228   .debug_loc:00000000000001cb .LLST7
     /tmp/ccvGk0DE.s:3390   .debug_str:00000000000000a6 .LASF157
     /tmp/ccvGk0DE.s:3235   .debug_loc:00000000000001ee .LLST8
     /tmp/ccvGk0DE.s:3418   .debug_str:0000000000000189 .LASF158
     /tmp/ccvGk0DE.s:3242   .debug_loc:0000000000000211 .LLST9
     /tmp/ccvGk0DE.s:3440   .debug_str:000000000000021a .LASF159
     /tmp/ccvGk0DE.s:3249   .debug_loc:0000000000000234 .LLST10
     /tmp/ccvGk0DE.s:3710   .debug_str:0000000000000a7b .LASF160
     /tmp/ccvGk0DE.s:3256   .debug_loc:0000000000000257 .LLST11
     /tmp/ccvGk0DE.s:3263   .debug_loc:000000000000027a .LLST12
     /tmp/ccvGk0DE.s:368    .text:0000000000000114 .LBB42
     /tmp/ccvGk0DE.s:420    .text:0000000000000144 .LBE42
     /tmp/ccvGk0DE.s:3270   .debug_loc:000000000000029d .LLST16
     /tmp/ccvGk0DE.s:3277   .debug_loc:00000000000002c0 .LLST17
     /tmp/ccvGk0DE.s:3284   .debug_loc:00000000000002e3 .LLST18
     /tmp/ccvGk0DE.s:395    .text:0000000000000128 .LVL20
     /tmp/ccvGk0DE.s:258    .text:00000000000000d4 .LBB36
     /tmp/ccvGk0DE.s:270    .text:00000000000000dc .LBE36
     /tmp/ccvGk0DE.s:3291   .debug_loc:0000000000000306 .LLST13
     /tmp/ccvGk0DE.s:272    .text:00000000000000dc .LBB38
     /tmp/ccvGk0DE.s:284    .text:00000000000000e4 .LBE38
     /tmp/ccvGk0DE.s:3300   .debug_loc:000000000000032c .LLST14
     /tmp/ccvGk0DE.s:286    .text:00000000000000e4 .LBB40
     /tmp/ccvGk0DE.s:300    .text:00000000000000ec .LBE40
     /tmp/ccvGk0DE.s:3308   .debug_loc:0000000000000350 .LLST15
     /tmp/ccvGk0DE.s:315    .text:00000000000000f8 .LVL12
     /tmp/ccvGk0DE.s:362    .text:0000000000000110 .LVL16
     /tmp/ccvGk0DE.s:425    .text:000000000000014c .LVL24
     /tmp/ccvGk0DE.s:433    .text:0000000000000158 .LVL25
     /tmp/ccvGk0DE.s:458    .text:0000000000000170 .LVL28
     /tmp/ccvGk0DE.s:496    .text:0000000000000198 .LVL33
     /tmp/ccvGk0DE.s:513    .text:00000000000001a8 .LVL35
     /tmp/ccvGk0DE.s:530    .text:00000000000001b8 .LVL37
     /tmp/ccvGk0DE.s:538    .text:00000000000001c4 .LVL38
     /tmp/ccvGk0DE.s:556    .text:00000000000001d8 .LVL40
     /tmp/ccvGk0DE.s:106    .text:0000000000000074 .LBB31
     /tmp/ccvGk0DE.s:121    .text:0000000000000080 .LBE31
     /tmp/ccvGk0DE.s:126    .text:0000000000000084 .LBB33
     /tmp/ccvGk0DE.s:142    .text:0000000000000090 .LBE33
     /tmp/ccvGk0DE.s:320    .text:00000000000000f8 .LBB43
     /tmp/ccvGk0DE.s:331    .text:00000000000000fc .LBE43
     /tmp/ccvGk0DE.s:3315   .debug_loc:0000000000000373 .LLST19
     /tmp/ccvGk0DE.s:333    .text:00000000000000fc .LBB45
     /tmp/ccvGk0DE.s:347    .text:0000000000000104 .LBE45
     /tmp/ccvGk0DE.s:3322   .debug_loc:0000000000000396 .LLST20
     /tmp/ccvGk0DE.s:69     .text:000000000000003c .LBB26
     /tmp/ccvGk0DE.s:86     .text:0000000000000048 .LBE26
     /tmp/ccvGk0DE.s:565    .text:00000000000001dc .LBB49
     /tmp/ccvGk0DE.s:578    .text:00000000000001e4 .LBE49
     /tmp/ccvGk0DE.s:3329   .debug_loc:00000000000003b9 .LLST21
     /tmp/ccvGk0DE.s:249    .text:00000000000000d0 .LVL6
     /tmp/ccvGk0DE.s:607    .text:0000000000000210 .LVL44
     /tmp/ccvGk0DE.s:614    .text:0000000000000224 .LVL45
     /tmp/ccvGk0DE.s:618    .text:000000000000022c .LVL46
     /tmp/ccvGk0DE.s:3646   .debug_str:000000000000080e .LASF161
     /tmp/ccvGk0DE.s:10     .text:0000000000000000 .LFB40
GAS LISTING /tmp/ccvGk0DE.s 			page 29


     /tmp/ccvGk0DE.s:40     .text:0000000000000020 .LFE40
     /tmp/ccvGk0DE.s:3678   .debug_str:00000000000009bb .LASF162
     /tmp/ccvGk0DE.s:3722   .debug_str:0000000000000af8 .LASF163
     /tmp/ccvGk0DE.s:3466   .debug_str:00000000000002ee .LASF164
     /tmp/ccvGk0DE.s:3474   .debug_str:0000000000000325 .LASF165
     /tmp/ccvGk0DE.s:3526   .debug_str:00000000000004ca .LASF166
     /tmp/ccvGk0DE.s:3456   .debug_str:000000000000029d .LASF167
     /tmp/ccvGk0DE.s:3412   .debug_str:0000000000000158 .LASF168
     /tmp/ccvGk0DE.s:3458   .debug_str:00000000000002ad .LASF169
     /tmp/ccvGk0DE.s:3610   .debug_str:000000000000073f .LASF170
     /tmp/ccvGk0DE.s:3562   .debug_str:00000000000005ba .LASF171
     /tmp/ccvGk0DE.s:3622   .debug_str:000000000000078c .LASF172
     /tmp/ccvGk0DE.s:3530   .debug_str:00000000000004d6 .LASF173
     /tmp/ccvGk0DE.s:84     .text:0000000000000048 .LVL0
     /tmp/ccvGk0DE.s:124    .text:0000000000000084 .LVL1
     /tmp/ccvGk0DE.s:235    .text:00000000000000b8 .LVL5
     /tmp/ccvGk0DE.s:252    .text:00000000000000d4 .LVL7
     /tmp/ccvGk0DE.s:559    .text:00000000000001dc .LVL41
     /tmp/ccvGk0DE.s:574    .text:00000000000001e4 .LVL42
     /tmp/ccvGk0DE.s:597    .text:0000000000000200 .LVL43
     /tmp/ccvGk0DE.s:140    .text:0000000000000090 .LVL2
     /tmp/ccvGk0DE.s:151    .text:0000000000000094 .LVL3
     /tmp/ccvGk0DE.s:157    .text:00000000000000a0 .LVL4
     /tmp/ccvGk0DE.s:344    .text:0000000000000104 .LVL14
     /tmp/ccvGk0DE.s:403    .text:0000000000000134 .LVL21
     /tmp/ccvGk0DE.s:413    .text:000000000000013c .LVL22
     /tmp/ccvGk0DE.s:466    .text:000000000000017c .LVL29
     /tmp/ccvGk0DE.s:476    .text:0000000000000184 .LVL30
     /tmp/ccvGk0DE.s:310    .text:00000000000000f0 .LVL11
     /tmp/ccvGk0DE.s:357    .text:0000000000000108 .LVL15
     /tmp/ccvGk0DE.s:446    .text:0000000000000160 .LVL26
     /tmp/ccvGk0DE.s:481    .text:000000000000018c .LVL31
     /tmp/ccvGk0DE.s:452    .text:0000000000000164 .LVL27
     /tmp/ccvGk0DE.s:491    .text:0000000000000190 .LVL32
     /tmp/ccvGk0DE.s:508    .text:00000000000001a0 .LVL34
     /tmp/ccvGk0DE.s:525    .text:00000000000001b0 .LVL36
     /tmp/ccvGk0DE.s:550    .text:00000000000001cc .LVL39
     /tmp/ccvGk0DE.s:378    .text:0000000000000118 .LVL17
     /tmp/ccvGk0DE.s:418    .text:0000000000000144 .LVL23
     /tmp/ccvGk0DE.s:384    .text:000000000000011c .LVL18
     /tmp/ccvGk0DE.s:390    .text:0000000000000120 .LVL19
     /tmp/ccvGk0DE.s:267    .text:00000000000000dc .LVL8
     /tmp/ccvGk0DE.s:281    .text:00000000000000e4 .LVL9
     /tmp/ccvGk0DE.s:297    .text:00000000000000ec .LVL10
     /tmp/ccvGk0DE.s:328    .text:00000000000000fc .LVL13
     /tmp/ccvGk0DE.s:636    .debug_info:0000000000000000 .Ldebug_info0
     /tmp/ccvGk0DE.s:104    .text:0000000000000074 .LBB30
     /tmp/ccvGk0DE.s:237    .text:00000000000000b8 .LBE30
     /tmp/ccvGk0DE.s:254    .text:00000000000000d4 .LBB48
     /tmp/ccvGk0DE.s:562    .text:00000000000001dc .LBE48
     /tmp/ccvGk0DE.s:255    .text:00000000000000d4 .LBB35
     /tmp/ccvGk0DE.s:318    .text:00000000000000f8 .LBE35
     /tmp/ccvGk0DE.s:348    .text:0000000000000104 .LBB47
     /tmp/ccvGk0DE.s:561    .text:00000000000001dc .LBE47

UNDEFINED SYMBOLS
console_handler
GAS LISTING /tmp/ccvGk0DE.s 			page 30


__mem_alloc
__mem_free
_ZN7_thread12createThreadEPFvPvES0_
_ZN7_thread10exitThreadEv
_ZN7_thread8dispatchEv
_ZN4_sem15createSemaphoreEj
_ZN4_sem5closeEv
_ZN4_sem4waitEv
_ZN4_sem6signalEv
__getc
__putc
_Z11printStringPKc
_Z8printIntiii
_Z11thread_exitv
