GAS LISTING /tmp/cc6VZ6mo.s 			page 1


   1              		.file	"syscall_c.cpp"
   2              		.option pic
   3              		.option norelax
   4              		.text
   5              	.Ltext0:
   6              		.align	2
   7              		.globl	_Z9mem_allocm
   9              	_Z9mem_allocm:
  10              	.LFB16:
  11              		.file 1 "src/syscall_c.cpp"
   1:src/syscall_c.cpp **** //
   2:src/syscall_c.cpp **** // Created by os on 10/7/25.
   3:src/syscall_c.cpp **** //
   4:src/syscall_c.cpp **** 
   5:src/syscall_c.cpp **** #include "../h/syscall_c.hpp"
   6:src/syscall_c.cpp **** #include "../h/riscv.hpp"
   7:src/syscall_c.cpp **** #include "../lib/mem.h"
   8:src/syscall_c.cpp **** #include "../lib/console.h"
   9:src/syscall_c.cpp **** 
  10:src/syscall_c.cpp **** 
  11:src/syscall_c.cpp **** void* mem_alloc(size_t size){
  12              		.loc 1 11 29
  13              		.cfi_startproc
  14              	.LVL0:
  15 0000 130101FF 		addi	sp,sp,-16
  16              		.cfi_def_cfa_offset 16
  17 0004 23341100 		sd	ra,8(sp)
  18 0008 23308100 		sd	s0,0(sp)
  19              		.cfi_offset 1, -8
  20              		.cfi_offset 8, -16
  21 000c 13040101 		addi	s0,sp,16
  22              		.cfi_def_cfa 8, 0
  12:src/syscall_c.cpp ****     return __mem_alloc(size); //TODO
  23              		.loc 1 12 5
  24              		.loc 1 12 23 is_stmt 0
  25 0010 97000000 		call	__mem_alloc@plt
  25      E7800000 
  26              	.LVL1:
  13:src/syscall_c.cpp **** }
  27              		.loc 1 13 1
  28 0018 83308100 		ld	ra,8(sp)
  29              		.cfi_restore 1
  30 001c 03340100 		ld	s0,0(sp)
  31              		.cfi_restore 8
  32              		.cfi_def_cfa 2, 16
  33 0020 13010101 		addi	sp,sp,16
  34              		.cfi_def_cfa_offset 0
  35 0024 67800000 		jr	ra
  36              		.cfi_endproc
  37              	.LFE16:
  39              		.align	2
  40              		.globl	_Z8mem_freePv
  42              	_Z8mem_freePv:
  43              	.LFB17:
  14:src/syscall_c.cpp **** 
  15:src/syscall_c.cpp **** int mem_free(void* ptr){
  44              		.loc 1 15 24 is_stmt 1
GAS LISTING /tmp/cc6VZ6mo.s 			page 2


  45              		.cfi_startproc
  46              	.LVL2:
  47 0028 130101FF 		addi	sp,sp,-16
  48              		.cfi_def_cfa_offset 16
  49 002c 23341100 		sd	ra,8(sp)
  50 0030 23308100 		sd	s0,0(sp)
  51              		.cfi_offset 1, -8
  52              		.cfi_offset 8, -16
  53 0034 13040101 		addi	s0,sp,16
  54              		.cfi_def_cfa 8, 0
  16:src/syscall_c.cpp ****     return __mem_free(ptr); //TODO
  55              		.loc 1 16 5
  56              		.loc 1 16 22 is_stmt 0
  57 0038 97000000 		call	__mem_free@plt
  57      E7800000 
  58              	.LVL3:
  17:src/syscall_c.cpp **** }
  59              		.loc 1 17 1
  60 0040 83308100 		ld	ra,8(sp)
  61              		.cfi_restore 1
  62 0044 03340100 		ld	s0,0(sp)
  63              		.cfi_restore 8
  64              		.cfi_def_cfa 2, 16
  65 0048 13010101 		addi	sp,sp,16
  66              		.cfi_def_cfa_offset 0
  67 004c 67800000 		jr	ra
  68              		.cfi_endproc
  69              	.LFE17:
  71              		.align	2
  72              		.globl	_Z13thread_createPP7_threadPFvPvES2_
  74              	_Z13thread_createPP7_threadPFvPvES2_:
  75              	.LFB18:
  18:src/syscall_c.cpp **** //
  19:src/syscall_c.cpp **** //size_t mem_get_free_space(){
  20:src/syscall_c.cpp **** //    //TODO
  21:src/syscall_c.cpp **** //}
  22:src/syscall_c.cpp **** //
  23:src/syscall_c.cpp **** //size_t mem_get_largest_free_block(){
  24:src/syscall_c.cpp **** //    //TODO
  25:src/syscall_c.cpp **** //}
  26:src/syscall_c.cpp **** 
  27:src/syscall_c.cpp **** int thread_create(thread_t* handle, void(*start_routine)(void*), void* arg){
  76              		.loc 1 27 76 is_stmt 1
  77              		.cfi_startproc
  78              	.LVL4:
  79 0050 130101FF 		addi	sp,sp,-16
  80              		.cfi_def_cfa_offset 16
  81 0054 23348100 		sd	s0,8(sp)
  82              		.cfi_offset 8, -8
  83 0058 13040101 		addi	s0,sp,16
  84              		.cfi_def_cfa 8, 0
  28:src/syscall_c.cpp ****     WRITE_REG("a7", Num::SCALL_THREAD_CREATE);
  85              		.loc 1 28 5
  86              		.loc 1 28 46 is_stmt 0
  87 005c 93071001 		li	a5,17
  88              	#APP
  89              	# 28 "src/syscall_c.cpp" 1
GAS LISTING /tmp/cc6VZ6mo.s 			page 3


  29              	
  30:src/syscall_c.cpp ****     __asm__ volatile("ecall");
  90              		mv a7, a5
  91              	# 0 "" 2
  92              		.loc 1 30 5 is_stmt 1
  93              		.loc 1 30 30 is_stmt 0
  94              	# 30 "src/syscall_c.cpp" 1
  31              	
  32:src/syscall_c.cpp ****     int ret;
  95              		ecall
  96              	# 0 "" 2
  97              		.loc 1 32 5 is_stmt 1
  33:src/syscall_c.cpp ****     READ_REG(ret, "a0");
  98              		.loc 1 33 5
  99              		.loc 1 33 24 is_stmt 0
 100              	# 33 "src/syscall_c.cpp" 1
  34              	    return ret;
 101              		mv a0, a0
 102              	# 0 "" 2
 103              	.LVL5:
 104              		.loc 1 34 5 is_stmt 1
  35:src/syscall_c.cpp **** }
 105              		.loc 1 35 1 is_stmt 0
 106              	#NO_APP
 107 006c 1B050500 		sext.w	a0,a0
 108 0070 03348100 		ld	s0,8(sp)
 109              		.cfi_restore 8
 110              		.cfi_def_cfa 2, 16
 111 0074 13010101 		addi	sp,sp,16
 112              		.cfi_def_cfa_offset 0
 113 0078 67800000 		jr	ra
 114              		.cfi_endproc
 115              	.LFE18:
 117              		.align	2
 118              		.globl	_Z11thread_exitv
 120              	_Z11thread_exitv:
 121              	.LFB19:
  36:src/syscall_c.cpp **** 
  37:src/syscall_c.cpp **** int thread_exit(){
 122              		.loc 1 37 18 is_stmt 1
 123              		.cfi_startproc
 124 007c 130101FF 		addi	sp,sp,-16
 125              		.cfi_def_cfa_offset 16
 126 0080 23348100 		sd	s0,8(sp)
 127              		.cfi_offset 8, -8
 128 0084 13040101 		addi	s0,sp,16
 129              		.cfi_def_cfa 8, 0
  38:src/syscall_c.cpp ****     WRITE_REG("a7", Num::SCALL_THREAD_EXIT);
 130              		.loc 1 38 5
 131              		.loc 1 38 44 is_stmt 0
 132 0088 93072001 		li	a5,18
 133              	#APP
 134              	# 38 "src/syscall_c.cpp" 1
  39              	
  40:src/syscall_c.cpp ****     __asm__ volatile("ecall");
 135              		mv a7, a5
 136              	# 0 "" 2
GAS LISTING /tmp/cc6VZ6mo.s 			page 4


 137              		.loc 1 40 5 is_stmt 1
 138              		.loc 1 40 30 is_stmt 0
 139              	# 40 "src/syscall_c.cpp" 1
  41              	
  42:src/syscall_c.cpp ****     int ret;
 140              		ecall
 141              	# 0 "" 2
 142              		.loc 1 42 5 is_stmt 1
  43:src/syscall_c.cpp ****     READ_REG(ret, "a0");
 143              		.loc 1 43 5
 144              		.loc 1 43 24 is_stmt 0
 145              	# 43 "src/syscall_c.cpp" 1
  44              	    return ret;
 146              		mv a0, a0
 147              	# 0 "" 2
 148              	.LVL6:
 149              		.loc 1 44 5 is_stmt 1
  45:src/syscall_c.cpp **** }
 150              		.loc 1 45 1 is_stmt 0
 151              	#NO_APP
 152 0098 1B050500 		sext.w	a0,a0
 153 009c 03348100 		ld	s0,8(sp)
 154              		.cfi_restore 8
 155              		.cfi_def_cfa 2, 16
 156 00a0 13010101 		addi	sp,sp,16
 157              		.cfi_def_cfa_offset 0
 158 00a4 67800000 		jr	ra
 159              		.cfi_endproc
 160              	.LFE19:
 162              		.align	2
 163              		.globl	_Z15thread_dispatchv
 165              	_Z15thread_dispatchv:
 166              	.LFB20:
  46:src/syscall_c.cpp **** 
  47:src/syscall_c.cpp **** void thread_dispatch(){
 167              		.loc 1 47 23 is_stmt 1
 168              		.cfi_startproc
 169 00a8 130101FF 		addi	sp,sp,-16
 170              		.cfi_def_cfa_offset 16
 171 00ac 23348100 		sd	s0,8(sp)
 172              		.cfi_offset 8, -8
 173 00b0 13040101 		addi	s0,sp,16
 174              		.cfi_def_cfa 8, 0
  48:src/syscall_c.cpp ****     WRITE_REG("a7", Num::SCALL_THREAD_DISPATCH);
 175              		.loc 1 48 5
 176              		.loc 1 48 48 is_stmt 0
 177 00b4 93073001 		li	a5,19
 178              	#APP
 179              	# 48 "src/syscall_c.cpp" 1
  49              	
  50:src/syscall_c.cpp ****     __asm__ volatile("ecall");
 180              		mv a7, a5
 181              	# 0 "" 2
 182              		.loc 1 50 5 is_stmt 1
 183              		.loc 1 50 30 is_stmt 0
 184              	# 50 "src/syscall_c.cpp" 1
  51              	}
GAS LISTING /tmp/cc6VZ6mo.s 			page 5


 185              		ecall
 186              	# 0 "" 2
 187              		.loc 1 51 1
 188              	#NO_APP
 189 00c0 03348100 		ld	s0,8(sp)
 190              		.cfi_restore 8
 191              		.cfi_def_cfa 2, 16
 192 00c4 13010101 		addi	sp,sp,16
 193              		.cfi_def_cfa_offset 0
 194 00c8 67800000 		jr	ra
 195              		.cfi_endproc
 196              	.LFE20:
 198              		.align	2
 199              		.globl	_Z8sem_openPP4_semj
 201              	_Z8sem_openPP4_semj:
 202              	.LFB21:
  52:src/syscall_c.cpp **** 
  53:src/syscall_c.cpp **** int sem_open(sem_t* handle, unsigned init){
 203              		.loc 1 53 43 is_stmt 1
 204              		.cfi_startproc
 205              	.LVL7:
 206 00cc 130101FF 		addi	sp,sp,-16
 207              		.cfi_def_cfa_offset 16
 208 00d0 23348100 		sd	s0,8(sp)
 209              		.cfi_offset 8, -8
 210 00d4 13040101 		addi	s0,sp,16
 211              		.cfi_def_cfa 8, 0
  54:src/syscall_c.cpp ****     WRITE_REG("a7", Num::SCALL_SEM_OPEN);
 212              		.loc 1 54 5
 213              		.loc 1 54 41 is_stmt 0
 214 00d8 93071002 		li	a5,33
 215              	#APP
 216              	# 54 "src/syscall_c.cpp" 1
  55              	
  56:src/syscall_c.cpp ****     __asm__ volatile("ecall");
 217              		mv a7, a5
 218              	# 0 "" 2
 219              		.loc 1 56 5 is_stmt 1
 220              		.loc 1 56 30 is_stmt 0
 221              	# 56 "src/syscall_c.cpp" 1
  57              	
  58:src/syscall_c.cpp ****     int ret;
 222              		ecall
 223              	# 0 "" 2
 224              		.loc 1 58 5 is_stmt 1
  59:src/syscall_c.cpp ****     READ_REG(ret, "a0");
 225              		.loc 1 59 5
 226              		.loc 1 59 24 is_stmt 0
 227              	# 59 "src/syscall_c.cpp" 1
  60              	    return ret;
 228              		mv a0, a0
 229              	# 0 "" 2
 230              	.LVL8:
 231              		.loc 1 60 5 is_stmt 1
  61:src/syscall_c.cpp **** }
 232              		.loc 1 61 1 is_stmt 0
 233              	#NO_APP
GAS LISTING /tmp/cc6VZ6mo.s 			page 6


 234 00e8 1B050500 		sext.w	a0,a0
 235 00ec 03348100 		ld	s0,8(sp)
 236              		.cfi_restore 8
 237              		.cfi_def_cfa 2, 16
 238 00f0 13010101 		addi	sp,sp,16
 239              		.cfi_def_cfa_offset 0
 240 00f4 67800000 		jr	ra
 241              		.cfi_endproc
 242              	.LFE21:
 244              		.align	2
 245              		.globl	_Z9sem_closeP4_sem
 247              	_Z9sem_closeP4_sem:
 248              	.LFB22:
  62:src/syscall_c.cpp **** 
  63:src/syscall_c.cpp **** int sem_close(sem_t handle) {
 249              		.loc 1 63 29 is_stmt 1
 250              		.cfi_startproc
 251              	.LVL9:
 252 00f8 130101FF 		addi	sp,sp,-16
 253              		.cfi_def_cfa_offset 16
 254 00fc 23348100 		sd	s0,8(sp)
 255              		.cfi_offset 8, -8
 256 0100 13040101 		addi	s0,sp,16
 257              		.cfi_def_cfa 8, 0
  64:src/syscall_c.cpp ****     WRITE_REG("a7", Num::SCALL_SEM_CLOSE);
 258              		.loc 1 64 5
 259              		.loc 1 64 42 is_stmt 0
 260 0104 93072002 		li	a5,34
 261              	#APP
 262              	# 64 "src/syscall_c.cpp" 1
  65              	
  66:src/syscall_c.cpp ****     __asm__ volatile("ecall");
 263              		mv a7, a5
 264              	# 0 "" 2
 265              		.loc 1 66 5 is_stmt 1
 266              		.loc 1 66 30 is_stmt 0
 267              	# 66 "src/syscall_c.cpp" 1
  67              	
  68:src/syscall_c.cpp ****     int ret;
 268              		ecall
 269              	# 0 "" 2
 270              		.loc 1 68 5 is_stmt 1
  69:src/syscall_c.cpp ****     READ_REG(ret, "a0");
 271              		.loc 1 69 5
 272              		.loc 1 69 24 is_stmt 0
 273              	# 69 "src/syscall_c.cpp" 1
  70              	    return ret;
 274              		mv a0, a0
 275              	# 0 "" 2
 276              	.LVL10:
 277              		.loc 1 70 5 is_stmt 1
  71:src/syscall_c.cpp **** }
 278              		.loc 1 71 1 is_stmt 0
 279              	#NO_APP
 280 0114 1B050500 		sext.w	a0,a0
 281 0118 03348100 		ld	s0,8(sp)
 282              		.cfi_restore 8
GAS LISTING /tmp/cc6VZ6mo.s 			page 7


 283              		.cfi_def_cfa 2, 16
 284 011c 13010101 		addi	sp,sp,16
 285              		.cfi_def_cfa_offset 0
 286 0120 67800000 		jr	ra
 287              		.cfi_endproc
 288              	.LFE22:
 290              		.align	2
 291              		.globl	_Z8sem_waitP4_sem
 293              	_Z8sem_waitP4_sem:
 294              	.LFB23:
  72:src/syscall_c.cpp **** 
  73:src/syscall_c.cpp **** int sem_wait(sem_t id){
 295              		.loc 1 73 23 is_stmt 1
 296              		.cfi_startproc
 297              	.LVL11:
 298 0124 130101FF 		addi	sp,sp,-16
 299              		.cfi_def_cfa_offset 16
 300 0128 23348100 		sd	s0,8(sp)
 301              		.cfi_offset 8, -8
 302 012c 13040101 		addi	s0,sp,16
 303              		.cfi_def_cfa 8, 0
  74:src/syscall_c.cpp ****     WRITE_REG("a7", Num::SCALL_SEM_WAIT);
 304              		.loc 1 74 5
 305              		.loc 1 74 41 is_stmt 0
 306 0130 93073002 		li	a5,35
 307              	#APP
 308              	# 74 "src/syscall_c.cpp" 1
  75              	
  76:src/syscall_c.cpp ****     __asm__ volatile("ecall");
 309              		mv a7, a5
 310              	# 0 "" 2
 311              		.loc 1 76 5 is_stmt 1
 312              		.loc 1 76 30 is_stmt 0
 313              	# 76 "src/syscall_c.cpp" 1
  77              	
  78:src/syscall_c.cpp ****     int ret;
 314              		ecall
 315              	# 0 "" 2
 316              		.loc 1 78 5 is_stmt 1
  79:src/syscall_c.cpp ****     READ_REG(ret, "a0");
 317              		.loc 1 79 5
 318              		.loc 1 79 24 is_stmt 0
 319              	# 79 "src/syscall_c.cpp" 1
  80              	    return ret;
 320              		mv a0, a0
 321              	# 0 "" 2
 322              	.LVL12:
 323              		.loc 1 80 5 is_stmt 1
  81:src/syscall_c.cpp **** }
 324              		.loc 1 81 1 is_stmt 0
 325              	#NO_APP
 326 0140 1B050500 		sext.w	a0,a0
 327 0144 03348100 		ld	s0,8(sp)
 328              		.cfi_restore 8
 329              		.cfi_def_cfa 2, 16
 330 0148 13010101 		addi	sp,sp,16
 331              		.cfi_def_cfa_offset 0
GAS LISTING /tmp/cc6VZ6mo.s 			page 8


 332 014c 67800000 		jr	ra
 333              		.cfi_endproc
 334              	.LFE23:
 336              		.align	2
 337              		.globl	_Z10sem_signalP4_sem
 339              	_Z10sem_signalP4_sem:
 340              	.LFB24:
  82:src/syscall_c.cpp **** 
  83:src/syscall_c.cpp **** int sem_signal(sem_t id){
 341              		.loc 1 83 25 is_stmt 1
 342              		.cfi_startproc
 343              	.LVL13:
 344 0150 130101FF 		addi	sp,sp,-16
 345              		.cfi_def_cfa_offset 16
 346 0154 23348100 		sd	s0,8(sp)
 347              		.cfi_offset 8, -8
 348 0158 13040101 		addi	s0,sp,16
 349              		.cfi_def_cfa 8, 0
  84:src/syscall_c.cpp ****     WRITE_REG("a7", Num::SCALL_SEM_SIGNAL);
 350              		.loc 1 84 5
 351              		.loc 1 84 43 is_stmt 0
 352 015c 93074002 		li	a5,36
 353              	#APP
 354              	# 84 "src/syscall_c.cpp" 1
  85              	
  86:src/syscall_c.cpp ****     __asm__ volatile("ecall");
 355              		mv a7, a5
 356              	# 0 "" 2
 357              		.loc 1 86 5 is_stmt 1
 358              		.loc 1 86 30 is_stmt 0
 359              	# 86 "src/syscall_c.cpp" 1
  87              	
  88:src/syscall_c.cpp ****     int ret;
 360              		ecall
 361              	# 0 "" 2
 362              		.loc 1 88 5 is_stmt 1
  89:src/syscall_c.cpp ****     READ_REG(ret, "a0");
 363              		.loc 1 89 5
 364              		.loc 1 89 24 is_stmt 0
 365              	# 89 "src/syscall_c.cpp" 1
  90              	    return ret;
 366              		mv a0, a0
 367              	# 0 "" 2
 368              	.LVL14:
 369              		.loc 1 90 5 is_stmt 1
  91:src/syscall_c.cpp **** }
 370              		.loc 1 91 1 is_stmt 0
 371              	#NO_APP
 372 016c 1B050500 		sext.w	a0,a0
 373 0170 03348100 		ld	s0,8(sp)
 374              		.cfi_restore 8
 375              		.cfi_def_cfa 2, 16
 376 0174 13010101 		addi	sp,sp,16
 377              		.cfi_def_cfa_offset 0
 378 0178 67800000 		jr	ra
 379              		.cfi_endproc
 380              	.LFE24:
GAS LISTING /tmp/cc6VZ6mo.s 			page 9


 382              		.align	2
 383              		.globl	_Z4getcv
 385              	_Z4getcv:
 386              	.LFB25:
  92:src/syscall_c.cpp **** 
  93:src/syscall_c.cpp **** char getc(){
 387              		.loc 1 93 12 is_stmt 1
 388              		.cfi_startproc
 389 017c 130101FF 		addi	sp,sp,-16
 390              		.cfi_def_cfa_offset 16
 391 0180 23341100 		sd	ra,8(sp)
 392 0184 23308100 		sd	s0,0(sp)
 393              		.cfi_offset 1, -8
 394              		.cfi_offset 8, -16
 395 0188 13040101 		addi	s0,sp,16
 396              		.cfi_def_cfa 8, 0
  94:src/syscall_c.cpp ****     return __getc();
 397              		.loc 1 94 5
 398              		.loc 1 94 18 is_stmt 0
 399 018c 97000000 		call	__getc@plt
 399      E7800000 
 400              	.LVL15:
  95:src/syscall_c.cpp **** }
 401              		.loc 1 95 1
 402 0194 83308100 		ld	ra,8(sp)
 403              		.cfi_restore 1
 404 0198 03340100 		ld	s0,0(sp)
 405              		.cfi_restore 8
 406              		.cfi_def_cfa 2, 16
 407 019c 13010101 		addi	sp,sp,16
 408              		.cfi_def_cfa_offset 0
 409 01a0 67800000 		jr	ra
 410              		.cfi_endproc
 411              	.LFE25:
 413              		.align	2
 414              		.globl	_Z4putcc
 416              	_Z4putcc:
 417              	.LFB26:
  96:src/syscall_c.cpp **** 
  97:src/syscall_c.cpp **** void putc(char c){
 418              		.loc 1 97 18 is_stmt 1
 419              		.cfi_startproc
 420              	.LVL16:
 421 01a4 130101FF 		addi	sp,sp,-16
 422              		.cfi_def_cfa_offset 16
 423 01a8 23341100 		sd	ra,8(sp)
 424 01ac 23308100 		sd	s0,0(sp)
 425              		.cfi_offset 1, -8
 426              		.cfi_offset 8, -16
 427 01b0 13040101 		addi	s0,sp,16
 428              		.cfi_def_cfa 8, 0
  98:src/syscall_c.cpp ****     __putc(c);
 429              		.loc 1 98 5
 430              		.loc 1 98 11 is_stmt 0
 431 01b4 97000000 		call	__putc@plt
 431      E7800000 
 432              	.LVL17:
GAS LISTING /tmp/cc6VZ6mo.s 			page 10


  99:src/syscall_c.cpp **** }...
 433              		.loc 1 99 1
 434 01bc 83308100 		ld	ra,8(sp)
 435              		.cfi_restore 1
 436 01c0 03340100 		ld	s0,0(sp)
 437              		.cfi_restore 8
 438              		.cfi_def_cfa 2, 16
 439 01c4 13010101 		addi	sp,sp,16
 440              		.cfi_def_cfa_offset 0
 441 01c8 67800000 		jr	ra
 442              		.cfi_endproc
 443              	.LFE26:
 445              	.Letext0:
 446              		.file 2 "src/../h/../lib/hw.h"
 447              		.file 3 "src/../h/syscall_c.hpp"
 448              		.file 4 "src/../h/riscv.hpp"
 449              		.file 5 "src/../lib/console.h"
 450              		.file 6 "src/../lib/mem.h"
GAS LISTING /tmp/cc6VZ6mo.s 			page 11


DEFINED SYMBOLS
                            *ABS*:0000000000000000 syscall_c.cpp
     /tmp/cc6VZ6mo.s:9      .text:0000000000000000 _Z9mem_allocm
     /tmp/cc6VZ6mo.s:13     .text:0000000000000000 .L0 
     /tmp/cc6VZ6mo.s:15     .text:0000000000000000 .L0 
     /tmp/cc6VZ6mo.s:16     .text:0000000000000004 .L0 
     /tmp/cc6VZ6mo.s:19     .text:000000000000000c .L0 
     /tmp/cc6VZ6mo.s:20     .text:000000000000000c .L0 
     /tmp/cc6VZ6mo.s:22     .text:0000000000000010 .L0 
     /tmp/cc6VZ6mo.s:24     .text:0000000000000010 .L0 
     /tmp/cc6VZ6mo.s:25     .text:0000000000000010 .L0 
     /tmp/cc6VZ6mo.s:28     .text:0000000000000018 .L0 
     /tmp/cc6VZ6mo.s:29     .text:000000000000001c .L0 
     /tmp/cc6VZ6mo.s:31     .text:0000000000000020 .L0 
     /tmp/cc6VZ6mo.s:32     .text:0000000000000020 .L0 
     /tmp/cc6VZ6mo.s:34     .text:0000000000000024 .L0 
     /tmp/cc6VZ6mo.s:36     .text:0000000000000028 .L0 
     /tmp/cc6VZ6mo.s:42     .text:0000000000000028 _Z8mem_freePv
     /tmp/cc6VZ6mo.s:45     .text:0000000000000028 .L0 
     /tmp/cc6VZ6mo.s:47     .text:0000000000000028 .L0 
     /tmp/cc6VZ6mo.s:48     .text:000000000000002c .L0 
     /tmp/cc6VZ6mo.s:51     .text:0000000000000034 .L0 
     /tmp/cc6VZ6mo.s:52     .text:0000000000000034 .L0 
     /tmp/cc6VZ6mo.s:54     .text:0000000000000038 .L0 
     /tmp/cc6VZ6mo.s:56     .text:0000000000000038 .L0 
     /tmp/cc6VZ6mo.s:57     .text:0000000000000038 .L0 
     /tmp/cc6VZ6mo.s:60     .text:0000000000000040 .L0 
     /tmp/cc6VZ6mo.s:61     .text:0000000000000044 .L0 
     /tmp/cc6VZ6mo.s:63     .text:0000000000000048 .L0 
     /tmp/cc6VZ6mo.s:64     .text:0000000000000048 .L0 
     /tmp/cc6VZ6mo.s:66     .text:000000000000004c .L0 
     /tmp/cc6VZ6mo.s:68     .text:0000000000000050 .L0 
     /tmp/cc6VZ6mo.s:74     .text:0000000000000050 _Z13thread_createPP7_threadPFvPvES2_
     /tmp/cc6VZ6mo.s:77     .text:0000000000000050 .L0 
     /tmp/cc6VZ6mo.s:79     .text:0000000000000050 .L0 
     /tmp/cc6VZ6mo.s:80     .text:0000000000000054 .L0 
     /tmp/cc6VZ6mo.s:82     .text:0000000000000058 .L0 
     /tmp/cc6VZ6mo.s:84     .text:000000000000005c .L0 
     /tmp/cc6VZ6mo.s:86     .text:000000000000005c .L0 
     /tmp/cc6VZ6mo.s:87     .text:000000000000005c .L0 
     /tmp/cc6VZ6mo.s:93     .text:0000000000000064 .L0 
   src/syscall_c.cpp:30     .text:0000000000000064 .L0 
     /tmp/cc6VZ6mo.s:98     .text:0000000000000068 .L0 
     /tmp/cc6VZ6mo.s:99     .text:0000000000000068 .L0 
   src/syscall_c.cpp:33     .text:0000000000000068 .L0 
     /tmp/cc6VZ6mo.s:105    .text:000000000000006c .L0 
     /tmp/cc6VZ6mo.s:107    .text:000000000000006c .L0 
     /tmp/cc6VZ6mo.s:109    .text:0000000000000074 .L0 
     /tmp/cc6VZ6mo.s:110    .text:0000000000000074 .L0 
     /tmp/cc6VZ6mo.s:112    .text:0000000000000078 .L0 
     /tmp/cc6VZ6mo.s:114    .text:000000000000007c .L0 
     /tmp/cc6VZ6mo.s:120    .text:000000000000007c _Z11thread_exitv
     /tmp/cc6VZ6mo.s:123    .text:000000000000007c .L0 
     /tmp/cc6VZ6mo.s:124    .text:000000000000007c .L0 
     /tmp/cc6VZ6mo.s:125    .text:0000000000000080 .L0 
     /tmp/cc6VZ6mo.s:127    .text:0000000000000084 .L0 
     /tmp/cc6VZ6mo.s:129    .text:0000000000000088 .L0 
GAS LISTING /tmp/cc6VZ6mo.s 			page 12


     /tmp/cc6VZ6mo.s:131    .text:0000000000000088 .L0 
     /tmp/cc6VZ6mo.s:132    .text:0000000000000088 .L0 
     /tmp/cc6VZ6mo.s:138    .text:0000000000000090 .L0 
   src/syscall_c.cpp:40     .text:0000000000000090 .L0 
     /tmp/cc6VZ6mo.s:143    .text:0000000000000094 .L0 
     /tmp/cc6VZ6mo.s:144    .text:0000000000000094 .L0 
   src/syscall_c.cpp:43     .text:0000000000000094 .L0 
     /tmp/cc6VZ6mo.s:150    .text:0000000000000098 .L0 
     /tmp/cc6VZ6mo.s:152    .text:0000000000000098 .L0 
     /tmp/cc6VZ6mo.s:154    .text:00000000000000a0 .L0 
     /tmp/cc6VZ6mo.s:155    .text:00000000000000a0 .L0 
     /tmp/cc6VZ6mo.s:157    .text:00000000000000a4 .L0 
     /tmp/cc6VZ6mo.s:159    .text:00000000000000a8 .L0 
     /tmp/cc6VZ6mo.s:165    .text:00000000000000a8 _Z15thread_dispatchv
     /tmp/cc6VZ6mo.s:168    .text:00000000000000a8 .L0 
     /tmp/cc6VZ6mo.s:169    .text:00000000000000a8 .L0 
     /tmp/cc6VZ6mo.s:170    .text:00000000000000ac .L0 
     /tmp/cc6VZ6mo.s:172    .text:00000000000000b0 .L0 
     /tmp/cc6VZ6mo.s:174    .text:00000000000000b4 .L0 
     /tmp/cc6VZ6mo.s:176    .text:00000000000000b4 .L0 
     /tmp/cc6VZ6mo.s:177    .text:00000000000000b4 .L0 
     /tmp/cc6VZ6mo.s:183    .text:00000000000000bc .L0 
   src/syscall_c.cpp:50     .text:00000000000000bc .L0 
     /tmp/cc6VZ6mo.s:189    .text:00000000000000c0 .L0 
     /tmp/cc6VZ6mo.s:190    .text:00000000000000c4 .L0 
     /tmp/cc6VZ6mo.s:191    .text:00000000000000c4 .L0 
     /tmp/cc6VZ6mo.s:193    .text:00000000000000c8 .L0 
     /tmp/cc6VZ6mo.s:195    .text:00000000000000cc .L0 
     /tmp/cc6VZ6mo.s:201    .text:00000000000000cc _Z8sem_openPP4_semj
     /tmp/cc6VZ6mo.s:204    .text:00000000000000cc .L0 
     /tmp/cc6VZ6mo.s:206    .text:00000000000000cc .L0 
     /tmp/cc6VZ6mo.s:207    .text:00000000000000d0 .L0 
     /tmp/cc6VZ6mo.s:209    .text:00000000000000d4 .L0 
     /tmp/cc6VZ6mo.s:211    .text:00000000000000d8 .L0 
     /tmp/cc6VZ6mo.s:213    .text:00000000000000d8 .L0 
     /tmp/cc6VZ6mo.s:214    .text:00000000000000d8 .L0 
     /tmp/cc6VZ6mo.s:220    .text:00000000000000e0 .L0 
   src/syscall_c.cpp:56     .text:00000000000000e0 .L0 
     /tmp/cc6VZ6mo.s:225    .text:00000000000000e4 .L0 
     /tmp/cc6VZ6mo.s:226    .text:00000000000000e4 .L0 
   src/syscall_c.cpp:59     .text:00000000000000e4 .L0 
     /tmp/cc6VZ6mo.s:232    .text:00000000000000e8 .L0 
     /tmp/cc6VZ6mo.s:234    .text:00000000000000e8 .L0 
     /tmp/cc6VZ6mo.s:236    .text:00000000000000f0 .L0 
     /tmp/cc6VZ6mo.s:237    .text:00000000000000f0 .L0 
     /tmp/cc6VZ6mo.s:239    .text:00000000000000f4 .L0 
     /tmp/cc6VZ6mo.s:241    .text:00000000000000f8 .L0 
     /tmp/cc6VZ6mo.s:247    .text:00000000000000f8 _Z9sem_closeP4_sem
     /tmp/cc6VZ6mo.s:250    .text:00000000000000f8 .L0 
     /tmp/cc6VZ6mo.s:252    .text:00000000000000f8 .L0 
     /tmp/cc6VZ6mo.s:253    .text:00000000000000fc .L0 
     /tmp/cc6VZ6mo.s:255    .text:0000000000000100 .L0 
     /tmp/cc6VZ6mo.s:257    .text:0000000000000104 .L0 
     /tmp/cc6VZ6mo.s:259    .text:0000000000000104 .L0 
     /tmp/cc6VZ6mo.s:260    .text:0000000000000104 .L0 
     /tmp/cc6VZ6mo.s:266    .text:000000000000010c .L0 
   src/syscall_c.cpp:66     .text:000000000000010c .L0 
GAS LISTING /tmp/cc6VZ6mo.s 			page 13


     /tmp/cc6VZ6mo.s:271    .text:0000000000000110 .L0 
     /tmp/cc6VZ6mo.s:272    .text:0000000000000110 .L0 
   src/syscall_c.cpp:69     .text:0000000000000110 .L0 
     /tmp/cc6VZ6mo.s:278    .text:0000000000000114 .L0 
     /tmp/cc6VZ6mo.s:280    .text:0000000000000114 .L0 
     /tmp/cc6VZ6mo.s:282    .text:000000000000011c .L0 
     /tmp/cc6VZ6mo.s:283    .text:000000000000011c .L0 
     /tmp/cc6VZ6mo.s:285    .text:0000000000000120 .L0 
     /tmp/cc6VZ6mo.s:287    .text:0000000000000124 .L0 
     /tmp/cc6VZ6mo.s:293    .text:0000000000000124 _Z8sem_waitP4_sem
     /tmp/cc6VZ6mo.s:296    .text:0000000000000124 .L0 
     /tmp/cc6VZ6mo.s:298    .text:0000000000000124 .L0 
     /tmp/cc6VZ6mo.s:299    .text:0000000000000128 .L0 
     /tmp/cc6VZ6mo.s:301    .text:000000000000012c .L0 
     /tmp/cc6VZ6mo.s:303    .text:0000000000000130 .L0 
     /tmp/cc6VZ6mo.s:305    .text:0000000000000130 .L0 
     /tmp/cc6VZ6mo.s:306    .text:0000000000000130 .L0 
     /tmp/cc6VZ6mo.s:312    .text:0000000000000138 .L0 
   src/syscall_c.cpp:76     .text:0000000000000138 .L0 
     /tmp/cc6VZ6mo.s:317    .text:000000000000013c .L0 
     /tmp/cc6VZ6mo.s:318    .text:000000000000013c .L0 
   src/syscall_c.cpp:79     .text:000000000000013c .L0 
     /tmp/cc6VZ6mo.s:324    .text:0000000000000140 .L0 
     /tmp/cc6VZ6mo.s:326    .text:0000000000000140 .L0 
     /tmp/cc6VZ6mo.s:328    .text:0000000000000148 .L0 
     /tmp/cc6VZ6mo.s:329    .text:0000000000000148 .L0 
     /tmp/cc6VZ6mo.s:331    .text:000000000000014c .L0 
     /tmp/cc6VZ6mo.s:333    .text:0000000000000150 .L0 
     /tmp/cc6VZ6mo.s:339    .text:0000000000000150 _Z10sem_signalP4_sem
     /tmp/cc6VZ6mo.s:342    .text:0000000000000150 .L0 
     /tmp/cc6VZ6mo.s:344    .text:0000000000000150 .L0 
     /tmp/cc6VZ6mo.s:345    .text:0000000000000154 .L0 
     /tmp/cc6VZ6mo.s:347    .text:0000000000000158 .L0 
     /tmp/cc6VZ6mo.s:349    .text:000000000000015c .L0 
     /tmp/cc6VZ6mo.s:351    .text:000000000000015c .L0 
     /tmp/cc6VZ6mo.s:352    .text:000000000000015c .L0 
     /tmp/cc6VZ6mo.s:358    .text:0000000000000164 .L0 
   src/syscall_c.cpp:86     .text:0000000000000164 .L0 
     /tmp/cc6VZ6mo.s:363    .text:0000000000000168 .L0 
     /tmp/cc6VZ6mo.s:364    .text:0000000000000168 .L0 
   src/syscall_c.cpp:89     .text:0000000000000168 .L0 
     /tmp/cc6VZ6mo.s:370    .text:000000000000016c .L0 
     /tmp/cc6VZ6mo.s:372    .text:000000000000016c .L0 
     /tmp/cc6VZ6mo.s:374    .text:0000000000000174 .L0 
     /tmp/cc6VZ6mo.s:375    .text:0000000000000174 .L0 
     /tmp/cc6VZ6mo.s:377    .text:0000000000000178 .L0 
     /tmp/cc6VZ6mo.s:379    .text:000000000000017c .L0 
     /tmp/cc6VZ6mo.s:385    .text:000000000000017c _Z4getcv
     /tmp/cc6VZ6mo.s:388    .text:000000000000017c .L0 
     /tmp/cc6VZ6mo.s:389    .text:000000000000017c .L0 
     /tmp/cc6VZ6mo.s:390    .text:0000000000000180 .L0 
     /tmp/cc6VZ6mo.s:393    .text:0000000000000188 .L0 
     /tmp/cc6VZ6mo.s:394    .text:0000000000000188 .L0 
     /tmp/cc6VZ6mo.s:396    .text:000000000000018c .L0 
     /tmp/cc6VZ6mo.s:398    .text:000000000000018c .L0 
     /tmp/cc6VZ6mo.s:399    .text:000000000000018c .L0 
     /tmp/cc6VZ6mo.s:402    .text:0000000000000194 .L0 
GAS LISTING /tmp/cc6VZ6mo.s 			page 14


     /tmp/cc6VZ6mo.s:403    .text:0000000000000198 .L0 
     /tmp/cc6VZ6mo.s:405    .text:000000000000019c .L0 
     /tmp/cc6VZ6mo.s:406    .text:000000000000019c .L0 
     /tmp/cc6VZ6mo.s:408    .text:00000000000001a0 .L0 
     /tmp/cc6VZ6mo.s:410    .text:00000000000001a4 .L0 
     /tmp/cc6VZ6mo.s:416    .text:00000000000001a4 _Z4putcc
     /tmp/cc6VZ6mo.s:419    .text:00000000000001a4 .L0 
     /tmp/cc6VZ6mo.s:421    .text:00000000000001a4 .L0 
     /tmp/cc6VZ6mo.s:422    .text:00000000000001a8 .L0 
     /tmp/cc6VZ6mo.s:425    .text:00000000000001b0 .L0 
     /tmp/cc6VZ6mo.s:426    .text:00000000000001b0 .L0 
     /tmp/cc6VZ6mo.s:428    .text:00000000000001b4 .L0 
     /tmp/cc6VZ6mo.s:430    .text:00000000000001b4 .L0 
     /tmp/cc6VZ6mo.s:431    .text:00000000000001b4 .L0 
     /tmp/cc6VZ6mo.s:434    .text:00000000000001bc .L0 
     /tmp/cc6VZ6mo.s:435    .text:00000000000001c0 .L0 
     /tmp/cc6VZ6mo.s:437    .text:00000000000001c4 .L0 
     /tmp/cc6VZ6mo.s:438    .text:00000000000001c4 .L0 
     /tmp/cc6VZ6mo.s:440    .text:00000000000001c8 .L0 
     /tmp/cc6VZ6mo.s:442    .text:00000000000001cc .L0 
     /tmp/cc6VZ6mo.s:451    .text:00000000000001cc .L0 
     /tmp/cc6VZ6mo.s:1054   .debug_abbrev:0000000000000000 .Ldebug_abbrev0
     /tmp/cc6VZ6mo.s:1716   .debug_str:0000000000000315 .LASF60
     /tmp/cc6VZ6mo.s:1662   .debug_str:000000000000018e .LASF61
     /tmp/cc6VZ6mo.s:1644   .debug_str:0000000000000120 .LASF62
     /tmp/cc6VZ6mo.s:5      .text:0000000000000000 .Ltext0
     /tmp/cc6VZ6mo.s:445    .text:00000000000001cc .Letext0
     /tmp/cc6VZ6mo.s:1598   .debug_line:0000000000000000 .Ldebug_line0
     /tmp/cc6VZ6mo.s:1676   .debug_str:00000000000001f2 .LASF0
     /tmp/cc6VZ6mo.s:1678   .debug_str:00000000000001ff .LASF1
     /tmp/cc6VZ6mo.s:1670   .debug_str:00000000000001cc .LASF2
     /tmp/cc6VZ6mo.s:1634   .debug_str:00000000000000ee .LASF3
     /tmp/cc6VZ6mo.s:1658   .debug_str:000000000000017e .LASF4
     /tmp/cc6VZ6mo.s:1704   .debug_str:00000000000002c9 .LASF5
     /tmp/cc6VZ6mo.s:1612   .debug_str:0000000000000041 .LASF6
     /tmp/cc6VZ6mo.s:1682   .debug_str:0000000000000223 .LASF7
     /tmp/cc6VZ6mo.s:1674   .debug_str:00000000000001df .LASF8
     /tmp/cc6VZ6mo.s:1722   .debug_str:00000000000003f3 .LASF9
     /tmp/cc6VZ6mo.s:1650   .debug_str:000000000000015c .LASF10
     /tmp/cc6VZ6mo.s:1692   .debug_str:0000000000000267 .LASF11
     /tmp/cc6VZ6mo.s:1718   .debug_str:00000000000003d9 .LASF12
     /tmp/cc6VZ6mo.s:1614   .debug_str:0000000000000048 .LASF13
     /tmp/cc6VZ6mo.s:1602   .debug_str:0000000000000009 .LASF14
     /tmp/cc6VZ6mo.s:1620   .debug_str:000000000000007a .LASF15
     /tmp/cc6VZ6mo.s:1700   .debug_str:000000000000029d .LASF16
     /tmp/cc6VZ6mo.s:1630   .debug_str:00000000000000ca .LASF17
     /tmp/cc6VZ6mo.s:1600   .debug_str:0000000000000000 .LASF18
     /tmp/cc6VZ6mo.s:1654   .debug_str:0000000000000171 .LASF20
     /tmp/cc6VZ6mo.s:1636   .debug_str:00000000000000f4 .LASF19
     /tmp/cc6VZ6mo.s:1656   .debug_str:0000000000000179 .LASF21
     /tmp/cc6VZ6mo.s:1616   .debug_str:0000000000000058 .LASF22
     /tmp/cc6VZ6mo.s:1706   .debug_str:00000000000002db .LASF23
     /tmp/cc6VZ6mo.s:1622   .debug_str:0000000000000086 .LASF24
     /tmp/cc6VZ6mo.s:1726   .debug_str:000000000000040d .LASF25
     /tmp/cc6VZ6mo.s:1690   .debug_str:0000000000000253 .LASF26
     /tmp/cc6VZ6mo.s:1668   .debug_str:00000000000001ba .LASF27
     /tmp/cc6VZ6mo.s:1702   .debug_str:00000000000002b3 .LASF28
GAS LISTING /tmp/cc6VZ6mo.s 			page 15


     /tmp/cc6VZ6mo.s:1728   .debug_str:000000000000042e .LASF29
     /tmp/cc6VZ6mo.s:1708   .debug_str:00000000000002ea .LASF30
     /tmp/cc6VZ6mo.s:1714   .debug_str:0000000000000306 .LASF31
     /tmp/cc6VZ6mo.s:1642   .debug_str:000000000000010f .LASF32
     /tmp/cc6VZ6mo.s:1672   .debug_str:00000000000001da .LASF63
     /tmp/cc6VZ6mo.s:1646   .debug_str:000000000000013e .LASF64
     /tmp/cc6VZ6mo.s:417    .text:00000000000001a4 .LFB26
     /tmp/cc6VZ6mo.s:443    .text:00000000000001cc .LFE26
     /tmp/cc6VZ6mo.s:1473   .debug_loc:0000000000000000 .LLST7
     /tmp/cc6VZ6mo.s:432    .text:00000000000001bc .LVL17
     /tmp/cc6VZ6mo.s:1684   .debug_str:0000000000000236 .LASF33
     /tmp/cc6VZ6mo.s:1604   .debug_str:0000000000000019 .LASF34
     /tmp/cc6VZ6mo.s:1608   .debug_str:000000000000002a .LASF36
     /tmp/cc6VZ6mo.s:386    .text:000000000000017c .LFB25
     /tmp/cc6VZ6mo.s:411    .text:00000000000001a4 .LFE25
     /tmp/cc6VZ6mo.s:400    .text:0000000000000194 .LVL15
     /tmp/cc6VZ6mo.s:1720   .debug_str:00000000000003e8 .LASF35
     /tmp/cc6VZ6mo.s:1648   .debug_str:0000000000000147 .LASF37
     /tmp/cc6VZ6mo.s:340    .text:0000000000000150 .LFB24
     /tmp/cc6VZ6mo.s:380    .text:000000000000017c .LFE24
     /tmp/cc6VZ6mo.s:1487   .debug_loc:0000000000000039 .LLST6
     /tmp/cc6VZ6mo.s:1624   .debug_str:000000000000009f .LASF38
     /tmp/cc6VZ6mo.s:1618   .debug_str:0000000000000068 .LASF39
     /tmp/cc6VZ6mo.s:294    .text:0000000000000124 .LFB23
     /tmp/cc6VZ6mo.s:334    .text:0000000000000150 .LFE23
     /tmp/cc6VZ6mo.s:1501   .debug_loc:0000000000000072 .LLST5
     /tmp/cc6VZ6mo.s:1664   .debug_str:00000000000001a0 .LASF40
     /tmp/cc6VZ6mo.s:1688   .debug_str:0000000000000240 .LASF41
     /tmp/cc6VZ6mo.s:248    .text:00000000000000f8 .LFB22
     /tmp/cc6VZ6mo.s:288    .text:0000000000000124 .LFE22
     /tmp/cc6VZ6mo.s:1710   .debug_str:00000000000002fa .LASF42
     /tmp/cc6VZ6mo.s:1515   .debug_loc:00000000000000ab .LLST4
     /tmp/cc6VZ6mo.s:1640   .debug_str:0000000000000106 .LASF43
     /tmp/cc6VZ6mo.s:1628   .debug_str:00000000000000b6 .LASF44
     /tmp/cc6VZ6mo.s:202    .text:00000000000000cc .LFB21
     /tmp/cc6VZ6mo.s:242    .text:00000000000000f8 .LFE21
     /tmp/cc6VZ6mo.s:1529   .debug_loc:00000000000000e4 .LLST3
     /tmp/cc6VZ6mo.s:1686   .debug_str:000000000000023b .LASF45
     /tmp/cc6VZ6mo.s:1666   .debug_str:00000000000001aa .LASF65
     /tmp/cc6VZ6mo.s:1696   .debug_str:0000000000000281 .LASF66
     /tmp/cc6VZ6mo.s:166    .text:00000000000000a8 .LFB20
     /tmp/cc6VZ6mo.s:196    .text:00000000000000cc .LFE20
     /tmp/cc6VZ6mo.s:1606   .debug_str:000000000000001e .LASF46
     /tmp/cc6VZ6mo.s:1680   .debug_str:0000000000000212 .LASF47
     /tmp/cc6VZ6mo.s:121    .text:000000000000007c .LFB19
     /tmp/cc6VZ6mo.s:160    .text:00000000000000a8 .LFE19
     /tmp/cc6VZ6mo.s:1632   .debug_str:00000000000000e0 .LASF48
     /tmp/cc6VZ6mo.s:1732   .debug_str:000000000000044b .LASF49
     /tmp/cc6VZ6mo.s:75     .text:0000000000000050 .LFB18
     /tmp/cc6VZ6mo.s:115    .text:000000000000007c .LFE18
     /tmp/cc6VZ6mo.s:1543   .debug_loc:000000000000011d .LLST2
     /tmp/cc6VZ6mo.s:1610   .debug_str:0000000000000033 .LASF50
     /tmp/cc6VZ6mo.s:1660   .debug_str:0000000000000185 .LASF51
     /tmp/cc6VZ6mo.s:1730   .debug_str:000000000000043d .LASF52
     /tmp/cc6VZ6mo.s:43     .text:0000000000000028 .LFB17
     /tmp/cc6VZ6mo.s:69     .text:0000000000000050 .LFE17
     /tmp/cc6VZ6mo.s:1557   .debug_loc:0000000000000156 .LLST1
GAS LISTING /tmp/cc6VZ6mo.s 			page 16


     /tmp/cc6VZ6mo.s:58     .text:0000000000000040 .LVL3
     /tmp/cc6VZ6mo.s:1724   .debug_str:0000000000000403 .LASF53
     /tmp/cc6VZ6mo.s:1626   .debug_str:00000000000000a8 .LASF54
     /tmp/cc6VZ6mo.s:10     .text:0000000000000000 .LFB16
     /tmp/cc6VZ6mo.s:37     .text:0000000000000028 .LFE16
     /tmp/cc6VZ6mo.s:1712   .debug_str:0000000000000301 .LASF55
     /tmp/cc6VZ6mo.s:1571   .debug_loc:000000000000018f .LLST0
     /tmp/cc6VZ6mo.s:26     .text:0000000000000018 .LVL1
     /tmp/cc6VZ6mo.s:1698   .debug_str:0000000000000296 .LASF56
     /tmp/cc6VZ6mo.s:1652   .debug_str:000000000000016a .LASF57
     /tmp/cc6VZ6mo.s:1694   .debug_str:0000000000000276 .LASF58
     /tmp/cc6VZ6mo.s:1638   .debug_str:00000000000000fa .LASF59
     /tmp/cc6VZ6mo.s:420    .text:00000000000001a4 .LVL16
     /tmp/cc6VZ6mo.s:343    .text:0000000000000150 .LVL13
     /tmp/cc6VZ6mo.s:368    .text:000000000000016c .LVL14
     /tmp/cc6VZ6mo.s:297    .text:0000000000000124 .LVL11
     /tmp/cc6VZ6mo.s:322    .text:0000000000000140 .LVL12
     /tmp/cc6VZ6mo.s:251    .text:00000000000000f8 .LVL9
     /tmp/cc6VZ6mo.s:276    .text:0000000000000114 .LVL10
     /tmp/cc6VZ6mo.s:205    .text:00000000000000cc .LVL7
     /tmp/cc6VZ6mo.s:230    .text:00000000000000e8 .LVL8
     /tmp/cc6VZ6mo.s:78     .text:0000000000000050 .LVL4
     /tmp/cc6VZ6mo.s:103    .text:000000000000006c .LVL5
     /tmp/cc6VZ6mo.s:46     .text:0000000000000028 .LVL2
     /tmp/cc6VZ6mo.s:14     .text:0000000000000000 .LVL0
     /tmp/cc6VZ6mo.s:452    .debug_info:0000000000000000 .Ldebug_info0

UNDEFINED SYMBOLS
__mem_alloc
__mem_free
__getc
__putc
