GAS LISTING /tmp/ccUBLLWS.s 			page 1


   1              		.file	"syscall_c.cpp"
   2              		.option pic
   3              		.option norelax
   4              		.text
   5              	.Ltext0:
   6              		.align	2
   7              		.globl	_Z9mem_allocm
   9              	_Z9mem_allocm:
  10              	.LFB17:
  11              		.file 1 "src/syscall_c.cpp"
   1:src/syscall_c.cpp **** //
   2:src/syscall_c.cpp **** // Created by os on 10/7/25.
   3:src/syscall_c.cpp **** //
   4:src/syscall_c.cpp **** 
   5:src/syscall_c.cpp **** #include "../h/syscall_c.hpp"
   6:src/syscall_c.cpp **** #include "../h/riscv.hpp"
   7:src/syscall_c.cpp **** 
   8:src/syscall_c.cpp **** void* mem_alloc(size_t size){
  12              		.loc 1 8 29
  13              		.cfi_startproc
  14              	.LVL0:
  15 0000 130101FF 		addi	sp,sp,-16
  16              		.cfi_def_cfa_offset 16
  17 0004 23348100 		sd	s0,8(sp)
  18              		.cfi_offset 8, -8
  19 0008 13040101 		addi	s0,sp,16
  20              		.cfi_def_cfa 8, 0
   9:src/syscall_c.cpp ****     WRITE_REG("a7", Num::SCALL_MEM_ALLOC);
  21              		.loc 1 9 5
  22              		.loc 1 9 42 is_stmt 0
  23 000c 93071000 		li	a5,1
  24              	#APP
  25              	# 9 "src/syscall_c.cpp" 1
  10              	
  11:src/syscall_c.cpp ****     __asm__ volatile("ecall");
  26              		mv a7, a5
  27              	# 0 "" 2
  28              		.loc 1 11 5 is_stmt 1
  29              		.loc 1 11 30 is_stmt 0
  30              	# 11 "src/syscall_c.cpp" 1
  12              	
  13:src/syscall_c.cpp ****     void* ret;
  31              		ecall
  32              	# 0 "" 2
  33              		.loc 1 13 5 is_stmt 1
  14:src/syscall_c.cpp ****     READ_REG(ret, "a0");
  34              		.loc 1 14 5
  35              		.loc 1 14 24 is_stmt 0
  36              	# 14 "src/syscall_c.cpp" 1
  15              	    return ret;
  37              		mv a0, a0
  38              	# 0 "" 2
  39              	.LVL1:
  40              		.loc 1 15 5 is_stmt 1
  16:src/syscall_c.cpp **** }
  41              		.loc 1 16 1 is_stmt 0
  42              	#NO_APP
GAS LISTING /tmp/ccUBLLWS.s 			page 2


  43 001c 03348100 		ld	s0,8(sp)
  44              		.cfi_restore 8
  45              		.cfi_def_cfa 2, 16
  46 0020 13010101 		addi	sp,sp,16
  47              		.cfi_def_cfa_offset 0
  48 0024 67800000 		jr	ra
  49              		.cfi_endproc
  50              	.LFE17:
  52              		.align	2
  53              		.globl	_Z8mem_freePv
  55              	_Z8mem_freePv:
  56              	.LFB18:
  17:src/syscall_c.cpp **** 
  18:src/syscall_c.cpp **** int mem_free(void* ptr){
  57              		.loc 1 18 24 is_stmt 1
  58              		.cfi_startproc
  59              	.LVL2:
  60 0028 130101FF 		addi	sp,sp,-16
  61              		.cfi_def_cfa_offset 16
  62 002c 23348100 		sd	s0,8(sp)
  63              		.cfi_offset 8, -8
  64 0030 13040101 		addi	s0,sp,16
  65              		.cfi_def_cfa 8, 0
  19:src/syscall_c.cpp ****     WRITE_REG("a7", Num::SCALL_MEM_FREE);
  66              		.loc 1 19 5
  67              		.loc 1 19 41 is_stmt 0
  68 0034 93072000 		li	a5,2
  69              	#APP
  70              	# 19 "src/syscall_c.cpp" 1
  20              	
  21:src/syscall_c.cpp ****     __asm__ volatile("ecall");
  71              		mv a7, a5
  72              	# 0 "" 2
  73              		.loc 1 21 5 is_stmt 1
  74              		.loc 1 21 30 is_stmt 0
  75              	# 21 "src/syscall_c.cpp" 1
  22              	
  23:src/syscall_c.cpp ****     int ret;
  76              		ecall
  77              	# 0 "" 2
  78              		.loc 1 23 5 is_stmt 1
  24:src/syscall_c.cpp ****     READ_REG(ret, "a0");
  79              		.loc 1 24 5
  80              		.loc 1 24 24 is_stmt 0
  81              	# 24 "src/syscall_c.cpp" 1
  25              	    return ret;
  82              		mv a0, a0
  83              	# 0 "" 2
  84              	.LVL3:
  85              		.loc 1 25 5 is_stmt 1
  26:src/syscall_c.cpp **** }
  86              		.loc 1 26 1 is_stmt 0
  87              	#NO_APP
  88 0044 1B050500 		sext.w	a0,a0
  89 0048 03348100 		ld	s0,8(sp)
  90              		.cfi_restore 8
  91              		.cfi_def_cfa 2, 16
GAS LISTING /tmp/ccUBLLWS.s 			page 3


  92 004c 13010101 		addi	sp,sp,16
  93              		.cfi_def_cfa_offset 0
  94 0050 67800000 		jr	ra
  95              		.cfi_endproc
  96              	.LFE18:
  98              		.align	2
  99              		.globl	_Z18mem_get_free_spacev
 101              	_Z18mem_get_free_spacev:
 102              	.LFB19:
  27:src/syscall_c.cpp **** 
  28:src/syscall_c.cpp **** size_t mem_get_free_space(){
 103              		.loc 1 28 28 is_stmt 1
 104              		.cfi_startproc
 105 0054 130101FF 		addi	sp,sp,-16
 106              		.cfi_def_cfa_offset 16
 107 0058 23348100 		sd	s0,8(sp)
 108              		.cfi_offset 8, -8
 109 005c 13040101 		addi	s0,sp,16
 110              		.cfi_def_cfa 8, 0
  29:src/syscall_c.cpp ****     WRITE_REG("a7", Num::SCALL_MEM_GET_FREE_SPACE);
 111              		.loc 1 29 5
 112              		.loc 1 29 51 is_stmt 0
 113 0060 93073000 		li	a5,3
 114              	#APP
 115              	# 29 "src/syscall_c.cpp" 1
  30              	
  31:src/syscall_c.cpp ****     __asm__ volatile("ecall");
 116              		mv a7, a5
 117              	# 0 "" 2
 118              		.loc 1 31 5 is_stmt 1
 119              		.loc 1 31 30 is_stmt 0
 120              	# 31 "src/syscall_c.cpp" 1
  32              	
  33:src/syscall_c.cpp ****     size_t ret;
 121              		ecall
 122              	# 0 "" 2
 123              		.loc 1 33 5 is_stmt 1
  34:src/syscall_c.cpp ****     READ_REG(ret, "a0");
 124              		.loc 1 34 5
 125              		.loc 1 34 24 is_stmt 0
 126              	# 34 "src/syscall_c.cpp" 1
  35              	    return ret;
 127              		mv a0, a0
 128              	# 0 "" 2
 129              	.LVL4:
 130              		.loc 1 35 5 is_stmt 1
  36:src/syscall_c.cpp **** }
 131              		.loc 1 36 1 is_stmt 0
 132              	#NO_APP
 133 0070 03348100 		ld	s0,8(sp)
 134              		.cfi_restore 8
 135              		.cfi_def_cfa 2, 16
 136 0074 13010101 		addi	sp,sp,16
 137              		.cfi_def_cfa_offset 0
 138 0078 67800000 		jr	ra
 139              		.cfi_endproc
 140              	.LFE19:
GAS LISTING /tmp/ccUBLLWS.s 			page 4


 142              		.align	2
 143              		.globl	_Z26mem_get_largest_free_blockv
 145              	_Z26mem_get_largest_free_blockv:
 146              	.LFB20:
  37:src/syscall_c.cpp **** 
  38:src/syscall_c.cpp **** size_t mem_get_largest_free_block(){
 147              		.loc 1 38 36 is_stmt 1
 148              		.cfi_startproc
 149 007c 130101FF 		addi	sp,sp,-16
 150              		.cfi_def_cfa_offset 16
 151 0080 23348100 		sd	s0,8(sp)
 152              		.cfi_offset 8, -8
 153 0084 13040101 		addi	s0,sp,16
 154              		.cfi_def_cfa 8, 0
  39:src/syscall_c.cpp ****     WRITE_REG("a7", Num::SCALL_MEM_GET_LARGEST_FREE_BLOCK);
 155              		.loc 1 39 5
 156              		.loc 1 39 59 is_stmt 0
 157 0088 93074000 		li	a5,4
 158              	#APP
 159              	# 39 "src/syscall_c.cpp" 1
  40              	
  41:src/syscall_c.cpp ****     __asm__ volatile("ecall");
 160              		mv a7, a5
 161              	# 0 "" 2
 162              		.loc 1 41 5 is_stmt 1
 163              		.loc 1 41 30 is_stmt 0
 164              	# 41 "src/syscall_c.cpp" 1
  42              	
  43:src/syscall_c.cpp ****     size_t ret;
 165              		ecall
 166              	# 0 "" 2
 167              		.loc 1 43 5 is_stmt 1
  44:src/syscall_c.cpp ****     READ_REG(ret, "a0");
 168              		.loc 1 44 5
 169              		.loc 1 44 24 is_stmt 0
 170              	# 44 "src/syscall_c.cpp" 1
  45              	    return ret;
 171              		mv a0, a0
 172              	# 0 "" 2
 173              	.LVL5:
 174              		.loc 1 45 5 is_stmt 1
  46:src/syscall_c.cpp **** }
 175              		.loc 1 46 1 is_stmt 0
 176              	#NO_APP
 177 0098 03348100 		ld	s0,8(sp)
 178              		.cfi_restore 8
 179              		.cfi_def_cfa 2, 16
 180 009c 13010101 		addi	sp,sp,16
 181              		.cfi_def_cfa_offset 0
 182 00a0 67800000 		jr	ra
 183              		.cfi_endproc
 184              	.LFE20:
 186              		.align	2
 187              		.globl	_Z13thread_createPP7_threadPFvPvES2_
 189              	_Z13thread_createPP7_threadPFvPvES2_:
 190              	.LFB21:
  47:src/syscall_c.cpp **** 
GAS LISTING /tmp/ccUBLLWS.s 			page 5


  48:src/syscall_c.cpp **** int thread_create(thread_t* handle, void(*start_routine)(void*), void* arg){
 191              		.loc 1 48 76 is_stmt 1
 192              		.cfi_startproc
 193              	.LVL6:
 194 00a4 130101FF 		addi	sp,sp,-16
 195              		.cfi_def_cfa_offset 16
 196 00a8 23348100 		sd	s0,8(sp)
 197              		.cfi_offset 8, -8
 198 00ac 13040101 		addi	s0,sp,16
 199              		.cfi_def_cfa 8, 0
  49:src/syscall_c.cpp ****     WRITE_REG("a7", Num::SCALL_THREAD_CREATE);
 200              		.loc 1 49 5
 201              		.loc 1 49 46 is_stmt 0
 202 00b0 93071001 		li	a5,17
 203              	#APP
 204              	# 49 "src/syscall_c.cpp" 1
  50              	
  51:src/syscall_c.cpp ****     __asm__ volatile("ecall");
 205              		mv a7, a5
 206              	# 0 "" 2
 207              		.loc 1 51 5 is_stmt 1
 208              		.loc 1 51 30 is_stmt 0
 209              	# 51 "src/syscall_c.cpp" 1
  52              	
  53:src/syscall_c.cpp ****     int ret;
 210              		ecall
 211              	# 0 "" 2
 212              		.loc 1 53 5 is_stmt 1
  54:src/syscall_c.cpp ****     READ_REG(ret, "a0");
 213              		.loc 1 54 5
 214              		.loc 1 54 24 is_stmt 0
 215              	# 54 "src/syscall_c.cpp" 1
  55              	    return ret;
 216              		mv a0, a0
 217              	# 0 "" 2
 218              	.LVL7:
 219              		.loc 1 55 5 is_stmt 1
  56:src/syscall_c.cpp **** }
 220              		.loc 1 56 1 is_stmt 0
 221              	#NO_APP
 222 00c0 1B050500 		sext.w	a0,a0
 223 00c4 03348100 		ld	s0,8(sp)
 224              		.cfi_restore 8
 225              		.cfi_def_cfa 2, 16
 226 00c8 13010101 		addi	sp,sp,16
 227              		.cfi_def_cfa_offset 0
 228 00cc 67800000 		jr	ra
 229              		.cfi_endproc
 230              	.LFE21:
 232              		.align	2
 233              		.globl	_Z11thread_exitv
 235              	_Z11thread_exitv:
 236              	.LFB22:
  57:src/syscall_c.cpp **** 
  58:src/syscall_c.cpp **** int thread_exit(){
 237              		.loc 1 58 18 is_stmt 1
 238              		.cfi_startproc
GAS LISTING /tmp/ccUBLLWS.s 			page 6


 239 00d0 130101FF 		addi	sp,sp,-16
 240              		.cfi_def_cfa_offset 16
 241 00d4 23348100 		sd	s0,8(sp)
 242              		.cfi_offset 8, -8
 243 00d8 13040101 		addi	s0,sp,16
 244              		.cfi_def_cfa 8, 0
  59:src/syscall_c.cpp ****     WRITE_REG("a7", Num::SCALL_THREAD_EXIT);
 245              		.loc 1 59 5
 246              		.loc 1 59 44 is_stmt 0
 247 00dc 93072001 		li	a5,18
 248              	#APP
 249              	# 59 "src/syscall_c.cpp" 1
  60              	
  61:src/syscall_c.cpp ****     __asm__ volatile("ecall");
 250              		mv a7, a5
 251              	# 0 "" 2
 252              		.loc 1 61 5 is_stmt 1
 253              		.loc 1 61 30 is_stmt 0
 254              	# 61 "src/syscall_c.cpp" 1
  62              	
  63:src/syscall_c.cpp ****     int ret;
 255              		ecall
 256              	# 0 "" 2
 257              		.loc 1 63 5 is_stmt 1
  64:src/syscall_c.cpp ****     READ_REG(ret, "a0");
 258              		.loc 1 64 5
 259              		.loc 1 64 24 is_stmt 0
 260              	# 64 "src/syscall_c.cpp" 1
  65              	    return ret;
 261              		mv a0, a0
 262              	# 0 "" 2
 263              	.LVL8:
 264              		.loc 1 65 5 is_stmt 1
  66:src/syscall_c.cpp **** }
 265              		.loc 1 66 1 is_stmt 0
 266              	#NO_APP
 267 00ec 1B050500 		sext.w	a0,a0
 268 00f0 03348100 		ld	s0,8(sp)
 269              		.cfi_restore 8
 270              		.cfi_def_cfa 2, 16
 271 00f4 13010101 		addi	sp,sp,16
 272              		.cfi_def_cfa_offset 0
 273 00f8 67800000 		jr	ra
 274              		.cfi_endproc
 275              	.LFE22:
 277              		.align	2
 278              		.globl	_Z15thread_dispatchv
 280              	_Z15thread_dispatchv:
 281              	.LFB23:
  67:src/syscall_c.cpp **** 
  68:src/syscall_c.cpp **** void thread_dispatch(){
 282              		.loc 1 68 23 is_stmt 1
 283              		.cfi_startproc
 284 00fc 130101FF 		addi	sp,sp,-16
 285              		.cfi_def_cfa_offset 16
 286 0100 23348100 		sd	s0,8(sp)
 287              		.cfi_offset 8, -8
GAS LISTING /tmp/ccUBLLWS.s 			page 7


 288 0104 13040101 		addi	s0,sp,16
 289              		.cfi_def_cfa 8, 0
  69:src/syscall_c.cpp ****     WRITE_REG("a7", Num::SCALL_THREAD_DISPATCH);
 290              		.loc 1 69 5
 291              		.loc 1 69 48 is_stmt 0
 292 0108 93073001 		li	a5,19
 293              	#APP
 294              	# 69 "src/syscall_c.cpp" 1
  70              	
  71:src/syscall_c.cpp ****     __asm__ volatile("ecall");
 295              		mv a7, a5
 296              	# 0 "" 2
 297              		.loc 1 71 5 is_stmt 1
 298              		.loc 1 71 30 is_stmt 0
 299              	# 71 "src/syscall_c.cpp" 1
  72              	}
 300              		ecall
 301              	# 0 "" 2
 302              		.loc 1 72 1
 303              	#NO_APP
 304 0114 03348100 		ld	s0,8(sp)
 305              		.cfi_restore 8
 306              		.cfi_def_cfa 2, 16
 307 0118 13010101 		addi	sp,sp,16
 308              		.cfi_def_cfa_offset 0
 309 011c 67800000 		jr	ra
 310              		.cfi_endproc
 311              	.LFE23:
 313              		.align	2
 314              		.globl	_Z8sem_openPP4_semj
 316              	_Z8sem_openPP4_semj:
 317              	.LFB24:
  73:src/syscall_c.cpp **** 
  74:src/syscall_c.cpp **** 
  75:src/syscall_c.cpp **** int sem_open(sem_t* handle, unsigned init){
 318              		.loc 1 75 43 is_stmt 1
 319              		.cfi_startproc
 320              	.LVL9:
 321 0120 130101FF 		addi	sp,sp,-16
 322              		.cfi_def_cfa_offset 16
 323 0124 23348100 		sd	s0,8(sp)
 324              		.cfi_offset 8, -8
 325 0128 13040101 		addi	s0,sp,16
 326              		.cfi_def_cfa 8, 0
  76:src/syscall_c.cpp ****     WRITE_REG("a7", Num::SCALL_SEM_OPEN);
 327              		.loc 1 76 5
 328              		.loc 1 76 41 is_stmt 0
 329 012c 93071002 		li	a5,33
 330              	#APP
 331              	# 76 "src/syscall_c.cpp" 1
  77              	
  78:src/syscall_c.cpp ****     __asm__ volatile("ecall");
 332              		mv a7, a5
 333              	# 0 "" 2
 334              		.loc 1 78 5 is_stmt 1
 335              		.loc 1 78 30 is_stmt 0
 336              	# 78 "src/syscall_c.cpp" 1
GAS LISTING /tmp/ccUBLLWS.s 			page 8


  79              	
  80:src/syscall_c.cpp ****     int ret;
 337              		ecall
 338              	# 0 "" 2
 339              		.loc 1 80 5 is_stmt 1
  81:src/syscall_c.cpp ****     READ_REG(ret, "a0");
 340              		.loc 1 81 5
 341              		.loc 1 81 24 is_stmt 0
 342              	# 81 "src/syscall_c.cpp" 1
  82              	    return ret;
 343              		mv a0, a0
 344              	# 0 "" 2
 345              	.LVL10:
 346              		.loc 1 82 5 is_stmt 1
  83:src/syscall_c.cpp **** }
 347              		.loc 1 83 1 is_stmt 0
 348              	#NO_APP
 349 013c 1B050500 		sext.w	a0,a0
 350 0140 03348100 		ld	s0,8(sp)
 351              		.cfi_restore 8
 352              		.cfi_def_cfa 2, 16
 353 0144 13010101 		addi	sp,sp,16
 354              		.cfi_def_cfa_offset 0
 355 0148 67800000 		jr	ra
 356              		.cfi_endproc
 357              	.LFE24:
 359              		.align	2
 360              		.globl	_Z9sem_closeP4_sem
 362              	_Z9sem_closeP4_sem:
 363              	.LFB25:
  84:src/syscall_c.cpp **** 
  85:src/syscall_c.cpp **** int sem_close(sem_t handle) {
 364              		.loc 1 85 29 is_stmt 1
 365              		.cfi_startproc
 366              	.LVL11:
 367 014c 130101FF 		addi	sp,sp,-16
 368              		.cfi_def_cfa_offset 16
 369 0150 23348100 		sd	s0,8(sp)
 370              		.cfi_offset 8, -8
 371 0154 13040101 		addi	s0,sp,16
 372              		.cfi_def_cfa 8, 0
  86:src/syscall_c.cpp ****     WRITE_REG("a7", Num::SCALL_SEM_CLOSE);
 373              		.loc 1 86 5
 374              		.loc 1 86 42 is_stmt 0
 375 0158 93072002 		li	a5,34
 376              	#APP
 377              	# 86 "src/syscall_c.cpp" 1
  87              	
  88:src/syscall_c.cpp ****     __asm__ volatile("ecall");
 378              		mv a7, a5
 379              	# 0 "" 2
 380              		.loc 1 88 5 is_stmt 1
 381              		.loc 1 88 30 is_stmt 0
 382              	# 88 "src/syscall_c.cpp" 1
  89              	
  90:src/syscall_c.cpp ****     int ret;
 383              		ecall
GAS LISTING /tmp/ccUBLLWS.s 			page 9


 384              	# 0 "" 2
 385              		.loc 1 90 5 is_stmt 1
  91:src/syscall_c.cpp ****     READ_REG(ret, "a0");
 386              		.loc 1 91 5
 387              		.loc 1 91 24 is_stmt 0
 388              	# 91 "src/syscall_c.cpp" 1
  92              	    return ret;
 389              		mv a0, a0
 390              	# 0 "" 2
 391              	.LVL12:
 392              		.loc 1 92 5 is_stmt 1
  93:src/syscall_c.cpp **** }
 393              		.loc 1 93 1 is_stmt 0
 394              	#NO_APP
 395 0168 1B050500 		sext.w	a0,a0
 396 016c 03348100 		ld	s0,8(sp)
 397              		.cfi_restore 8
 398              		.cfi_def_cfa 2, 16
 399 0170 13010101 		addi	sp,sp,16
 400              		.cfi_def_cfa_offset 0
 401 0174 67800000 		jr	ra
 402              		.cfi_endproc
 403              	.LFE25:
 405              		.align	2
 406              		.globl	_Z8sem_waitP4_sem
 408              	_Z8sem_waitP4_sem:
 409              	.LFB26:
  94:src/syscall_c.cpp **** 
  95:src/syscall_c.cpp **** int sem_wait(sem_t id){
 410              		.loc 1 95 23 is_stmt 1
 411              		.cfi_startproc
 412              	.LVL13:
 413 0178 130101FF 		addi	sp,sp,-16
 414              		.cfi_def_cfa_offset 16
 415 017c 23348100 		sd	s0,8(sp)
 416              		.cfi_offset 8, -8
 417 0180 13040101 		addi	s0,sp,16
 418              		.cfi_def_cfa 8, 0
  96:src/syscall_c.cpp ****     WRITE_REG("a7", Num::SCALL_SEM_WAIT);
 419              		.loc 1 96 5
 420              		.loc 1 96 41 is_stmt 0
 421 0184 93073002 		li	a5,35
 422              	#APP
 423              	# 96 "src/syscall_c.cpp" 1
  97              	
  98:src/syscall_c.cpp ****     __asm__ volatile("ecall");
 424              		mv a7, a5
 425              	# 0 "" 2
 426              		.loc 1 98 5 is_stmt 1
 427              		.loc 1 98 30 is_stmt 0
 428              	# 98 "src/syscall_c.cpp" 1
  99              	
 100:src/syscall_c.cpp ****     int ret;
 429              		ecall
 430              	# 0 "" 2
 431              		.loc 1 100 5 is_stmt 1
 101:src/syscall_c.cpp ****     READ_REG(ret, "a0");
GAS LISTING /tmp/ccUBLLWS.s 			page 10


 432              		.loc 1 101 5
 433              		.loc 1 101 24 is_stmt 0
 434              	# 101 "src/syscall_c.cpp" 1
 102              	    return ret;
 435              		mv a0, a0
 436              	# 0 "" 2
 437              	.LVL14:
 438              		.loc 1 102 5 is_stmt 1
 103:src/syscall_c.cpp **** }
 439              		.loc 1 103 1 is_stmt 0
 440              	#NO_APP
 441 0194 1B050500 		sext.w	a0,a0
 442 0198 03348100 		ld	s0,8(sp)
 443              		.cfi_restore 8
 444              		.cfi_def_cfa 2, 16
 445 019c 13010101 		addi	sp,sp,16
 446              		.cfi_def_cfa_offset 0
 447 01a0 67800000 		jr	ra
 448              		.cfi_endproc
 449              	.LFE26:
 451              		.align	2
 452              		.globl	_Z10sem_signalP4_sem
 454              	_Z10sem_signalP4_sem:
 455              	.LFB27:
 104:src/syscall_c.cpp **** 
 105:src/syscall_c.cpp **** int sem_signal(sem_t id){
 456              		.loc 1 105 25 is_stmt 1
 457              		.cfi_startproc
 458              	.LVL15:
 459 01a4 130101FF 		addi	sp,sp,-16
 460              		.cfi_def_cfa_offset 16
 461 01a8 23348100 		sd	s0,8(sp)
 462              		.cfi_offset 8, -8
 463 01ac 13040101 		addi	s0,sp,16
 464              		.cfi_def_cfa 8, 0
 106:src/syscall_c.cpp ****     WRITE_REG("a7", Num::SCALL_SEM_SIGNAL);
 465              		.loc 1 106 5
 466              		.loc 1 106 43 is_stmt 0
 467 01b0 93074002 		li	a5,36
 468              	#APP
 469              	# 106 "src/syscall_c.cpp" 1
 107              	
 108:src/syscall_c.cpp ****     __asm__ volatile("ecall");
 470              		mv a7, a5
 471              	# 0 "" 2
 472              		.loc 1 108 5 is_stmt 1
 473              		.loc 1 108 30 is_stmt 0
 474              	# 108 "src/syscall_c.cpp" 1
 109              	
 110:src/syscall_c.cpp ****     int ret;
 475              		ecall
 476              	# 0 "" 2
 477              		.loc 1 110 5 is_stmt 1
 111:src/syscall_c.cpp ****     READ_REG(ret, "a0");
 478              		.loc 1 111 5
 479              		.loc 1 111 24 is_stmt 0
 480              	# 111 "src/syscall_c.cpp" 1
GAS LISTING /tmp/ccUBLLWS.s 			page 11


 112              	    return ret;
 481              		mv a0, a0
 482              	# 0 "" 2
 483              	.LVL16:
 484              		.loc 1 112 5 is_stmt 1
 113:src/syscall_c.cpp **** }
 485              		.loc 1 113 1 is_stmt 0
 486              	#NO_APP
 487 01c0 1B050500 		sext.w	a0,a0
 488 01c4 03348100 		ld	s0,8(sp)
 489              		.cfi_restore 8
 490              		.cfi_def_cfa 2, 16
 491 01c8 13010101 		addi	sp,sp,16
 492              		.cfi_def_cfa_offset 0
 493 01cc 67800000 		jr	ra
 494              		.cfi_endproc
 495              	.LFE27:
 497              		.align	2
 498              		.globl	_Z4getcv
 500              	_Z4getcv:
 501              	.LFB28:
 114:src/syscall_c.cpp **** 
 115:src/syscall_c.cpp **** char getc(){
 502              		.loc 1 115 12 is_stmt 1
 503              		.cfi_startproc
 504 01d0 130101FF 		addi	sp,sp,-16
 505              		.cfi_def_cfa_offset 16
 506 01d4 23348100 		sd	s0,8(sp)
 507              		.cfi_offset 8, -8
 508 01d8 13040101 		addi	s0,sp,16
 509              		.cfi_def_cfa 8, 0
 116:src/syscall_c.cpp ****     WRITE_REG("a7", Num::SCALL_GETC);
 510              		.loc 1 116 5
 511              		.loc 1 116 37 is_stmt 0
 512 01dc 93071004 		li	a5,65
 513              	#APP
 514              	# 116 "src/syscall_c.cpp" 1
 117              	
 118:src/syscall_c.cpp ****     __asm__ volatile("ecall");
 515              		mv a7, a5
 516              	# 0 "" 2
 517              		.loc 1 118 5 is_stmt 1
 518              		.loc 1 118 30 is_stmt 0
 519              	# 118 "src/syscall_c.cpp" 1
 119              	
 120:src/syscall_c.cpp ****     char ret;
 520              		ecall
 521              	# 0 "" 2
 522              		.loc 1 120 5 is_stmt 1
 121:src/syscall_c.cpp ****     READ_REG(ret, "a0");
 523              		.loc 1 121 5
 524              		.loc 1 121 24 is_stmt 0
 525              	# 121 "src/syscall_c.cpp" 1
 122              	    return ret;
 526              		mv a0, a0
 527              	# 0 "" 2
 528              	.LVL17:
GAS LISTING /tmp/ccUBLLWS.s 			page 12


 529              		.loc 1 122 5 is_stmt 1
 123:src/syscall_c.cpp **** }
 530              		.loc 1 123 1 is_stmt 0
 531              	#NO_APP
 532 01ec 1375F50F 		andi	a0,a0,0xff
 533 01f0 03348100 		ld	s0,8(sp)
 534              		.cfi_restore 8
 535              		.cfi_def_cfa 2, 16
 536 01f4 13010101 		addi	sp,sp,16
 537              		.cfi_def_cfa_offset 0
 538 01f8 67800000 		jr	ra
 539              		.cfi_endproc
 540              	.LFE28:
 542              		.align	2
 543              		.globl	_Z4putcc
 545              	_Z4putcc:
 546              	.LFB29:
 124:src/syscall_c.cpp **** 
 125:src/syscall_c.cpp **** void putc(char c){
 547              		.loc 1 125 18 is_stmt 1
 548              		.cfi_startproc
 549              	.LVL18:
 550 01fc 130101FF 		addi	sp,sp,-16
 551              		.cfi_def_cfa_offset 16
 552 0200 23348100 		sd	s0,8(sp)
 553              		.cfi_offset 8, -8
 554 0204 13040101 		addi	s0,sp,16
 555              		.cfi_def_cfa 8, 0
 126:src/syscall_c.cpp **** 
 127:src/syscall_c.cpp ****     WRITE_REG("a7", Num::SCALL_PUTC);
 556              		.loc 1 127 5
 557              		.loc 1 127 37 is_stmt 0
 558 0208 93072004 		li	a5,66
 559              	#APP
 560              	# 127 "src/syscall_c.cpp" 1
 128              	
 129:src/syscall_c.cpp ****     __asm__ volatile("ecall");
 561              		mv a7, a5
 562              	# 0 "" 2
 563              		.loc 1 129 5 is_stmt 1
 564              		.loc 1 129 30 is_stmt 0
 565              	# 129 "src/syscall_c.cpp" 1
 130              	
 131:src/syscall_c.cpp **** 
 132:src/syscall_c.cpp **** }
 566              		ecall
 567              	# 0 "" 2
 568              		.loc 1 132 1
 569              	#NO_APP
 570 0214 03348100 		ld	s0,8(sp)
 571              		.cfi_restore 8
 572              		.cfi_def_cfa 2, 16
 573 0218 13010101 		addi	sp,sp,16
 574              		.cfi_def_cfa_offset 0
 575 021c 67800000 		jr	ra
 576              		.cfi_endproc
 577              	.LFE29:
GAS LISTING /tmp/ccUBLLWS.s 			page 13


 579              		.align	2
 580              		.globl	_Z11thread_joinPP7_thread
 582              	_Z11thread_joinPP7_thread:
 583              	.LFB30:
 133:src/syscall_c.cpp **** 
 134:src/syscall_c.cpp **** void thread_join(thread_t* handle) {
 584              		.loc 1 134 36 is_stmt 1
 585              		.cfi_startproc
 586              	.LVL19:
 587 0220 130101FF 		addi	sp,sp,-16
 588              		.cfi_def_cfa_offset 16
 589 0224 23348100 		sd	s0,8(sp)
 590              		.cfi_offset 8, -8
 591 0228 13040101 		addi	s0,sp,16
 592              		.cfi_def_cfa 8, 0
 135:src/syscall_c.cpp ****     WRITE_REG("a7", Num::SCALL_THREAD_JOIN);
 593              		.loc 1 135 5
 594              		.loc 1 135 44 is_stmt 0
 595 022c 93074001 		li	a5,20
 596              	#APP
 597              	# 135 "src/syscall_c.cpp" 1
 136              	
 137:src/syscall_c.cpp ****     __asm__ volatile("ecall");
 598              		mv a7, a5
 599              	# 0 "" 2
 600              		.loc 1 137 5 is_stmt 1
 601              		.loc 1 137 30 is_stmt 0
 602              	# 137 "src/syscall_c.cpp" 1
 138              	}
 603              		ecall
 604              	# 0 "" 2
 605              		.loc 1 138 1
 606              	#NO_APP
 607 0238 03348100 		ld	s0,8(sp)
 608              		.cfi_restore 8
 609              		.cfi_def_cfa 2, 16
 610 023c 13010101 		addi	sp,sp,16
 611              		.cfi_def_cfa_offset 0
 612 0240 67800000 		jr	ra
 613              		.cfi_endproc
 614              	.LFE30:
 616              		.align	2
 617              		.globl	_Z11getThreadIdv
 619              	_Z11getThreadIdv:
 620              	.LFB31:
 139:src/syscall_c.cpp **** 
 140:src/syscall_c.cpp **** int getThreadId() {
 621              		.loc 1 140 19 is_stmt 1
 622              		.cfi_startproc
 623 0244 130101FF 		addi	sp,sp,-16
 624              		.cfi_def_cfa_offset 16
 625 0248 23348100 		sd	s0,8(sp)
 626              		.cfi_offset 8, -8
 627 024c 13040101 		addi	s0,sp,16
 628              		.cfi_def_cfa 8, 0
 141:src/syscall_c.cpp ****     WRITE_REG("a7", Num::SCALL_GET_ID);
 629              		.loc 1 141 5
GAS LISTING /tmp/ccUBLLWS.s 			page 14


 630              		.loc 1 141 39 is_stmt 0
 631 0250 93075001 		li	a5,21
 632              	#APP
 633              	# 141 "src/syscall_c.cpp" 1
 142              	
 143:src/syscall_c.cpp ****     __asm__ volatile("ecall");
 634              		mv a7, a5
 635              	# 0 "" 2
 636              		.loc 1 143 5 is_stmt 1
 637              		.loc 1 143 30 is_stmt 0
 638              	# 143 "src/syscall_c.cpp" 1
 144              	
 145:src/syscall_c.cpp ****     int ret;
 639              		ecall
 640              	# 0 "" 2
 641              		.loc 1 145 5 is_stmt 1
 146:src/syscall_c.cpp ****     READ_REG(ret, "a0");
 642              		.loc 1 146 5
 643              		.loc 1 146 24 is_stmt 0
 644              	# 146 "src/syscall_c.cpp" 1
 147              	    return ret;
 645              		mv a0, a0
 646              	# 0 "" 2
 647              	.LVL20:
 648              		.loc 1 147 5 is_stmt 1
 148:src/syscall_c.cpp **** }
 649              		.loc 1 148 1 is_stmt 0
 650              	#NO_APP
 651 0260 1B050500 		sext.w	a0,a0
 652 0264 03348100 		ld	s0,8(sp)
 653              		.cfi_restore 8
 654              		.cfi_def_cfa 2, 16
 655 0268 13010101 		addi	sp,sp,16
 656              		.cfi_def_cfa_offset 0
 657 026c 67800000 		jr	ra
 658              		.cfi_endproc
 659              	.LFE31:
 661              		.align	2
 662              		.globl	_Z14thread_joinAllv
 664              	_Z14thread_joinAllv:
 665              	.LFB32:
 149:src/syscall_c.cpp **** void thread_joinAll(){
 666              		.loc 1 149 22 is_stmt 1
 667              		.cfi_startproc
 668 0270 130101FF 		addi	sp,sp,-16
 669              		.cfi_def_cfa_offset 16
 670 0274 23348100 		sd	s0,8(sp)
 671              		.cfi_offset 8, -8
 672 0278 13040101 		addi	s0,sp,16
 673              		.cfi_def_cfa 8, 0
 150:src/syscall_c.cpp ****     WRITE_REG("a7", Num::SCALL_JOIN_ALL);
 674              		.loc 1 150 5
 675              		.loc 1 150 41 is_stmt 0
 676 027c 93076001 		li	a5,22
 677              	#APP
 678              	# 150 "src/syscall_c.cpp" 1
 151              	
GAS LISTING /tmp/ccUBLLWS.s 			page 15


 152:src/syscall_c.cpp ****     __asm__ volatile("ecall");
 679              		mv a7, a5
 680              	# 0 "" 2
 681              		.loc 1 152 5 is_stmt 1
 682              		.loc 1 152 30 is_stmt 0
 683              	# 152 "src/syscall_c.cpp" 1
 153              	
 154:src/syscall_c.cpp **** }...
 684              		ecall
 685              	# 0 "" 2
 686              		.loc 1 154 1
 687              	#NO_APP
 688 0288 03348100 		ld	s0,8(sp)
 689              		.cfi_restore 8
 690              		.cfi_def_cfa 2, 16
 691 028c 13010101 		addi	sp,sp,16
 692              		.cfi_def_cfa_offset 0
 693 0290 67800000 		jr	ra
 694              		.cfi_endproc
 695              	.LFE32:
 697              	.Letext0:
 698              		.file 2 "src/../h/../lib/hw.h"
 699              		.file 3 "src/../h/syscall_c.hpp"
 700              		.file 4 "src/../h/riscv.hpp"
GAS LISTING /tmp/ccUBLLWS.s 			page 16


DEFINED SYMBOLS
                            *ABS*:0000000000000000 syscall_c.cpp
     /tmp/ccUBLLWS.s:9      .text:0000000000000000 _Z9mem_allocm
     /tmp/ccUBLLWS.s:13     .text:0000000000000000 .L0 
     /tmp/ccUBLLWS.s:15     .text:0000000000000000 .L0 
     /tmp/ccUBLLWS.s:16     .text:0000000000000004 .L0 
     /tmp/ccUBLLWS.s:18     .text:0000000000000008 .L0 
     /tmp/ccUBLLWS.s:20     .text:000000000000000c .L0 
     /tmp/ccUBLLWS.s:22     .text:000000000000000c .L0 
     /tmp/ccUBLLWS.s:23     .text:000000000000000c .L0 
     /tmp/ccUBLLWS.s:29     .text:0000000000000014 .L0 
   src/syscall_c.cpp:11     .text:0000000000000014 .L0 
     /tmp/ccUBLLWS.s:34     .text:0000000000000018 .L0 
     /tmp/ccUBLLWS.s:35     .text:0000000000000018 .L0 
   src/syscall_c.cpp:14     .text:0000000000000018 .L0 
     /tmp/ccUBLLWS.s:41     .text:000000000000001c .L0 
     /tmp/ccUBLLWS.s:43     .text:000000000000001c .L0 
     /tmp/ccUBLLWS.s:44     .text:0000000000000020 .L0 
     /tmp/ccUBLLWS.s:45     .text:0000000000000020 .L0 
     /tmp/ccUBLLWS.s:47     .text:0000000000000024 .L0 
     /tmp/ccUBLLWS.s:49     .text:0000000000000028 .L0 
     /tmp/ccUBLLWS.s:55     .text:0000000000000028 _Z8mem_freePv
     /tmp/ccUBLLWS.s:58     .text:0000000000000028 .L0 
     /tmp/ccUBLLWS.s:60     .text:0000000000000028 .L0 
     /tmp/ccUBLLWS.s:61     .text:000000000000002c .L0 
     /tmp/ccUBLLWS.s:63     .text:0000000000000030 .L0 
     /tmp/ccUBLLWS.s:65     .text:0000000000000034 .L0 
     /tmp/ccUBLLWS.s:67     .text:0000000000000034 .L0 
     /tmp/ccUBLLWS.s:68     .text:0000000000000034 .L0 
     /tmp/ccUBLLWS.s:74     .text:000000000000003c .L0 
   src/syscall_c.cpp:21     .text:000000000000003c .L0 
     /tmp/ccUBLLWS.s:79     .text:0000000000000040 .L0 
     /tmp/ccUBLLWS.s:80     .text:0000000000000040 .L0 
   src/syscall_c.cpp:24     .text:0000000000000040 .L0 
     /tmp/ccUBLLWS.s:86     .text:0000000000000044 .L0 
     /tmp/ccUBLLWS.s:88     .text:0000000000000044 .L0 
     /tmp/ccUBLLWS.s:90     .text:000000000000004c .L0 
     /tmp/ccUBLLWS.s:91     .text:000000000000004c .L0 
     /tmp/ccUBLLWS.s:93     .text:0000000000000050 .L0 
     /tmp/ccUBLLWS.s:95     .text:0000000000000054 .L0 
     /tmp/ccUBLLWS.s:101    .text:0000000000000054 _Z18mem_get_free_spacev
     /tmp/ccUBLLWS.s:104    .text:0000000000000054 .L0 
     /tmp/ccUBLLWS.s:105    .text:0000000000000054 .L0 
     /tmp/ccUBLLWS.s:106    .text:0000000000000058 .L0 
     /tmp/ccUBLLWS.s:108    .text:000000000000005c .L0 
     /tmp/ccUBLLWS.s:110    .text:0000000000000060 .L0 
     /tmp/ccUBLLWS.s:112    .text:0000000000000060 .L0 
     /tmp/ccUBLLWS.s:113    .text:0000000000000060 .L0 
     /tmp/ccUBLLWS.s:119    .text:0000000000000068 .L0 
   src/syscall_c.cpp:31     .text:0000000000000068 .L0 
     /tmp/ccUBLLWS.s:124    .text:000000000000006c .L0 
     /tmp/ccUBLLWS.s:125    .text:000000000000006c .L0 
   src/syscall_c.cpp:34     .text:000000000000006c .L0 
     /tmp/ccUBLLWS.s:131    .text:0000000000000070 .L0 
     /tmp/ccUBLLWS.s:133    .text:0000000000000070 .L0 
     /tmp/ccUBLLWS.s:134    .text:0000000000000074 .L0 
     /tmp/ccUBLLWS.s:135    .text:0000000000000074 .L0 
GAS LISTING /tmp/ccUBLLWS.s 			page 17


     /tmp/ccUBLLWS.s:137    .text:0000000000000078 .L0 
     /tmp/ccUBLLWS.s:139    .text:000000000000007c .L0 
     /tmp/ccUBLLWS.s:145    .text:000000000000007c _Z26mem_get_largest_free_blockv
     /tmp/ccUBLLWS.s:148    .text:000000000000007c .L0 
     /tmp/ccUBLLWS.s:149    .text:000000000000007c .L0 
     /tmp/ccUBLLWS.s:150    .text:0000000000000080 .L0 
     /tmp/ccUBLLWS.s:152    .text:0000000000000084 .L0 
     /tmp/ccUBLLWS.s:154    .text:0000000000000088 .L0 
     /tmp/ccUBLLWS.s:156    .text:0000000000000088 .L0 
     /tmp/ccUBLLWS.s:157    .text:0000000000000088 .L0 
     /tmp/ccUBLLWS.s:163    .text:0000000000000090 .L0 
   src/syscall_c.cpp:41     .text:0000000000000090 .L0 
     /tmp/ccUBLLWS.s:168    .text:0000000000000094 .L0 
     /tmp/ccUBLLWS.s:169    .text:0000000000000094 .L0 
   src/syscall_c.cpp:44     .text:0000000000000094 .L0 
     /tmp/ccUBLLWS.s:175    .text:0000000000000098 .L0 
     /tmp/ccUBLLWS.s:177    .text:0000000000000098 .L0 
     /tmp/ccUBLLWS.s:178    .text:000000000000009c .L0 
     /tmp/ccUBLLWS.s:179    .text:000000000000009c .L0 
     /tmp/ccUBLLWS.s:181    .text:00000000000000a0 .L0 
     /tmp/ccUBLLWS.s:183    .text:00000000000000a4 .L0 
     /tmp/ccUBLLWS.s:189    .text:00000000000000a4 _Z13thread_createPP7_threadPFvPvES2_
     /tmp/ccUBLLWS.s:192    .text:00000000000000a4 .L0 
     /tmp/ccUBLLWS.s:194    .text:00000000000000a4 .L0 
     /tmp/ccUBLLWS.s:195    .text:00000000000000a8 .L0 
     /tmp/ccUBLLWS.s:197    .text:00000000000000ac .L0 
     /tmp/ccUBLLWS.s:199    .text:00000000000000b0 .L0 
     /tmp/ccUBLLWS.s:201    .text:00000000000000b0 .L0 
     /tmp/ccUBLLWS.s:202    .text:00000000000000b0 .L0 
     /tmp/ccUBLLWS.s:208    .text:00000000000000b8 .L0 
   src/syscall_c.cpp:51     .text:00000000000000b8 .L0 
     /tmp/ccUBLLWS.s:213    .text:00000000000000bc .L0 
     /tmp/ccUBLLWS.s:214    .text:00000000000000bc .L0 
   src/syscall_c.cpp:54     .text:00000000000000bc .L0 
     /tmp/ccUBLLWS.s:220    .text:00000000000000c0 .L0 
     /tmp/ccUBLLWS.s:222    .text:00000000000000c0 .L0 
     /tmp/ccUBLLWS.s:224    .text:00000000000000c8 .L0 
     /tmp/ccUBLLWS.s:225    .text:00000000000000c8 .L0 
     /tmp/ccUBLLWS.s:227    .text:00000000000000cc .L0 
     /tmp/ccUBLLWS.s:229    .text:00000000000000d0 .L0 
     /tmp/ccUBLLWS.s:235    .text:00000000000000d0 _Z11thread_exitv
     /tmp/ccUBLLWS.s:238    .text:00000000000000d0 .L0 
     /tmp/ccUBLLWS.s:239    .text:00000000000000d0 .L0 
     /tmp/ccUBLLWS.s:240    .text:00000000000000d4 .L0 
     /tmp/ccUBLLWS.s:242    .text:00000000000000d8 .L0 
     /tmp/ccUBLLWS.s:244    .text:00000000000000dc .L0 
     /tmp/ccUBLLWS.s:246    .text:00000000000000dc .L0 
     /tmp/ccUBLLWS.s:247    .text:00000000000000dc .L0 
     /tmp/ccUBLLWS.s:253    .text:00000000000000e4 .L0 
   src/syscall_c.cpp:61     .text:00000000000000e4 .L0 
     /tmp/ccUBLLWS.s:258    .text:00000000000000e8 .L0 
     /tmp/ccUBLLWS.s:259    .text:00000000000000e8 .L0 
   src/syscall_c.cpp:64     .text:00000000000000e8 .L0 
     /tmp/ccUBLLWS.s:265    .text:00000000000000ec .L0 
     /tmp/ccUBLLWS.s:267    .text:00000000000000ec .L0 
     /tmp/ccUBLLWS.s:269    .text:00000000000000f4 .L0 
     /tmp/ccUBLLWS.s:270    .text:00000000000000f4 .L0 
GAS LISTING /tmp/ccUBLLWS.s 			page 18


     /tmp/ccUBLLWS.s:272    .text:00000000000000f8 .L0 
     /tmp/ccUBLLWS.s:274    .text:00000000000000fc .L0 
     /tmp/ccUBLLWS.s:280    .text:00000000000000fc _Z15thread_dispatchv
     /tmp/ccUBLLWS.s:283    .text:00000000000000fc .L0 
     /tmp/ccUBLLWS.s:284    .text:00000000000000fc .L0 
     /tmp/ccUBLLWS.s:285    .text:0000000000000100 .L0 
     /tmp/ccUBLLWS.s:287    .text:0000000000000104 .L0 
     /tmp/ccUBLLWS.s:289    .text:0000000000000108 .L0 
     /tmp/ccUBLLWS.s:291    .text:0000000000000108 .L0 
     /tmp/ccUBLLWS.s:292    .text:0000000000000108 .L0 
     /tmp/ccUBLLWS.s:298    .text:0000000000000110 .L0 
   src/syscall_c.cpp:71     .text:0000000000000110 .L0 
     /tmp/ccUBLLWS.s:304    .text:0000000000000114 .L0 
     /tmp/ccUBLLWS.s:305    .text:0000000000000118 .L0 
     /tmp/ccUBLLWS.s:306    .text:0000000000000118 .L0 
     /tmp/ccUBLLWS.s:308    .text:000000000000011c .L0 
     /tmp/ccUBLLWS.s:310    .text:0000000000000120 .L0 
     /tmp/ccUBLLWS.s:316    .text:0000000000000120 _Z8sem_openPP4_semj
     /tmp/ccUBLLWS.s:319    .text:0000000000000120 .L0 
     /tmp/ccUBLLWS.s:321    .text:0000000000000120 .L0 
     /tmp/ccUBLLWS.s:322    .text:0000000000000124 .L0 
     /tmp/ccUBLLWS.s:324    .text:0000000000000128 .L0 
     /tmp/ccUBLLWS.s:326    .text:000000000000012c .L0 
     /tmp/ccUBLLWS.s:328    .text:000000000000012c .L0 
     /tmp/ccUBLLWS.s:329    .text:000000000000012c .L0 
     /tmp/ccUBLLWS.s:335    .text:0000000000000134 .L0 
   src/syscall_c.cpp:78     .text:0000000000000134 .L0 
     /tmp/ccUBLLWS.s:340    .text:0000000000000138 .L0 
     /tmp/ccUBLLWS.s:341    .text:0000000000000138 .L0 
   src/syscall_c.cpp:81     .text:0000000000000138 .L0 
     /tmp/ccUBLLWS.s:347    .text:000000000000013c .L0 
     /tmp/ccUBLLWS.s:349    .text:000000000000013c .L0 
     /tmp/ccUBLLWS.s:351    .text:0000000000000144 .L0 
     /tmp/ccUBLLWS.s:352    .text:0000000000000144 .L0 
     /tmp/ccUBLLWS.s:354    .text:0000000000000148 .L0 
     /tmp/ccUBLLWS.s:356    .text:000000000000014c .L0 
     /tmp/ccUBLLWS.s:362    .text:000000000000014c _Z9sem_closeP4_sem
     /tmp/ccUBLLWS.s:365    .text:000000000000014c .L0 
     /tmp/ccUBLLWS.s:367    .text:000000000000014c .L0 
     /tmp/ccUBLLWS.s:368    .text:0000000000000150 .L0 
     /tmp/ccUBLLWS.s:370    .text:0000000000000154 .L0 
     /tmp/ccUBLLWS.s:372    .text:0000000000000158 .L0 
     /tmp/ccUBLLWS.s:374    .text:0000000000000158 .L0 
     /tmp/ccUBLLWS.s:375    .text:0000000000000158 .L0 
     /tmp/ccUBLLWS.s:381    .text:0000000000000160 .L0 
   src/syscall_c.cpp:88     .text:0000000000000160 .L0 
     /tmp/ccUBLLWS.s:386    .text:0000000000000164 .L0 
     /tmp/ccUBLLWS.s:387    .text:0000000000000164 .L0 
   src/syscall_c.cpp:91     .text:0000000000000164 .L0 
     /tmp/ccUBLLWS.s:393    .text:0000000000000168 .L0 
     /tmp/ccUBLLWS.s:395    .text:0000000000000168 .L0 
     /tmp/ccUBLLWS.s:397    .text:0000000000000170 .L0 
     /tmp/ccUBLLWS.s:398    .text:0000000000000170 .L0 
     /tmp/ccUBLLWS.s:400    .text:0000000000000174 .L0 
     /tmp/ccUBLLWS.s:402    .text:0000000000000178 .L0 
     /tmp/ccUBLLWS.s:408    .text:0000000000000178 _Z8sem_waitP4_sem
     /tmp/ccUBLLWS.s:411    .text:0000000000000178 .L0 
GAS LISTING /tmp/ccUBLLWS.s 			page 19


     /tmp/ccUBLLWS.s:413    .text:0000000000000178 .L0 
     /tmp/ccUBLLWS.s:414    .text:000000000000017c .L0 
     /tmp/ccUBLLWS.s:416    .text:0000000000000180 .L0 
     /tmp/ccUBLLWS.s:418    .text:0000000000000184 .L0 
     /tmp/ccUBLLWS.s:420    .text:0000000000000184 .L0 
     /tmp/ccUBLLWS.s:421    .text:0000000000000184 .L0 
     /tmp/ccUBLLWS.s:427    .text:000000000000018c .L0 
   src/syscall_c.cpp:98     .text:000000000000018c .L0 
     /tmp/ccUBLLWS.s:432    .text:0000000000000190 .L0 
     /tmp/ccUBLLWS.s:433    .text:0000000000000190 .L0 
   src/syscall_c.cpp:101    .text:0000000000000190 .L0 
     /tmp/ccUBLLWS.s:439    .text:0000000000000194 .L0 
     /tmp/ccUBLLWS.s:441    .text:0000000000000194 .L0 
     /tmp/ccUBLLWS.s:443    .text:000000000000019c .L0 
     /tmp/ccUBLLWS.s:444    .text:000000000000019c .L0 
     /tmp/ccUBLLWS.s:446    .text:00000000000001a0 .L0 
     /tmp/ccUBLLWS.s:448    .text:00000000000001a4 .L0 
     /tmp/ccUBLLWS.s:454    .text:00000000000001a4 _Z10sem_signalP4_sem
     /tmp/ccUBLLWS.s:457    .text:00000000000001a4 .L0 
     /tmp/ccUBLLWS.s:459    .text:00000000000001a4 .L0 
     /tmp/ccUBLLWS.s:460    .text:00000000000001a8 .L0 
     /tmp/ccUBLLWS.s:462    .text:00000000000001ac .L0 
     /tmp/ccUBLLWS.s:464    .text:00000000000001b0 .L0 
     /tmp/ccUBLLWS.s:466    .text:00000000000001b0 .L0 
     /tmp/ccUBLLWS.s:467    .text:00000000000001b0 .L0 
     /tmp/ccUBLLWS.s:473    .text:00000000000001b8 .L0 
   src/syscall_c.cpp:108    .text:00000000000001b8 .L0 
     /tmp/ccUBLLWS.s:478    .text:00000000000001bc .L0 
     /tmp/ccUBLLWS.s:479    .text:00000000000001bc .L0 
   src/syscall_c.cpp:111    .text:00000000000001bc .L0 
     /tmp/ccUBLLWS.s:485    .text:00000000000001c0 .L0 
     /tmp/ccUBLLWS.s:487    .text:00000000000001c0 .L0 
     /tmp/ccUBLLWS.s:489    .text:00000000000001c8 .L0 
     /tmp/ccUBLLWS.s:490    .text:00000000000001c8 .L0 
     /tmp/ccUBLLWS.s:492    .text:00000000000001cc .L0 
     /tmp/ccUBLLWS.s:494    .text:00000000000001d0 .L0 
     /tmp/ccUBLLWS.s:500    .text:00000000000001d0 _Z4getcv
     /tmp/ccUBLLWS.s:503    .text:00000000000001d0 .L0 
     /tmp/ccUBLLWS.s:504    .text:00000000000001d0 .L0 
     /tmp/ccUBLLWS.s:505    .text:00000000000001d4 .L0 
     /tmp/ccUBLLWS.s:507    .text:00000000000001d8 .L0 
     /tmp/ccUBLLWS.s:509    .text:00000000000001dc .L0 
     /tmp/ccUBLLWS.s:511    .text:00000000000001dc .L0 
     /tmp/ccUBLLWS.s:512    .text:00000000000001dc .L0 
     /tmp/ccUBLLWS.s:518    .text:00000000000001e4 .L0 
   src/syscall_c.cpp:118    .text:00000000000001e4 .L0 
     /tmp/ccUBLLWS.s:523    .text:00000000000001e8 .L0 
     /tmp/ccUBLLWS.s:524    .text:00000000000001e8 .L0 
   src/syscall_c.cpp:121    .text:00000000000001e8 .L0 
     /tmp/ccUBLLWS.s:530    .text:00000000000001ec .L0 
     /tmp/ccUBLLWS.s:532    .text:00000000000001ec .L0 
     /tmp/ccUBLLWS.s:534    .text:00000000000001f4 .L0 
     /tmp/ccUBLLWS.s:535    .text:00000000000001f4 .L0 
     /tmp/ccUBLLWS.s:537    .text:00000000000001f8 .L0 
     /tmp/ccUBLLWS.s:539    .text:00000000000001fc .L0 
     /tmp/ccUBLLWS.s:545    .text:00000000000001fc _Z4putcc
     /tmp/ccUBLLWS.s:548    .text:00000000000001fc .L0 
GAS LISTING /tmp/ccUBLLWS.s 			page 20


     /tmp/ccUBLLWS.s:550    .text:00000000000001fc .L0 
     /tmp/ccUBLLWS.s:551    .text:0000000000000200 .L0 
     /tmp/ccUBLLWS.s:553    .text:0000000000000204 .L0 
     /tmp/ccUBLLWS.s:555    .text:0000000000000208 .L0 
     /tmp/ccUBLLWS.s:557    .text:0000000000000208 .L0 
     /tmp/ccUBLLWS.s:558    .text:0000000000000208 .L0 
     /tmp/ccUBLLWS.s:564    .text:0000000000000210 .L0 
   src/syscall_c.cpp:129    .text:0000000000000210 .L0 
     /tmp/ccUBLLWS.s:570    .text:0000000000000214 .L0 
     /tmp/ccUBLLWS.s:571    .text:0000000000000218 .L0 
     /tmp/ccUBLLWS.s:572    .text:0000000000000218 .L0 
     /tmp/ccUBLLWS.s:574    .text:000000000000021c .L0 
     /tmp/ccUBLLWS.s:576    .text:0000000000000220 .L0 
     /tmp/ccUBLLWS.s:582    .text:0000000000000220 _Z11thread_joinPP7_thread
     /tmp/ccUBLLWS.s:585    .text:0000000000000220 .L0 
     /tmp/ccUBLLWS.s:587    .text:0000000000000220 .L0 
     /tmp/ccUBLLWS.s:588    .text:0000000000000224 .L0 
     /tmp/ccUBLLWS.s:590    .text:0000000000000228 .L0 
     /tmp/ccUBLLWS.s:592    .text:000000000000022c .L0 
     /tmp/ccUBLLWS.s:594    .text:000000000000022c .L0 
     /tmp/ccUBLLWS.s:595    .text:000000000000022c .L0 
     /tmp/ccUBLLWS.s:601    .text:0000000000000234 .L0 
   src/syscall_c.cpp:137    .text:0000000000000234 .L0 
     /tmp/ccUBLLWS.s:607    .text:0000000000000238 .L0 
     /tmp/ccUBLLWS.s:608    .text:000000000000023c .L0 
     /tmp/ccUBLLWS.s:609    .text:000000000000023c .L0 
     /tmp/ccUBLLWS.s:611    .text:0000000000000240 .L0 
     /tmp/ccUBLLWS.s:613    .text:0000000000000244 .L0 
     /tmp/ccUBLLWS.s:619    .text:0000000000000244 _Z11getThreadIdv
     /tmp/ccUBLLWS.s:622    .text:0000000000000244 .L0 
     /tmp/ccUBLLWS.s:623    .text:0000000000000244 .L0 
     /tmp/ccUBLLWS.s:624    .text:0000000000000248 .L0 
     /tmp/ccUBLLWS.s:626    .text:000000000000024c .L0 
     /tmp/ccUBLLWS.s:628    .text:0000000000000250 .L0 
     /tmp/ccUBLLWS.s:630    .text:0000000000000250 .L0 
     /tmp/ccUBLLWS.s:631    .text:0000000000000250 .L0 
     /tmp/ccUBLLWS.s:637    .text:0000000000000258 .L0 
   src/syscall_c.cpp:143    .text:0000000000000258 .L0 
     /tmp/ccUBLLWS.s:642    .text:000000000000025c .L0 
     /tmp/ccUBLLWS.s:643    .text:000000000000025c .L0 
   src/syscall_c.cpp:146    .text:000000000000025c .L0 
     /tmp/ccUBLLWS.s:649    .text:0000000000000260 .L0 
     /tmp/ccUBLLWS.s:651    .text:0000000000000260 .L0 
     /tmp/ccUBLLWS.s:653    .text:0000000000000268 .L0 
     /tmp/ccUBLLWS.s:654    .text:0000000000000268 .L0 
     /tmp/ccUBLLWS.s:656    .text:000000000000026c .L0 
     /tmp/ccUBLLWS.s:658    .text:0000000000000270 .L0 
     /tmp/ccUBLLWS.s:664    .text:0000000000000270 _Z14thread_joinAllv
     /tmp/ccUBLLWS.s:667    .text:0000000000000270 .L0 
     /tmp/ccUBLLWS.s:668    .text:0000000000000270 .L0 
     /tmp/ccUBLLWS.s:669    .text:0000000000000274 .L0 
     /tmp/ccUBLLWS.s:671    .text:0000000000000278 .L0 
     /tmp/ccUBLLWS.s:673    .text:000000000000027c .L0 
     /tmp/ccUBLLWS.s:675    .text:000000000000027c .L0 
     /tmp/ccUBLLWS.s:676    .text:000000000000027c .L0 
     /tmp/ccUBLLWS.s:682    .text:0000000000000284 .L0 
   src/syscall_c.cpp:152    .text:0000000000000284 .L0 
GAS LISTING /tmp/ccUBLLWS.s 			page 21


     /tmp/ccUBLLWS.s:688    .text:0000000000000288 .L0 
     /tmp/ccUBLLWS.s:689    .text:000000000000028c .L0 
     /tmp/ccUBLLWS.s:690    .text:000000000000028c .L0 
     /tmp/ccUBLLWS.s:692    .text:0000000000000290 .L0 
     /tmp/ccUBLLWS.s:694    .text:0000000000000294 .L0 
     /tmp/ccUBLLWS.s:701    .text:0000000000000294 .L0 
     /tmp/ccUBLLWS.s:1427   .debug_abbrev:0000000000000000 .Ldebug_abbrev0
     /tmp/ccUBLLWS.s:2074   .debug_str:00000000000003be .LASF77
     /tmp/ccUBLLWS.s:2014   .debug_str:00000000000001f8 .LASF78
     /tmp/ccUBLLWS.s:1994   .debug_str:0000000000000171 .LASF79
     /tmp/ccUBLLWS.s:5      .text:0000000000000000 .Ltext0
     /tmp/ccUBLLWS.s:697    .text:0000000000000294 .Letext0
     /tmp/ccUBLLWS.s:1938   .debug_line:0000000000000000 .Ldebug_line0
     /tmp/ccUBLLWS.s:2034   .debug_str:000000000000028b .LASF0
     /tmp/ccUBLLWS.s:2038   .debug_str:00000000000002a7 .LASF1
     /tmp/ccUBLLWS.s:2026   .debug_str:0000000000000253 .LASF2
     /tmp/ccUBLLWS.s:1984   .debug_str:000000000000013f .LASF3
     /tmp/ccUBLLWS.s:2010   .debug_str:00000000000001e8 .LASF4
     /tmp/ccUBLLWS.s:2062   .debug_str:0000000000000372 .LASF5
     /tmp/ccUBLLWS.s:1958   .debug_str:0000000000000060 .LASF6
     /tmp/ccUBLLWS.s:2042   .debug_str:00000000000002cb .LASF7
     /tmp/ccUBLLWS.s:2032   .debug_str:0000000000000278 .LASF8
     /tmp/ccUBLLWS.s:2080   .debug_str:000000000000049c .LASF9
     /tmp/ccUBLLWS.s:2004   .debug_str:00000000000001cd .LASF10
     /tmp/ccUBLLWS.s:2052   .debug_str:000000000000030f .LASF11
     /tmp/ccUBLLWS.s:2076   .debug_str:0000000000000482 .LASF12
     /tmp/ccUBLLWS.s:1960   .debug_str:0000000000000067 .LASF13
     /tmp/ccUBLLWS.s:1942   .debug_str:0000000000000009 .LASF14
     /tmp/ccUBLLWS.s:1968   .debug_str:00000000000000b1 .LASF15
     /tmp/ccUBLLWS.s:2058   .debug_str:0000000000000346 .LASF16
     /tmp/ccUBLLWS.s:1978   .debug_str:0000000000000101 .LASF17
     /tmp/ccUBLLWS.s:1940   .debug_str:0000000000000000 .LASF18
     /tmp/ccUBLLWS.s:2006   .debug_str:00000000000001db .LASF20
     /tmp/ccUBLLWS.s:1988   .debug_str:0000000000000151 .LASF19
     /tmp/ccUBLLWS.s:2008   .debug_str:00000000000001e3 .LASF21
     /tmp/ccUBLLWS.s:2024   .debug_str:0000000000000243 .LASF22
     /tmp/ccUBLLWS.s:1962   .debug_str:0000000000000077 .LASF23
     /tmp/ccUBLLWS.s:2064   .debug_str:0000000000000384 .LASF24
     /tmp/ccUBLLWS.s:1970   .debug_str:00000000000000bd .LASF25
     /tmp/ccUBLLWS.s:2086   .debug_str:00000000000004d1 .LASF26
     /tmp/ccUBLLWS.s:2050   .debug_str:00000000000002fb .LASF27
     /tmp/ccUBLLWS.s:2022   .debug_str:0000000000000231 .LASF28
     /tmp/ccUBLLWS.s:2060   .debug_str:000000000000035c .LASF29
     /tmp/ccUBLLWS.s:2030   .debug_str:0000000000000266 .LASF30
     /tmp/ccUBLLWS.s:2018   .debug_str:0000000000000214 .LASF31
     /tmp/ccUBLLWS.s:1946   .debug_str:000000000000001e .LASF32
     /tmp/ccUBLLWS.s:2088   .debug_str:00000000000004f2 .LASF33
     /tmp/ccUBLLWS.s:2066   .debug_str:0000000000000393 .LASF34
     /tmp/ccUBLLWS.s:2072   .debug_str:00000000000003af .LASF35
     /tmp/ccUBLLWS.s:1992   .debug_str:0000000000000160 .LASF36
     /tmp/ccUBLLWS.s:1954   .debug_str:0000000000000047 .LASF37
     /tmp/ccUBLLWS.s:2092   .debug_str:0000000000000521 .LASF38
     /tmp/ccUBLLWS.s:1948   .debug_str:000000000000002d .LASF39
     /tmp/ccUBLLWS.s:2036   .debug_str:0000000000000298 .LASF59
     /tmp/ccUBLLWS.s:1998   .debug_str:0000000000000198 .LASF61
     /tmp/ccUBLLWS.s:665    .text:0000000000000270 .LFB32
     /tmp/ccUBLLWS.s:695    .text:0000000000000294 .LFE32
GAS LISTING /tmp/ccUBLLWS.s 			page 22


     /tmp/ccUBLLWS.s:2002   .debug_str:00000000000001c1 .LASF46
     /tmp/ccUBLLWS.s:2096   .debug_str:000000000000053a .LASF48
     /tmp/ccUBLLWS.s:620    .text:0000000000000244 .LFB31
     /tmp/ccUBLLWS.s:659    .text:0000000000000270 .LFE31
     /tmp/ccUBLLWS.s:1986   .debug_str:0000000000000145 .LASF40
     /tmp/ccUBLLWS.s:1982   .debug_str:0000000000000125 .LASF42
     /tmp/ccUBLLWS.s:583    .text:0000000000000220 .LFB30
     /tmp/ccUBLLWS.s:614    .text:0000000000000244 .LFE30
     /tmp/ccUBLLWS.s:2068   .debug_str:00000000000003a3 .LASF44
     /tmp/ccUBLLWS.s:2028   .debug_str:0000000000000261 .LASF41
     /tmp/ccUBLLWS.s:1996   .debug_str:000000000000018f .LASF43
     /tmp/ccUBLLWS.s:546    .text:00000000000001fc .LFB29
     /tmp/ccUBLLWS.s:577    .text:0000000000000220 .LFE29
     /tmp/ccUBLLWS.s:2044   .debug_str:00000000000002de .LASF45
     /tmp/ccUBLLWS.s:1944   .debug_str:0000000000000019 .LASF47
     /tmp/ccUBLLWS.s:1952   .debug_str:000000000000003e .LASF49
     /tmp/ccUBLLWS.s:501    .text:00000000000001d0 .LFB28
     /tmp/ccUBLLWS.s:540    .text:00000000000001fc .LFE28
     /tmp/ccUBLLWS.s:2078   .debug_str:0000000000000491 .LASF50
     /tmp/ccUBLLWS.s:2000   .debug_str:00000000000001ac .LASF51
     /tmp/ccUBLLWS.s:455    .text:00000000000001a4 .LFB27
     /tmp/ccUBLLWS.s:495    .text:00000000000001d0 .LFE27
     /tmp/ccUBLLWS.s:1827   .debug_loc:0000000000000000 .LLST6
     /tmp/ccUBLLWS.s:1972   .debug_str:00000000000000d6 .LASF52
     /tmp/ccUBLLWS.s:1966   .debug_str:000000000000009f .LASF53
     /tmp/ccUBLLWS.s:409    .text:0000000000000178 .LFB26
     /tmp/ccUBLLWS.s:449    .text:00000000000001a4 .LFE26
     /tmp/ccUBLLWS.s:1841   .debug_loc:0000000000000039 .LLST5
     /tmp/ccUBLLWS.s:2016   .debug_str:000000000000020a .LASF54
     /tmp/ccUBLLWS.s:2048   .debug_str:00000000000002e8 .LASF55
     /tmp/ccUBLLWS.s:363    .text:000000000000014c .LFB25
     /tmp/ccUBLLWS.s:403    .text:0000000000000178 .LFE25
     /tmp/ccUBLLWS.s:1855   .debug_loc:0000000000000072 .LLST4
     /tmp/ccUBLLWS.s:1990   .debug_str:0000000000000157 .LASF56
     /tmp/ccUBLLWS.s:1976   .debug_str:00000000000000ed .LASF57
     /tmp/ccUBLLWS.s:317    .text:0000000000000120 .LFB24
     /tmp/ccUBLLWS.s:357    .text:000000000000014c .LFE24
     /tmp/ccUBLLWS.s:1869   .debug_loc:00000000000000ab .LLST3
     /tmp/ccUBLLWS.s:2046   .debug_str:00000000000002e3 .LASF58
     /tmp/ccUBLLWS.s:2020   .debug_str:0000000000000221 .LASF60
     /tmp/ccUBLLWS.s:2056   .debug_str:0000000000000331 .LASF62
     /tmp/ccUBLLWS.s:281    .text:00000000000000fc .LFB23
     /tmp/ccUBLLWS.s:311    .text:0000000000000120 .LFE23
     /tmp/ccUBLLWS.s:1950   .debug_str:0000000000000032 .LASF63
     /tmp/ccUBLLWS.s:2040   .debug_str:00000000000002ba .LASF64
     /tmp/ccUBLLWS.s:236    .text:00000000000000d0 .LFB22
     /tmp/ccUBLLWS.s:275    .text:00000000000000fc .LFE22
     /tmp/ccUBLLWS.s:1980   .debug_str:0000000000000117 .LASF65
     /tmp/ccUBLLWS.s:2098   .debug_str:000000000000054b .LASF66
     /tmp/ccUBLLWS.s:190    .text:00000000000000a4 .LFB21
     /tmp/ccUBLLWS.s:230    .text:00000000000000d0 .LFE21
     /tmp/ccUBLLWS.s:1883   .debug_loc:00000000000000e4 .LLST2
     /tmp/ccUBLLWS.s:1956   .debug_str:0000000000000052 .LASF67
     /tmp/ccUBLLWS.s:2084   .debug_str:00000000000004b6 .LASF68
     /tmp/ccUBLLWS.s:2090   .debug_str:0000000000000501 .LASF69
     /tmp/ccUBLLWS.s:146    .text:000000000000007c .LFB20
     /tmp/ccUBLLWS.s:184    .text:00000000000000a4 .LFE20
GAS LISTING /tmp/ccUBLLWS.s 			page 23


     /tmp/ccUBLLWS.s:2054   .debug_str:000000000000031e .LASF70
     /tmp/ccUBLLWS.s:1964   .debug_str:0000000000000087 .LASF71
     /tmp/ccUBLLWS.s:102    .text:0000000000000054 .LFB19
     /tmp/ccUBLLWS.s:140    .text:000000000000007c .LFE19
     /tmp/ccUBLLWS.s:2012   .debug_str:00000000000001ef .LASF72
     /tmp/ccUBLLWS.s:2094   .debug_str:000000000000052c .LASF73
     /tmp/ccUBLLWS.s:56     .text:0000000000000028 .LFB18
     /tmp/ccUBLLWS.s:96     .text:0000000000000054 .LFE18
     /tmp/ccUBLLWS.s:1897   .debug_loc:000000000000011d .LLST1
     /tmp/ccUBLLWS.s:2082   .debug_str:00000000000004ac .LASF74
     /tmp/ccUBLLWS.s:1974   .debug_str:00000000000000df .LASF75
     /tmp/ccUBLLWS.s:10     .text:0000000000000000 .LFB17
     /tmp/ccUBLLWS.s:50     .text:0000000000000028 .LFE17
     /tmp/ccUBLLWS.s:2070   .debug_str:00000000000003aa .LASF76
     /tmp/ccUBLLWS.s:1911   .debug_loc:0000000000000156 .LLST0
     /tmp/ccUBLLWS.s:458    .text:00000000000001a4 .LVL15
     /tmp/ccUBLLWS.s:483    .text:00000000000001c0 .LVL16
     /tmp/ccUBLLWS.s:412    .text:0000000000000178 .LVL13
     /tmp/ccUBLLWS.s:437    .text:0000000000000194 .LVL14
     /tmp/ccUBLLWS.s:366    .text:000000000000014c .LVL11
     /tmp/ccUBLLWS.s:391    .text:0000000000000168 .LVL12
     /tmp/ccUBLLWS.s:320    .text:0000000000000120 .LVL9
     /tmp/ccUBLLWS.s:345    .text:000000000000013c .LVL10
     /tmp/ccUBLLWS.s:193    .text:00000000000000a4 .LVL6
     /tmp/ccUBLLWS.s:218    .text:00000000000000c0 .LVL7
     /tmp/ccUBLLWS.s:59     .text:0000000000000028 .LVL2
     /tmp/ccUBLLWS.s:84     .text:0000000000000044 .LVL3
     /tmp/ccUBLLWS.s:14     .text:0000000000000000 .LVL0
     /tmp/ccUBLLWS.s:39     .text:000000000000001c .LVL1
     /tmp/ccUBLLWS.s:702    .debug_info:0000000000000000 .Ldebug_info0

NO UNDEFINED SYMBOLS
