GAS LISTING /tmp/cclRHa6o.s 			page 1


   1              		.file	"syscall_c.cpp"
   2              		.option pic
   3              		.option norelax
   4              		.text
   5              	.Ltext0:
   6              		.align	2
   7              		.globl	_Z9mem_allocm
   9              	_Z9mem_allocm:
  10              	.LFB17:
  11              		.file 1 "src/syscall_c.cpp"
   1:src/syscall_c.cpp **** //
   2:src/syscall_c.cpp **** // Created by os on 10/7/25.
   3:src/syscall_c.cpp **** //
   4:src/syscall_c.cpp **** 
   5:src/syscall_c.cpp **** #include "../h/syscall_c.hpp"
   6:src/syscall_c.cpp **** #include "../h/riscv.hpp"
   7:src/syscall_c.cpp **** 
   8:src/syscall_c.cpp **** void* mem_alloc(size_t size){
  12              		.loc 1 8 29
  13              		.cfi_startproc
  14              	.LVL0:
  15 0000 130101FF 		addi	sp,sp,-16
  16              		.cfi_def_cfa_offset 16
  17 0004 23348100 		sd	s0,8(sp)
  18              		.cfi_offset 8, -8
  19 0008 13040101 		addi	s0,sp,16
  20              		.cfi_def_cfa 8, 0
   9:src/syscall_c.cpp ****     WRITE_REG("a7", Num::SCALL_MEM_ALLOC);
  21              		.loc 1 9 5
  22              		.loc 1 9 42 is_stmt 0
  23 000c 93071000 		li	a5,1
  24              	#APP
  25              	# 9 "src/syscall_c.cpp" 1
  10              	
  11:src/syscall_c.cpp ****     __asm__ volatile("ecall");
  26              		mv a7, a5
  27              	# 0 "" 2
  28              		.loc 1 11 5 is_stmt 1
  29              		.loc 1 11 30 is_stmt 0
  30              	# 11 "src/syscall_c.cpp" 1
  12              	
  13:src/syscall_c.cpp ****     void* ret;
  31              		ecall
  32              	# 0 "" 2
  33              		.loc 1 13 5 is_stmt 1
  14:src/syscall_c.cpp ****     READ_REG(ret, "a0");
  34              		.loc 1 14 5
  35              		.loc 1 14 24 is_stmt 0
  36              	# 14 "src/syscall_c.cpp" 1
  15              	    return ret;
  37              		mv a0, a0
  38              	# 0 "" 2
  39              	.LVL1:
  40              		.loc 1 15 5 is_stmt 1
  16:src/syscall_c.cpp **** }
  41              		.loc 1 16 1 is_stmt 0
  42              	#NO_APP
GAS LISTING /tmp/cclRHa6o.s 			page 2


  43 001c 03348100 		ld	s0,8(sp)
  44              		.cfi_restore 8
  45              		.cfi_def_cfa 2, 16
  46 0020 13010101 		addi	sp,sp,16
  47              		.cfi_def_cfa_offset 0
  48 0024 67800000 		jr	ra
  49              		.cfi_endproc
  50              	.LFE17:
  52              		.align	2
  53              		.globl	_Z8mem_freePv
  55              	_Z8mem_freePv:
  56              	.LFB18:
  17:src/syscall_c.cpp **** 
  18:src/syscall_c.cpp **** int mem_free(void* ptr){
  57              		.loc 1 18 24 is_stmt 1
  58              		.cfi_startproc
  59              	.LVL2:
  60 0028 130101FF 		addi	sp,sp,-16
  61              		.cfi_def_cfa_offset 16
  62 002c 23348100 		sd	s0,8(sp)
  63              		.cfi_offset 8, -8
  64 0030 13040101 		addi	s0,sp,16
  65              		.cfi_def_cfa 8, 0
  19:src/syscall_c.cpp ****     WRITE_REG("a7", Num::SCALL_MEM_FREE);
  66              		.loc 1 19 5
  67              		.loc 1 19 41 is_stmt 0
  68 0034 93072000 		li	a5,2
  69              	#APP
  70              	# 19 "src/syscall_c.cpp" 1
  20              	
  21:src/syscall_c.cpp ****     __asm__ volatile("ecall");
  71              		mv a7, a5
  72              	# 0 "" 2
  73              		.loc 1 21 5 is_stmt 1
  74              		.loc 1 21 30 is_stmt 0
  75              	# 21 "src/syscall_c.cpp" 1
  22              	
  23:src/syscall_c.cpp ****     int ret;
  76              		ecall
  77              	# 0 "" 2
  78              		.loc 1 23 5 is_stmt 1
  24:src/syscall_c.cpp ****     READ_REG(ret, "a0");
  79              		.loc 1 24 5
  80              		.loc 1 24 24 is_stmt 0
  81              	# 24 "src/syscall_c.cpp" 1
  25              	    return ret;
  82              		mv a0, a0
  83              	# 0 "" 2
  84              	.LVL3:
  85              		.loc 1 25 5 is_stmt 1
  26:src/syscall_c.cpp **** }
  86              		.loc 1 26 1 is_stmt 0
  87              	#NO_APP
  88 0044 1B050500 		sext.w	a0,a0
  89 0048 03348100 		ld	s0,8(sp)
  90              		.cfi_restore 8
  91              		.cfi_def_cfa 2, 16
GAS LISTING /tmp/cclRHa6o.s 			page 3


  92 004c 13010101 		addi	sp,sp,16
  93              		.cfi_def_cfa_offset 0
  94 0050 67800000 		jr	ra
  95              		.cfi_endproc
  96              	.LFE18:
  98              		.align	2
  99              		.globl	_Z18mem_get_free_spacev
 101              	_Z18mem_get_free_spacev:
 102              	.LFB19:
  27:src/syscall_c.cpp **** 
  28:src/syscall_c.cpp **** size_t mem_get_free_space(){
 103              		.loc 1 28 28 is_stmt 1
 104              		.cfi_startproc
 105 0054 130101FF 		addi	sp,sp,-16
 106              		.cfi_def_cfa_offset 16
 107 0058 23348100 		sd	s0,8(sp)
 108              		.cfi_offset 8, -8
 109 005c 13040101 		addi	s0,sp,16
 110              		.cfi_def_cfa 8, 0
  29:src/syscall_c.cpp ****     WRITE_REG("a7", Num::SCALL_MEM_GET_FREE_SPACE);
 111              		.loc 1 29 5
 112              		.loc 1 29 51 is_stmt 0
 113 0060 93073000 		li	a5,3
 114              	#APP
 115              	# 29 "src/syscall_c.cpp" 1
  30              	
  31:src/syscall_c.cpp ****     __asm__ volatile("ecall");
 116              		mv a7, a5
 117              	# 0 "" 2
 118              		.loc 1 31 5 is_stmt 1
 119              		.loc 1 31 30 is_stmt 0
 120              	# 31 "src/syscall_c.cpp" 1
  32              	
  33:src/syscall_c.cpp ****     int ret;
 121              		ecall
 122              	# 0 "" 2
 123              		.loc 1 33 5 is_stmt 1
  34:src/syscall_c.cpp ****     READ_REG(ret, "a0");
 124              		.loc 1 34 5
 125              		.loc 1 34 24 is_stmt 0
 126              	# 34 "src/syscall_c.cpp" 1
  35              	    return ret;
 127              		mv a0, a0
 128              	# 0 "" 2
 129              	.LVL4:
 130              		.loc 1 35 5 is_stmt 1
  36:src/syscall_c.cpp **** }
 131              		.loc 1 36 1 is_stmt 0
 132              	#NO_APP
 133 0070 1B050500 		sext.w	a0,a0
 134 0074 03348100 		ld	s0,8(sp)
 135              		.cfi_restore 8
 136              		.cfi_def_cfa 2, 16
 137 0078 13010101 		addi	sp,sp,16
 138              		.cfi_def_cfa_offset 0
 139 007c 67800000 		jr	ra
 140              		.cfi_endproc
GAS LISTING /tmp/cclRHa6o.s 			page 4


 141              	.LFE19:
 143              		.align	2
 144              		.globl	_Z26mem_get_largest_free_blockv
 146              	_Z26mem_get_largest_free_blockv:
 147              	.LFB20:
  37:src/syscall_c.cpp **** 
  38:src/syscall_c.cpp **** size_t mem_get_largest_free_block(){
 148              		.loc 1 38 36 is_stmt 1
 149              		.cfi_startproc
 150 0080 130101FF 		addi	sp,sp,-16
 151              		.cfi_def_cfa_offset 16
 152 0084 23348100 		sd	s0,8(sp)
 153              		.cfi_offset 8, -8
 154 0088 13040101 		addi	s0,sp,16
 155              		.cfi_def_cfa 8, 0
  39:src/syscall_c.cpp ****     WRITE_REG("a7", Num::SCALL_MEM_GET_LARGEST_FREE_BLOCK);
 156              		.loc 1 39 5
 157              		.loc 1 39 59 is_stmt 0
 158 008c 93074000 		li	a5,4
 159              	#APP
 160              	# 39 "src/syscall_c.cpp" 1
  40              	
  41:src/syscall_c.cpp ****     __asm__ volatile("ecall");
 161              		mv a7, a5
 162              	# 0 "" 2
 163              		.loc 1 41 5 is_stmt 1
 164              		.loc 1 41 30 is_stmt 0
 165              	# 41 "src/syscall_c.cpp" 1
  42              	
  43:src/syscall_c.cpp ****     int ret;
 166              		ecall
 167              	# 0 "" 2
 168              		.loc 1 43 5 is_stmt 1
  44:src/syscall_c.cpp ****     READ_REG(ret, "a0");
 169              		.loc 1 44 5
 170              		.loc 1 44 24 is_stmt 0
 171              	# 44 "src/syscall_c.cpp" 1
  45              	    return ret;
 172              		mv a0, a0
 173              	# 0 "" 2
 174              	.LVL5:
 175              		.loc 1 45 5 is_stmt 1
  46:src/syscall_c.cpp **** }
 176              		.loc 1 46 1 is_stmt 0
 177              	#NO_APP
 178 009c 1B050500 		sext.w	a0,a0
 179 00a0 03348100 		ld	s0,8(sp)
 180              		.cfi_restore 8
 181              		.cfi_def_cfa 2, 16
 182 00a4 13010101 		addi	sp,sp,16
 183              		.cfi_def_cfa_offset 0
 184 00a8 67800000 		jr	ra
 185              		.cfi_endproc
 186              	.LFE20:
 188              		.align	2
 189              		.globl	_Z13thread_createPP7_threadPFvPvES2_
 191              	_Z13thread_createPP7_threadPFvPvES2_:
GAS LISTING /tmp/cclRHa6o.s 			page 5


 192              	.LFB21:
  47:src/syscall_c.cpp **** 
  48:src/syscall_c.cpp **** int thread_create(thread_t* handle, void(*start_routine)(void*), void* arg){
 193              		.loc 1 48 76 is_stmt 1
 194              		.cfi_startproc
 195              	.LVL6:
 196 00ac 130101FF 		addi	sp,sp,-16
 197              		.cfi_def_cfa_offset 16
 198 00b0 23348100 		sd	s0,8(sp)
 199              		.cfi_offset 8, -8
 200 00b4 13040101 		addi	s0,sp,16
 201              		.cfi_def_cfa 8, 0
  49:src/syscall_c.cpp ****     WRITE_REG("a7", Num::SCALL_THREAD_CREATE);
 202              		.loc 1 49 5
 203              		.loc 1 49 46 is_stmt 0
 204 00b8 93071001 		li	a5,17
 205              	#APP
 206              	# 49 "src/syscall_c.cpp" 1
  50              	
  51:src/syscall_c.cpp ****     __asm__ volatile("ecall");
 207              		mv a7, a5
 208              	# 0 "" 2
 209              		.loc 1 51 5 is_stmt 1
 210              		.loc 1 51 30 is_stmt 0
 211              	# 51 "src/syscall_c.cpp" 1
  52              	
  53:src/syscall_c.cpp ****     int ret;
 212              		ecall
 213              	# 0 "" 2
 214              		.loc 1 53 5 is_stmt 1
  54:src/syscall_c.cpp ****     READ_REG(ret, "a0");
 215              		.loc 1 54 5
 216              		.loc 1 54 24 is_stmt 0
 217              	# 54 "src/syscall_c.cpp" 1
  55              	    return ret;
 218              		mv a0, a0
 219              	# 0 "" 2
 220              	.LVL7:
 221              		.loc 1 55 5 is_stmt 1
  56:src/syscall_c.cpp **** }
 222              		.loc 1 56 1 is_stmt 0
 223              	#NO_APP
 224 00c8 1B050500 		sext.w	a0,a0
 225 00cc 03348100 		ld	s0,8(sp)
 226              		.cfi_restore 8
 227              		.cfi_def_cfa 2, 16
 228 00d0 13010101 		addi	sp,sp,16
 229              		.cfi_def_cfa_offset 0
 230 00d4 67800000 		jr	ra
 231              		.cfi_endproc
 232              	.LFE21:
 234              		.align	2
 235              		.globl	_Z11thread_exitv
 237              	_Z11thread_exitv:
 238              	.LFB22:
  57:src/syscall_c.cpp **** 
  58:src/syscall_c.cpp **** int thread_exit(){
GAS LISTING /tmp/cclRHa6o.s 			page 6


 239              		.loc 1 58 18 is_stmt 1
 240              		.cfi_startproc
 241 00d8 130101FF 		addi	sp,sp,-16
 242              		.cfi_def_cfa_offset 16
 243 00dc 23348100 		sd	s0,8(sp)
 244              		.cfi_offset 8, -8
 245 00e0 13040101 		addi	s0,sp,16
 246              		.cfi_def_cfa 8, 0
  59:src/syscall_c.cpp ****     WRITE_REG("a7", Num::SCALL_THREAD_EXIT);
 247              		.loc 1 59 5
 248              		.loc 1 59 44 is_stmt 0
 249 00e4 93072001 		li	a5,18
 250              	#APP
 251              	# 59 "src/syscall_c.cpp" 1
  60              	
  61:src/syscall_c.cpp ****     __asm__ volatile("ecall");
 252              		mv a7, a5
 253              	# 0 "" 2
 254              		.loc 1 61 5 is_stmt 1
 255              		.loc 1 61 30 is_stmt 0
 256              	# 61 "src/syscall_c.cpp" 1
  62              	
  63:src/syscall_c.cpp ****     int ret;
 257              		ecall
 258              	# 0 "" 2
 259              		.loc 1 63 5 is_stmt 1
  64:src/syscall_c.cpp ****     READ_REG(ret, "a0");
 260              		.loc 1 64 5
 261              		.loc 1 64 24 is_stmt 0
 262              	# 64 "src/syscall_c.cpp" 1
  65              	    return ret;
 263              		mv a0, a0
 264              	# 0 "" 2
 265              	.LVL8:
 266              		.loc 1 65 5 is_stmt 1
  66:src/syscall_c.cpp **** }
 267              		.loc 1 66 1 is_stmt 0
 268              	#NO_APP
 269 00f4 1B050500 		sext.w	a0,a0
 270 00f8 03348100 		ld	s0,8(sp)
 271              		.cfi_restore 8
 272              		.cfi_def_cfa 2, 16
 273 00fc 13010101 		addi	sp,sp,16
 274              		.cfi_def_cfa_offset 0
 275 0100 67800000 		jr	ra
 276              		.cfi_endproc
 277              	.LFE22:
 279              		.align	2
 280              		.globl	_Z15thread_dispatchv
 282              	_Z15thread_dispatchv:
 283              	.LFB23:
  67:src/syscall_c.cpp **** 
  68:src/syscall_c.cpp **** void thread_dispatch(){
 284              		.loc 1 68 23 is_stmt 1
 285              		.cfi_startproc
 286 0104 130101FF 		addi	sp,sp,-16
 287              		.cfi_def_cfa_offset 16
GAS LISTING /tmp/cclRHa6o.s 			page 7


 288 0108 23348100 		sd	s0,8(sp)
 289              		.cfi_offset 8, -8
 290 010c 13040101 		addi	s0,sp,16
 291              		.cfi_def_cfa 8, 0
  69:src/syscall_c.cpp ****     WRITE_REG("a7", Num::SCALL_THREAD_DISPATCH);
 292              		.loc 1 69 5
 293              		.loc 1 69 48 is_stmt 0
 294 0110 93073001 		li	a5,19
 295              	#APP
 296              	# 69 "src/syscall_c.cpp" 1
  70              	
  71:src/syscall_c.cpp ****     __asm__ volatile("ecall");
 297              		mv a7, a5
 298              	# 0 "" 2
 299              		.loc 1 71 5 is_stmt 1
 300              		.loc 1 71 30 is_stmt 0
 301              	# 71 "src/syscall_c.cpp" 1
  72              	}
 302              		ecall
 303              	# 0 "" 2
 304              		.loc 1 72 1
 305              	#NO_APP
 306 011c 03348100 		ld	s0,8(sp)
 307              		.cfi_restore 8
 308              		.cfi_def_cfa 2, 16
 309 0120 13010101 		addi	sp,sp,16
 310              		.cfi_def_cfa_offset 0
 311 0124 67800000 		jr	ra
 312              		.cfi_endproc
 313              	.LFE23:
 315              		.align	2
 316              		.globl	_Z8sem_openPP4_semj
 318              	_Z8sem_openPP4_semj:
 319              	.LFB24:
  73:src/syscall_c.cpp **** 
  74:src/syscall_c.cpp **** int sem_open(sem_t* handle, unsigned init){
 320              		.loc 1 74 43 is_stmt 1
 321              		.cfi_startproc
 322              	.LVL9:
 323 0128 130101FF 		addi	sp,sp,-16
 324              		.cfi_def_cfa_offset 16
 325 012c 23348100 		sd	s0,8(sp)
 326              		.cfi_offset 8, -8
 327 0130 13040101 		addi	s0,sp,16
 328              		.cfi_def_cfa 8, 0
  75:src/syscall_c.cpp ****     WRITE_REG("a7", Num::SCALL_SEM_OPEN);
 329              		.loc 1 75 5
 330              		.loc 1 75 41 is_stmt 0
 331 0134 93071002 		li	a5,33
 332              	#APP
 333              	# 75 "src/syscall_c.cpp" 1
  76              	
  77:src/syscall_c.cpp ****     __asm__ volatile("ecall");
 334              		mv a7, a5
 335              	# 0 "" 2
 336              		.loc 1 77 5 is_stmt 1
 337              		.loc 1 77 30 is_stmt 0
GAS LISTING /tmp/cclRHa6o.s 			page 8


 338              	# 77 "src/syscall_c.cpp" 1
  78              	
  79:src/syscall_c.cpp ****     int ret;
 339              		ecall
 340              	# 0 "" 2
 341              		.loc 1 79 5 is_stmt 1
  80:src/syscall_c.cpp ****     READ_REG(ret, "a0");
 342              		.loc 1 80 5
 343              		.loc 1 80 24 is_stmt 0
 344              	# 80 "src/syscall_c.cpp" 1
  81              	    return ret;
 345              		mv a0, a0
 346              	# 0 "" 2
 347              	.LVL10:
 348              		.loc 1 81 5 is_stmt 1
  82:src/syscall_c.cpp **** }
 349              		.loc 1 82 1 is_stmt 0
 350              	#NO_APP
 351 0144 1B050500 		sext.w	a0,a0
 352 0148 03348100 		ld	s0,8(sp)
 353              		.cfi_restore 8
 354              		.cfi_def_cfa 2, 16
 355 014c 13010101 		addi	sp,sp,16
 356              		.cfi_def_cfa_offset 0
 357 0150 67800000 		jr	ra
 358              		.cfi_endproc
 359              	.LFE24:
 361              		.align	2
 362              		.globl	_Z9sem_closeP4_sem
 364              	_Z9sem_closeP4_sem:
 365              	.LFB25:
  83:src/syscall_c.cpp **** 
  84:src/syscall_c.cpp **** int sem_close(sem_t handle) {
 366              		.loc 1 84 29 is_stmt 1
 367              		.cfi_startproc
 368              	.LVL11:
 369 0154 130101FF 		addi	sp,sp,-16
 370              		.cfi_def_cfa_offset 16
 371 0158 23348100 		sd	s0,8(sp)
 372              		.cfi_offset 8, -8
 373 015c 13040101 		addi	s0,sp,16
 374              		.cfi_def_cfa 8, 0
  85:src/syscall_c.cpp ****     WRITE_REG("a7", Num::SCALL_SEM_CLOSE);
 375              		.loc 1 85 5
 376              		.loc 1 85 42 is_stmt 0
 377 0160 93072002 		li	a5,34
 378              	#APP
 379              	# 85 "src/syscall_c.cpp" 1
  86              	
  87:src/syscall_c.cpp ****     __asm__ volatile("ecall");
 380              		mv a7, a5
 381              	# 0 "" 2
 382              		.loc 1 87 5 is_stmt 1
 383              		.loc 1 87 30 is_stmt 0
 384              	# 87 "src/syscall_c.cpp" 1
  88              	
  89:src/syscall_c.cpp ****     int ret;
GAS LISTING /tmp/cclRHa6o.s 			page 9


 385              		ecall
 386              	# 0 "" 2
 387              		.loc 1 89 5 is_stmt 1
  90:src/syscall_c.cpp ****     READ_REG(ret, "a0");
 388              		.loc 1 90 5
 389              		.loc 1 90 24 is_stmt 0
 390              	# 90 "src/syscall_c.cpp" 1
  91              	    return ret;
 391              		mv a0, a0
 392              	# 0 "" 2
 393              	.LVL12:
 394              		.loc 1 91 5 is_stmt 1
  92:src/syscall_c.cpp **** }
 395              		.loc 1 92 1 is_stmt 0
 396              	#NO_APP
 397 0170 1B050500 		sext.w	a0,a0
 398 0174 03348100 		ld	s0,8(sp)
 399              		.cfi_restore 8
 400              		.cfi_def_cfa 2, 16
 401 0178 13010101 		addi	sp,sp,16
 402              		.cfi_def_cfa_offset 0
 403 017c 67800000 		jr	ra
 404              		.cfi_endproc
 405              	.LFE25:
 407              		.align	2
 408              		.globl	_Z8sem_waitP4_sem
 410              	_Z8sem_waitP4_sem:
 411              	.LFB26:
  93:src/syscall_c.cpp **** 
  94:src/syscall_c.cpp **** int sem_wait(sem_t id){
 412              		.loc 1 94 23 is_stmt 1
 413              		.cfi_startproc
 414              	.LVL13:
 415 0180 130101FF 		addi	sp,sp,-16
 416              		.cfi_def_cfa_offset 16
 417 0184 23348100 		sd	s0,8(sp)
 418              		.cfi_offset 8, -8
 419 0188 13040101 		addi	s0,sp,16
 420              		.cfi_def_cfa 8, 0
  95:src/syscall_c.cpp ****     WRITE_REG("a7", Num::SCALL_SEM_WAIT);
 421              		.loc 1 95 5
 422              		.loc 1 95 41 is_stmt 0
 423 018c 93073002 		li	a5,35
 424              	#APP
 425              	# 95 "src/syscall_c.cpp" 1
  96              	
  97:src/syscall_c.cpp ****     __asm__ volatile("ecall");
 426              		mv a7, a5
 427              	# 0 "" 2
 428              		.loc 1 97 5 is_stmt 1
 429              		.loc 1 97 30 is_stmt 0
 430              	# 97 "src/syscall_c.cpp" 1
  98              	
  99:src/syscall_c.cpp ****     int ret;
 431              		ecall
 432              	# 0 "" 2
 433              		.loc 1 99 5 is_stmt 1
GAS LISTING /tmp/cclRHa6o.s 			page 10


 100:src/syscall_c.cpp ****     READ_REG(ret, "a0");
 434              		.loc 1 100 5
 435              		.loc 1 100 24 is_stmt 0
 436              	# 100 "src/syscall_c.cpp" 1
 101              	    return ret;
 437              		mv a0, a0
 438              	# 0 "" 2
 439              	.LVL14:
 440              		.loc 1 101 5 is_stmt 1
 102:src/syscall_c.cpp **** }
 441              		.loc 1 102 1 is_stmt 0
 442              	#NO_APP
 443 019c 1B050500 		sext.w	a0,a0
 444 01a0 03348100 		ld	s0,8(sp)
 445              		.cfi_restore 8
 446              		.cfi_def_cfa 2, 16
 447 01a4 13010101 		addi	sp,sp,16
 448              		.cfi_def_cfa_offset 0
 449 01a8 67800000 		jr	ra
 450              		.cfi_endproc
 451              	.LFE26:
 453              		.align	2
 454              		.globl	_Z10sem_signalP4_sem
 456              	_Z10sem_signalP4_sem:
 457              	.LFB27:
 103:src/syscall_c.cpp **** 
 104:src/syscall_c.cpp **** int sem_signal(sem_t id){
 458              		.loc 1 104 25 is_stmt 1
 459              		.cfi_startproc
 460              	.LVL15:
 461 01ac 130101FF 		addi	sp,sp,-16
 462              		.cfi_def_cfa_offset 16
 463 01b0 23348100 		sd	s0,8(sp)
 464              		.cfi_offset 8, -8
 465 01b4 13040101 		addi	s0,sp,16
 466              		.cfi_def_cfa 8, 0
 105:src/syscall_c.cpp ****     WRITE_REG("a7", Num::SCALL_SEM_SIGNAL);
 467              		.loc 1 105 5
 468              		.loc 1 105 43 is_stmt 0
 469 01b8 93074002 		li	a5,36
 470              	#APP
 471              	# 105 "src/syscall_c.cpp" 1
 106              	
 107:src/syscall_c.cpp ****     __asm__ volatile("ecall");
 472              		mv a7, a5
 473              	# 0 "" 2
 474              		.loc 1 107 5 is_stmt 1
 475              		.loc 1 107 30 is_stmt 0
 476              	# 107 "src/syscall_c.cpp" 1
 108              	
 109:src/syscall_c.cpp ****     int ret;
 477              		ecall
 478              	# 0 "" 2
 479              		.loc 1 109 5 is_stmt 1
 110:src/syscall_c.cpp ****     READ_REG(ret, "a0");
 480              		.loc 1 110 5
 481              		.loc 1 110 24 is_stmt 0
GAS LISTING /tmp/cclRHa6o.s 			page 11


 482              	# 110 "src/syscall_c.cpp" 1
 111              	    return ret;
 483              		mv a0, a0
 484              	# 0 "" 2
 485              	.LVL16:
 486              		.loc 1 111 5 is_stmt 1
 112:src/syscall_c.cpp **** }
 487              		.loc 1 112 1 is_stmt 0
 488              	#NO_APP
 489 01c8 1B050500 		sext.w	a0,a0
 490 01cc 03348100 		ld	s0,8(sp)
 491              		.cfi_restore 8
 492              		.cfi_def_cfa 2, 16
 493 01d0 13010101 		addi	sp,sp,16
 494              		.cfi_def_cfa_offset 0
 495 01d4 67800000 		jr	ra
 496              		.cfi_endproc
 497              	.LFE27:
 499              		.align	2
 500              		.globl	_Z4getcv
 502              	_Z4getcv:
 503              	.LFB28:
 113:src/syscall_c.cpp **** 
 114:src/syscall_c.cpp **** char getc(){
 504              		.loc 1 114 12 is_stmt 1
 505              		.cfi_startproc
 506 01d8 130101FF 		addi	sp,sp,-16
 507              		.cfi_def_cfa_offset 16
 508 01dc 23348100 		sd	s0,8(sp)
 509              		.cfi_offset 8, -8
 510 01e0 13040101 		addi	s0,sp,16
 511              		.cfi_def_cfa 8, 0
 115:src/syscall_c.cpp ****     WRITE_REG("a7", Num::SCALL_GETC);
 512              		.loc 1 115 5
 513              		.loc 1 115 37 is_stmt 0
 514 01e4 93071004 		li	a5,65
 515              	#APP
 516              	# 115 "src/syscall_c.cpp" 1
 116              	
 117:src/syscall_c.cpp ****     __asm__ volatile("ecall");
 517              		mv a7, a5
 518              	# 0 "" 2
 519              		.loc 1 117 5 is_stmt 1
 520              		.loc 1 117 30 is_stmt 0
 521              	# 117 "src/syscall_c.cpp" 1
 118              	
 119:src/syscall_c.cpp ****     char ret;
 522              		ecall
 523              	# 0 "" 2
 524              		.loc 1 119 5 is_stmt 1
 120:src/syscall_c.cpp ****     READ_REG(ret, "a0");
 525              		.loc 1 120 5
 526              		.loc 1 120 24 is_stmt 0
 527              	# 120 "src/syscall_c.cpp" 1
 121              	    return ret;
 528              		mv a0, a0
 529              	# 0 "" 2
GAS LISTING /tmp/cclRHa6o.s 			page 12


 530              	.LVL17:
 531              		.loc 1 121 5 is_stmt 1
 122:src/syscall_c.cpp **** }
 532              		.loc 1 122 1 is_stmt 0
 533              	#NO_APP
 534 01f4 1375F50F 		andi	a0,a0,0xff
 535 01f8 03348100 		ld	s0,8(sp)
 536              		.cfi_restore 8
 537              		.cfi_def_cfa 2, 16
 538 01fc 13010101 		addi	sp,sp,16
 539              		.cfi_def_cfa_offset 0
 540 0200 67800000 		jr	ra
 541              		.cfi_endproc
 542              	.LFE28:
 544              		.align	2
 545              		.globl	_Z4putcc
 547              	_Z4putcc:
 548              	.LFB29:
 123:src/syscall_c.cpp **** 
 124:src/syscall_c.cpp **** void putc(char c){
 549              		.loc 1 124 18 is_stmt 1
 550              		.cfi_startproc
 551              	.LVL18:
 552 0204 130101FF 		addi	sp,sp,-16
 553              		.cfi_def_cfa_offset 16
 554 0208 23348100 		sd	s0,8(sp)
 555              		.cfi_offset 8, -8
 556 020c 13040101 		addi	s0,sp,16
 557              		.cfi_def_cfa 8, 0
 125:src/syscall_c.cpp **** 
 126:src/syscall_c.cpp ****     WRITE_REG("a7", Num::SCALL_PUTC);
 558              		.loc 1 126 5
 559              		.loc 1 126 37 is_stmt 0
 560 0210 93072004 		li	a5,66
 561              	#APP
 562              	# 126 "src/syscall_c.cpp" 1
 127              	
 128:src/syscall_c.cpp ****     __asm__ volatile("ecall");
 563              		mv a7, a5
 564              	# 0 "" 2
 565              		.loc 1 128 5 is_stmt 1
 566              		.loc 1 128 30 is_stmt 0
 567              	# 128 "src/syscall_c.cpp" 1
 129              	
 130:src/syscall_c.cpp **** 
 131:src/syscall_c.cpp **** }...
 568              		ecall
 569              	# 0 "" 2
 570              		.loc 1 131 1
 571              	#NO_APP
 572 021c 03348100 		ld	s0,8(sp)
 573              		.cfi_restore 8
 574              		.cfi_def_cfa 2, 16
 575 0220 13010101 		addi	sp,sp,16
 576              		.cfi_def_cfa_offset 0
 577 0224 67800000 		jr	ra
 578              		.cfi_endproc
GAS LISTING /tmp/cclRHa6o.s 			page 13


 579              	.LFE29:
 581              	.Letext0:
 582              		.file 2 "src/../h/../lib/hw.h"
 583              		.file 3 "src/../h/syscall_c.hpp"
 584              		.file 4 "src/../h/riscv.hpp"
GAS LISTING /tmp/cclRHa6o.s 			page 14

