GAS LISTING /tmp/ccDfMLJb.s 			page 1


   1              		.file	"syscall_cpp.cpp"
   2              		.option pic
   3              		.option norelax
   4              		.text
   5              	.Ltext0:
   6              		.section	.text._ZN6Thread3runEv,"axG",@progbits,_ZN6Thread3runEv,comdat
   7              		.align	2
   8              		.weak	_ZN6Thread3runEv
  10              	_ZN6Thread3runEv:
  11              	.LFB0:
  12              		.file 1 "src/../h/syscall_cpp.hpp"
   1:src/../h/syscall_cpp.hpp **** //
   2:src/../h/syscall_cpp.hpp **** // Created by os on 10/10/25.
   3:src/../h/syscall_cpp.hpp **** //
   4:src/../h/syscall_cpp.hpp **** 
   5:src/../h/syscall_cpp.hpp **** #ifndef PROJECT_BASE_SYSCALL_CPP_HPP
   6:src/../h/syscall_cpp.hpp **** #define PROJECT_BASE_SYSCALL_CPP_HPP
   7:src/../h/syscall_cpp.hpp **** #include "syscall_c.hpp"
   8:src/../h/syscall_cpp.hpp **** 
   9:src/../h/syscall_cpp.hpp **** void* operator new (size_t);
  10:src/../h/syscall_cpp.hpp **** void operator delete (void*);
  11:src/../h/syscall_cpp.hpp **** 
  12:src/../h/syscall_cpp.hpp **** class Thread {
  13:src/../h/syscall_cpp.hpp **** public:
  14:src/../h/syscall_cpp.hpp ****     Thread (void (*body) (void*), void* arg);
  15:src/../h/syscall_cpp.hpp ****     virtual ~Thread();
  16:src/../h/syscall_cpp.hpp **** 
  17:src/../h/syscall_cpp.hpp ****     int start();
  18:src/../h/syscall_cpp.hpp **** 
  19:src/../h/syscall_cpp.hpp ****     static void dispatch();
  20:src/../h/syscall_cpp.hpp **** 
  21:src/../h/syscall_cpp.hpp **** 
  22:src/../h/syscall_cpp.hpp **** 
  23:src/../h/syscall_cpp.hpp **** protected:
  24:src/../h/syscall_cpp.hpp ****     Thread();
  25:src/../h/syscall_cpp.hpp ****     virtual void run() {}
  13              		.loc 1 25 18
  14              		.cfi_startproc
  15              	.LVL0:
  16 0000 130101FF 		addi	sp,sp,-16
  17              		.cfi_def_cfa_offset 16
  18 0004 23348100 		sd	s0,8(sp)
  19              		.cfi_offset 8, -8
  20 0008 13040101 		addi	s0,sp,16
  21              		.cfi_def_cfa 8, 0
  22              		.loc 1 25 25 is_stmt 0
  23 000c 03348100 		ld	s0,8(sp)
  24              		.cfi_restore 8
  25              		.cfi_def_cfa 2, 16
  26 0010 13010101 		addi	sp,sp,16
  27              		.cfi_def_cfa_offset 0
  28 0014 67800000 		jr	ra
  29              		.cfi_endproc
  30              	.LFE0:
  32              		.text
  33              		.align	2
  34              		.globl	_ZN6ThreadD2Ev
GAS LISTING /tmp/ccDfMLJb.s 			page 2


  36              	_ZN6ThreadD2Ev:
  37              	.LFB25:
  38              		.file 2 "src/syscall_cpp.cpp"
   1:src/syscall_cpp.cpp **** //
   2:src/syscall_cpp.cpp **** // Created by os on 10/10/25.
   3:src/syscall_cpp.cpp **** //
   4:src/syscall_cpp.cpp **** 
   5:src/syscall_cpp.cpp **** #include "../h/syscall_cpp.hpp"
   6:src/syscall_cpp.cpp **** #include "../h/_thread.hpp"
   7:src/syscall_cpp.cpp **** #include "../lib/console.h"
   8:src/syscall_cpp.cpp **** 
   9:src/syscall_cpp.cpp **** 
  10:src/syscall_cpp.cpp **** char Console::getc() {
  11:src/syscall_cpp.cpp ****     return __getc();
  12:src/syscall_cpp.cpp **** }
  13:src/syscall_cpp.cpp **** 
  14:src/syscall_cpp.cpp **** void Console::putc(char c) {
  15:src/syscall_cpp.cpp ****     __putc(c);
  16:src/syscall_cpp.cpp **** }
  17:src/syscall_cpp.cpp **** 
  18:src/syscall_cpp.cpp **** Thread::Thread(void (*body)(void *), void *arg) {
  19:src/syscall_cpp.cpp ****     thread_create(&myHandle, body, arg);
  20:src/syscall_cpp.cpp ****     myHandle->setStart(false);
  21:src/syscall_cpp.cpp **** }
  22:src/syscall_cpp.cpp **** 
  23:src/syscall_cpp.cpp **** int Thread::start() {
  24:src/syscall_cpp.cpp ****     myHandle->setStart(true);
  25:src/syscall_cpp.cpp ****     return 0;
  26:src/syscall_cpp.cpp **** }
  27:src/syscall_cpp.cpp **** 
  28:src/syscall_cpp.cpp **** void Thread::dispatch() {
  29:src/syscall_cpp.cpp ****     thread_dispatch();
  30:src/syscall_cpp.cpp **** 
  31:src/syscall_cpp.cpp **** }
  32:src/syscall_cpp.cpp **** 
  33:src/syscall_cpp.cpp **** Thread::~Thread() {
  39              		.loc 2 33 1 is_stmt 1
  40              		.cfi_startproc
  41              	.LVL1:
  42 0000 130101FF 		addi	sp,sp,-16
  43              		.cfi_def_cfa_offset 16
  44 0004 23348100 		sd	s0,8(sp)
  45              		.cfi_offset 8, -8
  46 0008 13040101 		addi	s0,sp,16
  47              		.cfi_def_cfa 8, 0
  34:src/syscall_cpp.cpp **** 
  35:src/syscall_cpp.cpp **** }
  48              		.loc 2 35 1 is_stmt 0
  49 000c 03348100 		ld	s0,8(sp)
  50              		.cfi_restore 8
  51              		.cfi_def_cfa 2, 16
  52 0010 13010101 		addi	sp,sp,16
  53              		.cfi_def_cfa_offset 0
  54 0014 67800000 		jr	ra
  55              		.cfi_endproc
  56              	.LFE25:
  58              		.globl	_ZN6ThreadD1Ev
GAS LISTING /tmp/ccDfMLJb.s 			page 3


  59              		.set	_ZN6ThreadD1Ev,_ZN6ThreadD2Ev
  60              		.align	2
  61              		.globl	_ZN6Thread12startWrapperEPv
  63              	_ZN6Thread12startWrapperEPv:
  64              	.LFB31:
  36:src/syscall_cpp.cpp **** 
  37:src/syscall_cpp.cpp **** Thread::Thread() {
  38:src/syscall_cpp.cpp ****     thread_create(&myHandle, &startWrapper, this);
  39:src/syscall_cpp.cpp ****     myHandle->setStart(false);
  40:src/syscall_cpp.cpp **** }
  41:src/syscall_cpp.cpp **** 
  42:src/syscall_cpp.cpp **** void Thread::startWrapper(void *thread) {
  65              		.loc 2 42 41 is_stmt 1
  66              		.cfi_startproc
  67              	.LVL2:
  68 0018 130101FF 		addi	sp,sp,-16
  69              		.cfi_def_cfa_offset 16
  70 001c 23341100 		sd	ra,8(sp)
  71 0020 23308100 		sd	s0,0(sp)
  72              		.cfi_offset 1, -8
  73              		.cfi_offset 8, -16
  74 0024 13040101 		addi	s0,sp,16
  75              		.cfi_def_cfa 8, 0
  43:src/syscall_cpp.cpp ****     Thread* t = (Thread*)thread;
  76              		.loc 2 43 5
  77              	.LVL3:
  44:src/syscall_cpp.cpp ****     t->run();
  78              		.loc 2 44 5
  79              		.loc 2 44 12 is_stmt 0
  80 0028 83370500 		ld	a5,0(a0)
  81 002c 83B70701 		ld	a5,16(a5)
  82              		.loc 2 44 11
  83 0030 E7800700 		jalr	a5
  84              	.LVL4:
  45:src/syscall_cpp.cpp **** }
  85              		.loc 2 45 1
  86 0034 83308100 		ld	ra,8(sp)
  87              		.cfi_restore 1
  88 0038 03340100 		ld	s0,0(sp)
  89              		.cfi_restore 8
  90              		.cfi_def_cfa 2, 16
  91 003c 13010101 		addi	sp,sp,16
  92              		.cfi_def_cfa_offset 0
  93 0040 67800000 		jr	ra
  94              		.cfi_endproc
  95              	.LFE31:
  97              		.align	2
  98              		.globl	_ZN6ThreadD0Ev
 100              	_ZN6ThreadD0Ev:
 101              	.LFB27:
  33:src/syscall_cpp.cpp **** 
 102              		.loc 2 33 1 is_stmt 1
 103              		.cfi_startproc
 104              	.LVL5:
 105 0044 130101FF 		addi	sp,sp,-16
 106              		.cfi_def_cfa_offset 16
 107 0048 23341100 		sd	ra,8(sp)
GAS LISTING /tmp/ccDfMLJb.s 			page 4


 108 004c 23308100 		sd	s0,0(sp)
 109              		.cfi_offset 1, -8
 110              		.cfi_offset 8, -16
 111 0050 13040101 		addi	s0,sp,16
 112              		.cfi_def_cfa 8, 0
  35:src/syscall_cpp.cpp **** 
 113              		.loc 2 35 1 is_stmt 0
 114 0054 97000000 		call	_ZdlPv@plt
 114      E7800000 
 115              	.LVL6:
 116 005c 83308100 		ld	ra,8(sp)
 117              		.cfi_restore 1
 118 0060 03340100 		ld	s0,0(sp)
 119              		.cfi_restore 8
 120              		.cfi_def_cfa 2, 16
 121 0064 13010101 		addi	sp,sp,16
 122              		.cfi_def_cfa_offset 0
 123 0068 67800000 		jr	ra
 124              		.cfi_endproc
 125              	.LFE27:
 127              		.align	2
 128              		.globl	_ZN7Console4getcEv
 130              	_ZN7Console4getcEv:
 131              	.LFB17:
  10:src/syscall_cpp.cpp ****     return __getc();
 132              		.loc 2 10 22 is_stmt 1
 133              		.cfi_startproc
 134 006c 130101FF 		addi	sp,sp,-16
 135              		.cfi_def_cfa_offset 16
 136 0070 23341100 		sd	ra,8(sp)
 137 0074 23308100 		sd	s0,0(sp)
 138              		.cfi_offset 1, -8
 139              		.cfi_offset 8, -16
 140 0078 13040101 		addi	s0,sp,16
 141              		.cfi_def_cfa 8, 0
  11:src/syscall_cpp.cpp **** }
 142              		.loc 2 11 5
  11:src/syscall_cpp.cpp **** }
 143              		.loc 2 11 18 is_stmt 0
 144 007c 97000000 		call	__getc@plt
 144      E7800000 
 145              	.LVL7:
  12:src/syscall_cpp.cpp **** 
 146              		.loc 2 12 1
 147 0084 83308100 		ld	ra,8(sp)
 148              		.cfi_restore 1
 149 0088 03340100 		ld	s0,0(sp)
 150              		.cfi_restore 8
 151              		.cfi_def_cfa 2, 16
 152 008c 13010101 		addi	sp,sp,16
 153              		.cfi_def_cfa_offset 0
 154 0090 67800000 		jr	ra
 155              		.cfi_endproc
 156              	.LFE17:
 158              		.align	2
 159              		.globl	_ZN7Console4putcEc
 161              	_ZN7Console4putcEc:
GAS LISTING /tmp/ccDfMLJb.s 			page 5


 162              	.LFB18:
  14:src/syscall_cpp.cpp ****     __putc(c);
 163              		.loc 2 14 28 is_stmt 1
 164              		.cfi_startproc
 165              	.LVL8:
 166 0094 130101FF 		addi	sp,sp,-16
 167              		.cfi_def_cfa_offset 16
 168 0098 23341100 		sd	ra,8(sp)
 169 009c 23308100 		sd	s0,0(sp)
 170              		.cfi_offset 1, -8
 171              		.cfi_offset 8, -16
 172 00a0 13040101 		addi	s0,sp,16
 173              		.cfi_def_cfa 8, 0
  15:src/syscall_cpp.cpp **** }
 174              		.loc 2 15 5
  15:src/syscall_cpp.cpp **** }
 175              		.loc 2 15 11 is_stmt 0
 176 00a4 97000000 		call	__putc@plt
 176      E7800000 
 177              	.LVL9:
  16:src/syscall_cpp.cpp **** 
 178              		.loc 2 16 1
 179 00ac 83308100 		ld	ra,8(sp)
 180              		.cfi_restore 1
 181 00b0 03340100 		ld	s0,0(sp)
 182              		.cfi_restore 8
 183              		.cfi_def_cfa 2, 16
 184 00b4 13010101 		addi	sp,sp,16
 185              		.cfi_def_cfa_offset 0
 186 00b8 67800000 		jr	ra
 187              		.cfi_endproc
 188              	.LFE18:
 190              		.align	2
 191              		.globl	_ZN6ThreadC2EPFvPvES0_
 193              	_ZN6ThreadC2EPFvPvES0_:
 194              	.LFB20:
  18:src/syscall_cpp.cpp ****     thread_create(&myHandle, body, arg);
 195              		.loc 2 18 1 is_stmt 1
 196              		.cfi_startproc
 197              	.LVL10:
 198 00bc 130101FE 		addi	sp,sp,-32
 199              		.cfi_def_cfa_offset 32
 200 00c0 233C1100 		sd	ra,24(sp)
 201 00c4 23388100 		sd	s0,16(sp)
 202 00c8 23349100 		sd	s1,8(sp)
 203              		.cfi_offset 1, -8
 204              		.cfi_offset 8, -16
 205              		.cfi_offset 9, -24
 206 00cc 13040102 		addi	s0,sp,32
 207              		.cfi_def_cfa 8, 0
 208 00d0 93040500 		mv	s1,a0
 209              	.LBB2:
  18:src/syscall_cpp.cpp ****     thread_create(&myHandle, body, arg);
 210              		.loc 2 18 47 is_stmt 0
 211 00d4 97070000 		lla	a5,_ZTV6Thread+16
 211      93870700 
 212 00dc 2330F500 		sd	a5,0(a0)
GAS LISTING /tmp/ccDfMLJb.s 			page 6


  19:src/syscall_cpp.cpp ****     myHandle->setStart(false);
 213              		.loc 2 19 5 is_stmt 1
  19:src/syscall_cpp.cpp ****     myHandle->setStart(false);
 214              		.loc 2 19 18 is_stmt 0
 215 00e0 13058500 		addi	a0,a0,8
 216              	.LVL11:
 217 00e4 97000000 		call	_Z13thread_createPP7_threadPFvPvES2_@plt
 217      E7800000 
 218              	.LVL12:
  20:src/syscall_cpp.cpp **** }
 219              		.loc 2 20 5 is_stmt 1
  20:src/syscall_cpp.cpp **** }
 220              		.loc 2 20 23 is_stmt 0
 221 00ec 93050000 		li	a1,0
 222 00f0 03B58400 		ld	a0,8(s1)
 223 00f4 97000000 		call	_ZN7_thread8setStartEb@plt
 223      E7800000 
 224              	.LVL13:
 225              	.LBE2:
  21:src/syscall_cpp.cpp **** 
 226              		.loc 2 21 1
 227 00fc 83308101 		ld	ra,24(sp)
 228              		.cfi_restore 1
 229 0100 03340101 		ld	s0,16(sp)
 230              		.cfi_restore 8
 231              		.cfi_def_cfa 2, 32
 232 0104 83348100 		ld	s1,8(sp)
 233              		.cfi_restore 9
 234              	.LVL14:
 235 0108 13010102 		addi	sp,sp,32
 236              		.cfi_def_cfa_offset 0
 237 010c 67800000 		jr	ra
 238              		.cfi_endproc
 239              	.LFE20:
 241              		.globl	_ZN6ThreadC1EPFvPvES0_
 242              		.set	_ZN6ThreadC1EPFvPvES0_,_ZN6ThreadC2EPFvPvES0_
 243              		.align	2
 244              		.globl	_ZN6Thread5startEv
 246              	_ZN6Thread5startEv:
 247              	.LFB22:
  23:src/syscall_cpp.cpp ****     myHandle->setStart(true);
 248              		.loc 2 23 21 is_stmt 1
 249              		.cfi_startproc
 250              	.LVL15:
 251 0110 130101FF 		addi	sp,sp,-16
 252              		.cfi_def_cfa_offset 16
 253 0114 23341100 		sd	ra,8(sp)
 254 0118 23308100 		sd	s0,0(sp)
 255              		.cfi_offset 1, -8
 256              		.cfi_offset 8, -16
 257 011c 13040101 		addi	s0,sp,16
 258              		.cfi_def_cfa 8, 0
  24:src/syscall_cpp.cpp ****     return 0;
 259              		.loc 2 24 5
  24:src/syscall_cpp.cpp ****     return 0;
 260              		.loc 2 24 23 is_stmt 0
 261 0120 93051000 		li	a1,1
GAS LISTING /tmp/ccDfMLJb.s 			page 7


 262 0124 03358500 		ld	a0,8(a0)
 263              	.LVL16:
 264 0128 97000000 		call	_ZN7_thread8setStartEb@plt
 264      E7800000 
 265              	.LVL17:
  25:src/syscall_cpp.cpp **** }
 266              		.loc 2 25 5 is_stmt 1
  26:src/syscall_cpp.cpp **** 
 267              		.loc 2 26 1 is_stmt 0
 268 0130 13050000 		li	a0,0
 269 0134 83308100 		ld	ra,8(sp)
 270              		.cfi_restore 1
 271 0138 03340100 		ld	s0,0(sp)
 272              		.cfi_restore 8
 273              		.cfi_def_cfa 2, 16
 274 013c 13010101 		addi	sp,sp,16
 275              		.cfi_def_cfa_offset 0
 276 0140 67800000 		jr	ra
 277              		.cfi_endproc
 278              	.LFE22:
 280              		.align	2
 281              		.globl	_ZN6Thread8dispatchEv
 283              	_ZN6Thread8dispatchEv:
 284              	.LFB23:
  28:src/syscall_cpp.cpp ****     thread_dispatch();
 285              		.loc 2 28 25 is_stmt 1
 286              		.cfi_startproc
 287 0144 130101FF 		addi	sp,sp,-16
 288              		.cfi_def_cfa_offset 16
 289 0148 23341100 		sd	ra,8(sp)
 290 014c 23308100 		sd	s0,0(sp)
 291              		.cfi_offset 1, -8
 292              		.cfi_offset 8, -16
 293 0150 13040101 		addi	s0,sp,16
 294              		.cfi_def_cfa 8, 0
  29:src/syscall_cpp.cpp **** 
 295              		.loc 2 29 5
  29:src/syscall_cpp.cpp **** 
 296              		.loc 2 29 20 is_stmt 0
 297 0154 97000000 		call	_Z15thread_dispatchv@plt
 297      E7800000 
 298              	.LVL18:
  31:src/syscall_cpp.cpp **** 
 299              		.loc 2 31 1
 300 015c 83308100 		ld	ra,8(sp)
 301              		.cfi_restore 1
 302 0160 03340100 		ld	s0,0(sp)
 303              		.cfi_restore 8
 304              		.cfi_def_cfa 2, 16
 305 0164 13010101 		addi	sp,sp,16
 306              		.cfi_def_cfa_offset 0
 307 0168 67800000 		jr	ra
 308              		.cfi_endproc
 309              	.LFE23:
 311              		.align	2
 312              		.globl	_ZN6ThreadC2Ev
 314              	_ZN6ThreadC2Ev:
GAS LISTING /tmp/ccDfMLJb.s 			page 8


 315              	.LFB29:
  37:src/syscall_cpp.cpp ****     thread_create(&myHandle, &startWrapper, this);
 316              		.loc 2 37 1 is_stmt 1
 317              		.cfi_startproc
 318              	.LVL19:
 319 016c 130101FE 		addi	sp,sp,-32
 320              		.cfi_def_cfa_offset 32
 321 0170 233C1100 		sd	ra,24(sp)
 322 0174 23388100 		sd	s0,16(sp)
 323 0178 23349100 		sd	s1,8(sp)
 324              		.cfi_offset 1, -8
 325              		.cfi_offset 8, -16
 326              		.cfi_offset 9, -24
 327 017c 13040102 		addi	s0,sp,32
 328              		.cfi_def_cfa 8, 0
 329 0180 93040500 		mv	s1,a0
 330              	.LBB3:
  37:src/syscall_cpp.cpp ****     thread_create(&myHandle, &startWrapper, this);
 331              		.loc 2 37 16 is_stmt 0
 332 0184 97070000 		lla	a5,_ZTV6Thread+16
 332      93870700 
 333 018c 2330F500 		sd	a5,0(a0)
  38:src/syscall_cpp.cpp ****     myHandle->setStart(false);
 334              		.loc 2 38 5 is_stmt 1
  38:src/syscall_cpp.cpp ****     myHandle->setStart(false);
 335              		.loc 2 38 18 is_stmt 0
 336 0190 13060500 		mv	a2,a0
 337 0194 97050000 		lla	a1,_ZN6Thread12startWrapperEPv
 337      93850500 
 338 019c 13058500 		addi	a0,a0,8
 339              	.LVL20:
 340 01a0 97000000 		call	_Z13thread_createPP7_threadPFvPvES2_@plt
 340      E7800000 
 341              	.LVL21:
  39:src/syscall_cpp.cpp **** }
 342              		.loc 2 39 5 is_stmt 1
  39:src/syscall_cpp.cpp **** }
 343              		.loc 2 39 23 is_stmt 0
 344 01a8 93050000 		li	a1,0
 345 01ac 03B58400 		ld	a0,8(s1)
 346 01b0 97000000 		call	_ZN7_thread8setStartEb@plt
 346      E7800000 
 347              	.LVL22:
 348              	.LBE3:
  40:src/syscall_cpp.cpp **** 
 349              		.loc 2 40 1
 350 01b8 83308101 		ld	ra,24(sp)
 351              		.cfi_restore 1
 352 01bc 03340101 		ld	s0,16(sp)
 353              		.cfi_restore 8
 354              		.cfi_def_cfa 2, 32
 355 01c0 83348100 		ld	s1,8(sp)
 356              		.cfi_restore 9
 357              	.LVL23:
 358 01c4 13010102 		addi	sp,sp,32
 359              		.cfi_def_cfa_offset 0
 360 01c8 67800000 		jr	ra
GAS LISTING /tmp/ccDfMLJb.s 			page 9


 361              		.cfi_endproc
 362              	.LFE29:
 364              		.globl	_ZN6ThreadC1Ev
 365              		.set	_ZN6ThreadC1Ev,_ZN6ThreadC2Ev
 366              		.weak	_ZTV6Thread
 367              		.section	.data.rel.ro.local._ZTV6Thread,"awG",@progbits,_ZTV6Thread,comdat
 368              		.align	3
 371              	_ZTV6Thread:
 372 0000 00000000 		.dword	0
 372      00000000 
 373 0008 00000000 		.dword	0
 373      00000000 
 374 0010 00000000 		.dword	_ZN6ThreadD1Ev
 374      00000000 
 375 0018 00000000 		.dword	_ZN6ThreadD0Ev
 375      00000000 
 376 0020 00000000 		.dword	_ZN6Thread3runEv
 376      00000000 
 377              		.text
 378              	.Letext0:
 379              		.file 3 "src/../h/../lib/hw.h"
 380              		.file 4 "src/../h/syscall_c.hpp"
 381              		.file 5 "src/../h/_thread.hpp"
 382              		.file 6 "src/../lib/console.h"
GAS LISTING /tmp/ccDfMLJb.s 			page 10


DEFINED SYMBOLS
                            *ABS*:0000000000000000 syscall_cpp.cpp
     /tmp/ccDfMLJb.s:10     .text._ZN6Thread3runEv:0000000000000000 _ZN6Thread3runEv
     /tmp/ccDfMLJb.s:14     .text._ZN6Thread3runEv:0000000000000000 .L0 
     /tmp/ccDfMLJb.s:16     .text._ZN6Thread3runEv:0000000000000000 .L0 
     /tmp/ccDfMLJb.s:17     .text._ZN6Thread3runEv:0000000000000004 .L0 
     /tmp/ccDfMLJb.s:19     .text._ZN6Thread3runEv:0000000000000008 .L0 
     /tmp/ccDfMLJb.s:21     .text._ZN6Thread3runEv:000000000000000c .L0 
     /tmp/ccDfMLJb.s:23     .text._ZN6Thread3runEv:000000000000000c .L0 
     /tmp/ccDfMLJb.s:24     .text._ZN6Thread3runEv:0000000000000010 .L0 
     /tmp/ccDfMLJb.s:25     .text._ZN6Thread3runEv:0000000000000010 .L0 
     /tmp/ccDfMLJb.s:27     .text._ZN6Thread3runEv:0000000000000014 .L0 
     /tmp/ccDfMLJb.s:29     .text._ZN6Thread3runEv:0000000000000018 .L0 
     /tmp/ccDfMLJb.s:36     .text:0000000000000000 _ZN6ThreadD2Ev
     /tmp/ccDfMLJb.s:40     .text:0000000000000000 .L0 
     /tmp/ccDfMLJb.s:42     .text:0000000000000000 .L0 
     /tmp/ccDfMLJb.s:43     .text:0000000000000004 .L0 
     /tmp/ccDfMLJb.s:45     .text:0000000000000008 .L0 
     /tmp/ccDfMLJb.s:47     .text:000000000000000c .L0 
     /tmp/ccDfMLJb.s:49     .text:000000000000000c .L0 
     /tmp/ccDfMLJb.s:50     .text:0000000000000010 .L0 
     /tmp/ccDfMLJb.s:51     .text:0000000000000010 .L0 
     /tmp/ccDfMLJb.s:53     .text:0000000000000014 .L0 
     /tmp/ccDfMLJb.s:55     .text:0000000000000018 .L0 
     /tmp/ccDfMLJb.s:36     .text:0000000000000000 _ZN6ThreadD1Ev
     /tmp/ccDfMLJb.s:63     .text:0000000000000018 _ZN6Thread12startWrapperEPv
     /tmp/ccDfMLJb.s:66     .text:0000000000000018 .L0 
     /tmp/ccDfMLJb.s:68     .text:0000000000000018 .L0 
     /tmp/ccDfMLJb.s:69     .text:000000000000001c .L0 
     /tmp/ccDfMLJb.s:72     .text:0000000000000024 .L0 
     /tmp/ccDfMLJb.s:73     .text:0000000000000024 .L0 
     /tmp/ccDfMLJb.s:75     .text:0000000000000028 .L0 
     /tmp/ccDfMLJb.s:78     .text:0000000000000028 .L0 
     /tmp/ccDfMLJb.s:79     .text:0000000000000028 .L0 
     /tmp/ccDfMLJb.s:80     .text:0000000000000028 .L0 
     /tmp/ccDfMLJb.s:83     .text:0000000000000030 .L0 
     /tmp/ccDfMLJb.s:86     .text:0000000000000034 .L0 
     /tmp/ccDfMLJb.s:87     .text:0000000000000038 .L0 
     /tmp/ccDfMLJb.s:89     .text:000000000000003c .L0 
     /tmp/ccDfMLJb.s:90     .text:000000000000003c .L0 
     /tmp/ccDfMLJb.s:92     .text:0000000000000040 .L0 
     /tmp/ccDfMLJb.s:94     .text:0000000000000044 .L0 
     /tmp/ccDfMLJb.s:100    .text:0000000000000044 _ZN6ThreadD0Ev
     /tmp/ccDfMLJb.s:103    .text:0000000000000044 .L0 
     /tmp/ccDfMLJb.s:105    .text:0000000000000044 .L0 
     /tmp/ccDfMLJb.s:106    .text:0000000000000048 .L0 
     /tmp/ccDfMLJb.s:109    .text:0000000000000050 .L0 
     /tmp/ccDfMLJb.s:110    .text:0000000000000050 .L0 
     /tmp/ccDfMLJb.s:112    .text:0000000000000054 .L0 
     /tmp/ccDfMLJb.s:114    .text:0000000000000054 .L0 
     /tmp/ccDfMLJb.s:117    .text:0000000000000060 .L0 
     /tmp/ccDfMLJb.s:119    .text:0000000000000064 .L0 
     /tmp/ccDfMLJb.s:120    .text:0000000000000064 .L0 
     /tmp/ccDfMLJb.s:122    .text:0000000000000068 .L0 
     /tmp/ccDfMLJb.s:124    .text:000000000000006c .L0 
     /tmp/ccDfMLJb.s:130    .text:000000000000006c _ZN7Console4getcEv
     /tmp/ccDfMLJb.s:133    .text:000000000000006c .L0 
GAS LISTING /tmp/ccDfMLJb.s 			page 11


     /tmp/ccDfMLJb.s:134    .text:000000000000006c .L0 
     /tmp/ccDfMLJb.s:135    .text:0000000000000070 .L0 
     /tmp/ccDfMLJb.s:138    .text:0000000000000078 .L0 
     /tmp/ccDfMLJb.s:139    .text:0000000000000078 .L0 
     /tmp/ccDfMLJb.s:141    .text:000000000000007c .L0 
     /tmp/ccDfMLJb.s:143    .text:000000000000007c .L0 
     /tmp/ccDfMLJb.s:144    .text:000000000000007c .L0 
     /tmp/ccDfMLJb.s:147    .text:0000000000000084 .L0 
     /tmp/ccDfMLJb.s:148    .text:0000000000000088 .L0 
     /tmp/ccDfMLJb.s:150    .text:000000000000008c .L0 
     /tmp/ccDfMLJb.s:151    .text:000000000000008c .L0 
     /tmp/ccDfMLJb.s:153    .text:0000000000000090 .L0 
     /tmp/ccDfMLJb.s:155    .text:0000000000000094 .L0 
     /tmp/ccDfMLJb.s:161    .text:0000000000000094 _ZN7Console4putcEc
     /tmp/ccDfMLJb.s:164    .text:0000000000000094 .L0 
     /tmp/ccDfMLJb.s:166    .text:0000000000000094 .L0 
     /tmp/ccDfMLJb.s:167    .text:0000000000000098 .L0 
     /tmp/ccDfMLJb.s:170    .text:00000000000000a0 .L0 
     /tmp/ccDfMLJb.s:171    .text:00000000000000a0 .L0 
     /tmp/ccDfMLJb.s:173    .text:00000000000000a4 .L0 
     /tmp/ccDfMLJb.s:175    .text:00000000000000a4 .L0 
     /tmp/ccDfMLJb.s:176    .text:00000000000000a4 .L0 
     /tmp/ccDfMLJb.s:179    .text:00000000000000ac .L0 
     /tmp/ccDfMLJb.s:180    .text:00000000000000b0 .L0 
     /tmp/ccDfMLJb.s:182    .text:00000000000000b4 .L0 
     /tmp/ccDfMLJb.s:183    .text:00000000000000b4 .L0 
     /tmp/ccDfMLJb.s:185    .text:00000000000000b8 .L0 
     /tmp/ccDfMLJb.s:187    .text:00000000000000bc .L0 
     /tmp/ccDfMLJb.s:193    .text:00000000000000bc _ZN6ThreadC2EPFvPvES0_
     /tmp/ccDfMLJb.s:196    .text:00000000000000bc .L0 
     /tmp/ccDfMLJb.s:198    .text:00000000000000bc .L0 
     /tmp/ccDfMLJb.s:199    .text:00000000000000c0 .L0 
     /tmp/ccDfMLJb.s:203    .text:00000000000000cc .L0 
     /tmp/ccDfMLJb.s:204    .text:00000000000000cc .L0 
     /tmp/ccDfMLJb.s:205    .text:00000000000000cc .L0 
     /tmp/ccDfMLJb.s:207    .text:00000000000000d0 .L0 
     /tmp/ccDfMLJb.s:371    .data.rel.ro.local._ZTV6Thread:0000000000000000 _ZTV6Thread
     /tmp/ccDfMLJb.s:211    .text:00000000000000d4 .L0 
     /tmp/ccDfMLJb.s:214    .text:00000000000000e0 .L0 
     /tmp/ccDfMLJb.s:215    .text:00000000000000e0 .L0 
     /tmp/ccDfMLJb.s:220    .text:00000000000000ec .L0 
     /tmp/ccDfMLJb.s:221    .text:00000000000000ec .L0 
     /tmp/ccDfMLJb.s:227    .text:00000000000000fc .L0 
     /tmp/ccDfMLJb.s:228    .text:0000000000000100 .L0 
     /tmp/ccDfMLJb.s:230    .text:0000000000000104 .L0 
     /tmp/ccDfMLJb.s:231    .text:0000000000000104 .L0 
     /tmp/ccDfMLJb.s:233    .text:0000000000000108 .L0 
     /tmp/ccDfMLJb.s:236    .text:000000000000010c .L0 
     /tmp/ccDfMLJb.s:238    .text:0000000000000110 .L0 
     /tmp/ccDfMLJb.s:193    .text:00000000000000bc _ZN6ThreadC1EPFvPvES0_
     /tmp/ccDfMLJb.s:246    .text:0000000000000110 _ZN6Thread5startEv
     /tmp/ccDfMLJb.s:249    .text:0000000000000110 .L0 
     /tmp/ccDfMLJb.s:251    .text:0000000000000110 .L0 
     /tmp/ccDfMLJb.s:252    .text:0000000000000114 .L0 
     /tmp/ccDfMLJb.s:255    .text:000000000000011c .L0 
     /tmp/ccDfMLJb.s:256    .text:000000000000011c .L0 
     /tmp/ccDfMLJb.s:258    .text:0000000000000120 .L0 
GAS LISTING /tmp/ccDfMLJb.s 			page 12


     /tmp/ccDfMLJb.s:260    .text:0000000000000120 .L0 
     /tmp/ccDfMLJb.s:261    .text:0000000000000120 .L0 
     /tmp/ccDfMLJb.s:267    .text:0000000000000130 .L0 
     /tmp/ccDfMLJb.s:268    .text:0000000000000130 .L0 
     /tmp/ccDfMLJb.s:270    .text:0000000000000138 .L0 
     /tmp/ccDfMLJb.s:272    .text:000000000000013c .L0 
     /tmp/ccDfMLJb.s:273    .text:000000000000013c .L0 
     /tmp/ccDfMLJb.s:275    .text:0000000000000140 .L0 
     /tmp/ccDfMLJb.s:277    .text:0000000000000144 .L0 
     /tmp/ccDfMLJb.s:283    .text:0000000000000144 _ZN6Thread8dispatchEv
     /tmp/ccDfMLJb.s:286    .text:0000000000000144 .L0 
     /tmp/ccDfMLJb.s:287    .text:0000000000000144 .L0 
     /tmp/ccDfMLJb.s:288    .text:0000000000000148 .L0 
     /tmp/ccDfMLJb.s:291    .text:0000000000000150 .L0 
     /tmp/ccDfMLJb.s:292    .text:0000000000000150 .L0 
     /tmp/ccDfMLJb.s:294    .text:0000000000000154 .L0 
     /tmp/ccDfMLJb.s:296    .text:0000000000000154 .L0 
     /tmp/ccDfMLJb.s:297    .text:0000000000000154 .L0 
     /tmp/ccDfMLJb.s:300    .text:000000000000015c .L0 
     /tmp/ccDfMLJb.s:301    .text:0000000000000160 .L0 
     /tmp/ccDfMLJb.s:303    .text:0000000000000164 .L0 
     /tmp/ccDfMLJb.s:304    .text:0000000000000164 .L0 
     /tmp/ccDfMLJb.s:306    .text:0000000000000168 .L0 
     /tmp/ccDfMLJb.s:308    .text:000000000000016c .L0 
     /tmp/ccDfMLJb.s:314    .text:000000000000016c _ZN6ThreadC2Ev
     /tmp/ccDfMLJb.s:317    .text:000000000000016c .L0 
     /tmp/ccDfMLJb.s:319    .text:000000000000016c .L0 
     /tmp/ccDfMLJb.s:320    .text:0000000000000170 .L0 
     /tmp/ccDfMLJb.s:324    .text:000000000000017c .L0 
     /tmp/ccDfMLJb.s:325    .text:000000000000017c .L0 
     /tmp/ccDfMLJb.s:326    .text:000000000000017c .L0 
     /tmp/ccDfMLJb.s:328    .text:0000000000000180 .L0 
     /tmp/ccDfMLJb.s:332    .text:0000000000000184 .L0 
     /tmp/ccDfMLJb.s:335    .text:0000000000000190 .L0 
     /tmp/ccDfMLJb.s:336    .text:0000000000000190 .L0 
     /tmp/ccDfMLJb.s:343    .text:00000000000001a8 .L0 
     /tmp/ccDfMLJb.s:344    .text:00000000000001a8 .L0 
     /tmp/ccDfMLJb.s:350    .text:00000000000001b8 .L0 
     /tmp/ccDfMLJb.s:351    .text:00000000000001bc .L0 
     /tmp/ccDfMLJb.s:353    .text:00000000000001c0 .L0 
     /tmp/ccDfMLJb.s:354    .text:00000000000001c0 .L0 
     /tmp/ccDfMLJb.s:356    .text:00000000000001c4 .L0 
     /tmp/ccDfMLJb.s:359    .text:00000000000001c8 .L0 
     /tmp/ccDfMLJb.s:361    .text:00000000000001cc .L0 
     /tmp/ccDfMLJb.s:314    .text:000000000000016c _ZN6ThreadC1Ev
     /tmp/ccDfMLJb.s:32     .text._ZN6Thread3runEv:0000000000000018 .L0 
     /tmp/ccDfMLJb.s:383    .text:00000000000001cc .L0 
     /tmp/ccDfMLJb.s:211    .text:00000000000000d4 .L0 
     /tmp/ccDfMLJb.s:332    .text:0000000000000184 .L0 
     /tmp/ccDfMLJb.s:337    .text:0000000000000194 .L0 
     /tmp/ccDfMLJb.s:1273   .debug_abbrev:0000000000000000 .Ldebug_abbrev0
     /tmp/ccDfMLJb.s:2520   .debug_str:0000000000000448 .LASF75
     /tmp/ccDfMLJb.s:2502   .debug_str:00000000000003b5 .LASF76
     /tmp/ccDfMLJb.s:2406   .debug_str:00000000000000e6 .LASF77
     /tmp/ccDfMLJb.s:2358   .debug_ranges:0000000000000000 .Ldebug_ranges0
     /tmp/ccDfMLJb.s:2366   .debug_line:0000000000000000 .Ldebug_line0
     /tmp/ccDfMLJb.s:2464   .debug_str:00000000000002ca .LASF0
GAS LISTING /tmp/ccDfMLJb.s 			page 13


     /tmp/ccDfMLJb.s:2480   .debug_str:000000000000030a .LASF1
     /tmp/ccDfMLJb.s:2454   .debug_str:0000000000000286 .LASF2
     /tmp/ccDfMLJb.s:2432   .debug_str:00000000000001bc .LASF4
     /tmp/ccDfMLJb.s:2508   .debug_str:00000000000003e5 .LASF3
     /tmp/ccDfMLJb.s:2382   .debug_str:0000000000000041 .LASF5
     /tmp/ccDfMLJb.s:2484   .debug_str:0000000000000330 .LASF6
     /tmp/ccDfMLJb.s:2462   .debug_str:00000000000002b7 .LASF7
     /tmp/ccDfMLJb.s:2528   .debug_str:000000000000052b .LASF8
     /tmp/ccDfMLJb.s:2418   .debug_str:000000000000015e .LASF9
     /tmp/ccDfMLJb.s:2490   .debug_str:000000000000035e .LASF10
     /tmp/ccDfMLJb.s:2522   .debug_str:000000000000050c .LASF11
     /tmp/ccDfMLJb.s:2384   .debug_str:0000000000000048 .LASF12
     /tmp/ccDfMLJb.s:2370   .debug_str:0000000000000009 .LASF13
     /tmp/ccDfMLJb.s:2390   .debug_str:0000000000000070 .LASF14
     /tmp/ccDfMLJb.s:2506   .debug_str:00000000000003cf .LASF15
     /tmp/ccDfMLJb.s:2394   .debug_str:000000000000008c .LASF16
     /tmp/ccDfMLJb.s:2368   .debug_str:0000000000000000 .LASF17
     /tmp/ccDfMLJb.s:2430   .debug_str:00000000000001b4 .LASF37
     /tmp/ccDfMLJb.s:2376   .debug_str:0000000000000027 .LASF78
     /tmp/ccDfMLJb.s:2524   .debug_str:000000000000051b .LASF18
     /tmp/ccDfMLJb.s:2488   .debug_str:000000000000034e .LASF20
     /tmp/ccDfMLJb.s:2486   .debug_str:0000000000000343 .LASF51
     /tmp/ccDfMLJb.s:2452   .debug_str:000000000000026b .LASF53
     /tmp/ccDfMLJb.s:2456   .debug_str:0000000000000294 .LASF19
     /tmp/ccDfMLJb.s:2450   .debug_str:0000000000000250 .LASF21
     /tmp/ccDfMLJb.s:2440   .debug_str:00000000000001eb .LASF22
     /tmp/ccDfMLJb.s:2538   .debug_str:0000000000000580 .LASF23
     /tmp/ccDfMLJb.s:2500   .debug_str:00000000000003b0 .LASF79
     /tmp/ccDfMLJb.s:2504   .debug_str:00000000000003c9 .LASF55
     /tmp/ccDfMLJb.s:2516   .debug_str:0000000000000425 .LASF56
     /tmp/ccDfMLJb.s:2402   .debug_str:00000000000000d9 .LASF80
     /tmp/ccDfMLJb.s:2492   .debug_str:000000000000036d .LASF39
     /tmp/ccDfMLJb.s:2400   .debug_str:00000000000000bf .LASF41
     /tmp/ccDfMLJb.s:2374   .debug_str:000000000000001e .LASF24
     /tmp/ccDfMLJb.s:2436   .debug_str:00000000000001cc .LASF25
     /tmp/ccDfMLJb.s:2532   .debug_str:000000000000054b .LASF81
     /tmp/ccDfMLJb.s:2386   .debug_str:0000000000000058 .LASF26
     /tmp/ccDfMLJb.s:2470   .debug_str:00000000000002e6 .LASF27
     /tmp/ccDfMLJb.s:2468   .debug_str:00000000000002e0 .LASF28
     /tmp/ccDfMLJb.s:2438   .debug_str:00000000000001e3 .LASF29
     /tmp/ccDfMLJb.s:2474   .debug_str:00000000000002f2 .LASF30
     /tmp/ccDfMLJb.s:2434   .debug_str:00000000000001c3 .LASF31
     /tmp/ccDfMLJb.s:2476   .debug_str:00000000000002fc .LASF32
     /tmp/ccDfMLJb.s:2442   .debug_str:00000000000001f8 .LASF33
     /tmp/ccDfMLJb.s:2420   .debug_str:000000000000016c .LASF35
     /tmp/ccDfMLJb.s:2536   .debug_str:0000000000000572 .LASF43
     /tmp/ccDfMLJb.s:2448   .debug_str:0000000000000224 .LASF45
     /tmp/ccDfMLJb.s:2466   .debug_str:00000000000002d7 .LASF34
     /tmp/ccDfMLJb.s:2514   .debug_str:000000000000040e .LASF36
     /tmp/ccDfMLJb.s:2428   .debug_str:00000000000001ac .LASF38
     /tmp/ccDfMLJb.s:2372   .debug_str:0000000000000019 .LASF40
     /tmp/ccDfMLJb.s:2388   .debug_str:000000000000005d .LASF42
     /tmp/ccDfMLJb.s:2458   .debug_str:00000000000002a0 .LASF44
     /tmp/ccDfMLJb.s:2482   .debug_str:000000000000031d .LASF46
     /tmp/ccDfMLJb.s:2424   .debug_str:0000000000000190 .LASF47
     /tmp/ccDfMLJb.s:2404   .debug_str:00000000000000e1 .LASF48
     /tmp/ccDfMLJb.s:2526   .debug_str:0000000000000524 .LASF49
GAS LISTING /tmp/ccDfMLJb.s 			page 14


     /tmp/ccDfMLJb.s:2460   .debug_str:00000000000002a5 .LASF82
     /tmp/ccDfMLJb.s:2446   .debug_str:0000000000000217 .LASF83
     /tmp/ccDfMLJb.s:2494   .debug_str:0000000000000378 .LASF50
     /tmp/ccDfMLJb.s:2380   .debug_str:0000000000000039 .LASF84
     /tmp/ccDfMLJb.s:2540   .debug_str:00000000000005a4 .LASF85
     /tmp/ccDfMLJb.s:2478   .debug_str:0000000000000304 .LASF52
     /tmp/ccDfMLJb.s:2414   .debug_str:000000000000013c .LASF54
     /tmp/ccDfMLJb.s:2412   .debug_str:0000000000000126 .LASF57
     /tmp/ccDfMLJb.s:2416   .debug_str:000000000000014f .LASF58
     /tmp/ccDfMLJb.s:2444   .debug_str:0000000000000206 .LASF86
     /tmp/ccDfMLJb.s:2542   .debug_str:00000000000005b3 .LASF59
     /tmp/ccDfMLJb.s:2410   .debug_str:0000000000000119 .LASF87
     /tmp/ccDfMLJb.s:2496   .debug_str:000000000000038f .LASF88
     /tmp/ccDfMLJb.s:2530   .debug_str:000000000000053b .LASF89
     /tmp/ccDfMLJb.s:64     .text:0000000000000018 .LFB31
     /tmp/ccDfMLJb.s:95     .text:0000000000000044 .LFE31
     /tmp/ccDfMLJb.s:2472   .debug_str:00000000000002eb .LASF66
     /tmp/ccDfMLJb.s:2209   .debug_loc:0000000000000000 .LLST0
     /tmp/ccDfMLJb.s:2223   .debug_loc:0000000000000039 .LLST1
     /tmp/ccDfMLJb.s:84     .text:0000000000000034 .LVL4
     /tmp/ccDfMLJb.s:2498   .debug_str:00000000000003ab .LASF60
     /tmp/ccDfMLJb.s:2534   .debug_str:0000000000000563 .LASF62
     /tmp/ccDfMLJb.s:315    .text:000000000000016c .LFB29
     /tmp/ccDfMLJb.s:362    .text:00000000000001cc .LFE29
     /tmp/ccDfMLJb.s:2237   .debug_loc:0000000000000072 .LLST8
     /tmp/ccDfMLJb.s:341    .text:00000000000001a8 .LVL21
     /tmp/ccDfMLJb.s:347    .text:00000000000001b8 .LVL22
     /tmp/ccDfMLJb.s:2378   .debug_str:000000000000002f .LASF61
     /tmp/ccDfMLJb.s:2396   .debug_str:00000000000000a2 .LASF63
     /tmp/ccDfMLJb.s:101    .text:0000000000000044 .LFB27
     /tmp/ccDfMLJb.s:125    .text:000000000000006c .LFE27
     /tmp/ccDfMLJb.s:2255   .debug_loc:00000000000000be .LLST2
     /tmp/ccDfMLJb.s:115    .text:000000000000005c .LVL6
     /tmp/ccDfMLJb.s:2518   .debug_str:0000000000000439 .LASF64
     /tmp/ccDfMLJb.s:37     .text:0000000000000000 .LFB25
     /tmp/ccDfMLJb.s:56     .text:0000000000000018 .LFE25
     /tmp/ccDfMLJb.s:284    .text:0000000000000144 .LFB23
     /tmp/ccDfMLJb.s:309    .text:000000000000016c .LFE23
     /tmp/ccDfMLJb.s:298    .text:000000000000015c .LVL18
     /tmp/ccDfMLJb.s:247    .text:0000000000000110 .LFB22
     /tmp/ccDfMLJb.s:278    .text:0000000000000144 .LFE22
     /tmp/ccDfMLJb.s:2269   .debug_loc:00000000000000f7 .LLST7
     /tmp/ccDfMLJb.s:265    .text:0000000000000130 .LVL17
     /tmp/ccDfMLJb.s:2426   .debug_str:0000000000000195 .LASF65
     /tmp/ccDfMLJb.s:194    .text:00000000000000bc .LFB20
     /tmp/ccDfMLJb.s:239    .text:0000000000000110 .LFE20
     /tmp/ccDfMLJb.s:2283   .debug_loc:0000000000000130 .LLST4
     /tmp/ccDfMLJb.s:2301   .debug_loc:000000000000017c .LLST5
     /tmp/ccDfMLJb.s:2315   .debug_loc:00000000000001b5 .LLST6
     /tmp/ccDfMLJb.s:218    .text:00000000000000ec .LVL12
     /tmp/ccDfMLJb.s:224    .text:00000000000000fc .LVL13
     /tmp/ccDfMLJb.s:162    .text:0000000000000094 .LFB18
     /tmp/ccDfMLJb.s:188    .text:00000000000000bc .LFE18
     /tmp/ccDfMLJb.s:2329   .debug_loc:00000000000001ee .LLST3
     /tmp/ccDfMLJb.s:177    .text:00000000000000ac .LVL9
     /tmp/ccDfMLJb.s:131    .text:000000000000006c .LFB17
     /tmp/ccDfMLJb.s:156    .text:0000000000000094 .LFE17
GAS LISTING /tmp/ccDfMLJb.s 			page 15


     /tmp/ccDfMLJb.s:145    .text:0000000000000084 .LVL7
     /tmp/ccDfMLJb.s:11     .text._ZN6Thread3runEv:0000000000000000 .LFB0
     /tmp/ccDfMLJb.s:30     .text._ZN6Thread3runEv:0000000000000018 .LFE0
     /tmp/ccDfMLJb.s:2544   .debug_str:00000000000005bc .LASF67
     /tmp/ccDfMLJb.s:2398   .debug_str:00000000000000b1 .LASF69
     /tmp/ccDfMLJb.s:2546   .debug_str:00000000000005e1 .LASF68
     /tmp/ccDfMLJb.s:2510   .debug_str:00000000000003f7 .LASF70
     /tmp/ccDfMLJb.s:2408   .debug_str:0000000000000104 .LASF71
     /tmp/ccDfMLJb.s:2392   .debug_str:000000000000007c .LASF72
     /tmp/ccDfMLJb.s:2512   .debug_str:0000000000000407 .LASF73
     /tmp/ccDfMLJb.s:2422   .debug_str:0000000000000189 .LASF74
     /tmp/ccDfMLJb.s:67     .text:0000000000000018 .LVL2
     /tmp/ccDfMLJb.s:77     .text:0000000000000028 .LVL3
     /tmp/ccDfMLJb.s:318    .text:000000000000016c .LVL19
     /tmp/ccDfMLJb.s:339    .text:00000000000001a0 .LVL20
     /tmp/ccDfMLJb.s:357    .text:00000000000001c4 .LVL23
     /tmp/ccDfMLJb.s:104    .text:0000000000000044 .LVL5
     /tmp/ccDfMLJb.s:250    .text:0000000000000110 .LVL15
     /tmp/ccDfMLJb.s:263    .text:0000000000000128 .LVL16
     /tmp/ccDfMLJb.s:197    .text:00000000000000bc .LVL10
     /tmp/ccDfMLJb.s:216    .text:00000000000000e4 .LVL11
     /tmp/ccDfMLJb.s:234    .text:0000000000000108 .LVL14
     /tmp/ccDfMLJb.s:165    .text:0000000000000094 .LVL8
     /tmp/ccDfMLJb.s:384    .debug_info:0000000000000000 .Ldebug_info0
     /tmp/ccDfMLJb.s:5      .text:0000000000000000 .Ltext0
     /tmp/ccDfMLJb.s:378    .text:00000000000001cc .Letext0

UNDEFINED SYMBOLS
_ZdlPv
__getc
__putc
_Z13thread_createPP7_threadPFvPvES2_
_ZN7_thread8setStartEb
_Z15thread_dispatchv
