GAS LISTING /tmp/ccPP1ttk.s 			page 1


   1              		.file	"syscall_c.cpp"
   2              		.option pic
   3              		.option norelax
   4              		.text
   5              	.Ltext0:
   6              		.align	2
   7              		.globl	_Z9mem_allocm
   9              	_Z9mem_allocm:
  10              	.LFB17:
  11              		.file 1 "src/syscall_c.cpp"
   1:src/syscall_c.cpp **** //
   2:src/syscall_c.cpp **** // Created by os on 10/7/25.
   3:src/syscall_c.cpp **** //
   4:src/syscall_c.cpp **** 
   5:src/syscall_c.cpp **** #include "../h/syscall_c.hpp"
   6:src/syscall_c.cpp **** #include "../h/riscv.hpp"
   7:src/syscall_c.cpp **** 
   8:src/syscall_c.cpp **** void* mem_alloc(size_t size){
  12              		.loc 1 8 29
  13              		.cfi_startproc
  14              	.LVL0:
  15 0000 130101FF 		addi	sp,sp,-16
  16              		.cfi_def_cfa_offset 16
  17 0004 23348100 		sd	s0,8(sp)
  18              		.cfi_offset 8, -8
  19 0008 13040101 		addi	s0,sp,16
  20              		.cfi_def_cfa 8, 0
   9:src/syscall_c.cpp ****     WRITE_REG("a7", Num::SCALL_MEM_ALLOC);
  21              		.loc 1 9 5
  22              		.loc 1 9 42 is_stmt 0
  23 000c 93071000 		li	a5,1
  24              	#APP
  25              	# 9 "src/syscall_c.cpp" 1
  10              	
  11:src/syscall_c.cpp ****     __asm__ volatile("ecall");
  26              		mv a7, a5
  27              	# 0 "" 2
  28              		.loc 1 11 5 is_stmt 1
  29              		.loc 1 11 30 is_stmt 0
  30              	# 11 "src/syscall_c.cpp" 1
  12              	
  13:src/syscall_c.cpp ****     void* ret;
  31              		ecall
  32              	# 0 "" 2
  33              		.loc 1 13 5 is_stmt 1
  14:src/syscall_c.cpp ****     READ_REG(ret, "a0");
  34              		.loc 1 14 5
  35              		.loc 1 14 24 is_stmt 0
  36              	# 14 "src/syscall_c.cpp" 1
  15              	    return ret;
  37              		mv a0, a0
  38              	# 0 "" 2
  39              	.LVL1:
  40              		.loc 1 15 5 is_stmt 1
  16:src/syscall_c.cpp **** }
  41              		.loc 1 16 1 is_stmt 0
  42              	#NO_APP
GAS LISTING /tmp/ccPP1ttk.s 			page 2


  43 001c 03348100 		ld	s0,8(sp)
  44              		.cfi_restore 8
  45              		.cfi_def_cfa 2, 16
  46 0020 13010101 		addi	sp,sp,16
  47              		.cfi_def_cfa_offset 0
  48 0024 67800000 		jr	ra
  49              		.cfi_endproc
  50              	.LFE17:
  52              		.align	2
  53              		.globl	_Z8mem_freePv
  55              	_Z8mem_freePv:
  56              	.LFB18:
  17:src/syscall_c.cpp **** 
  18:src/syscall_c.cpp **** int mem_free(void* ptr){
  57              		.loc 1 18 24 is_stmt 1
  58              		.cfi_startproc
  59              	.LVL2:
  60 0028 130101FF 		addi	sp,sp,-16
  61              		.cfi_def_cfa_offset 16
  62 002c 23348100 		sd	s0,8(sp)
  63              		.cfi_offset 8, -8
  64 0030 13040101 		addi	s0,sp,16
  65              		.cfi_def_cfa 8, 0
  19:src/syscall_c.cpp ****     WRITE_REG("a7", Num::SCALL_MEM_FREE);
  66              		.loc 1 19 5
  67              		.loc 1 19 41 is_stmt 0
  68 0034 93072000 		li	a5,2
  69              	#APP
  70              	# 19 "src/syscall_c.cpp" 1
  20              	
  21:src/syscall_c.cpp ****     __asm__ volatile("ecall");
  71              		mv a7, a5
  72              	# 0 "" 2
  73              		.loc 1 21 5 is_stmt 1
  74              		.loc 1 21 30 is_stmt 0
  75              	# 21 "src/syscall_c.cpp" 1
  22              	
  23:src/syscall_c.cpp ****     int ret;
  76              		ecall
  77              	# 0 "" 2
  78              		.loc 1 23 5 is_stmt 1
  24:src/syscall_c.cpp ****     READ_REG(ret, "a0");
  79              		.loc 1 24 5
  80              		.loc 1 24 24 is_stmt 0
  81              	# 24 "src/syscall_c.cpp" 1
  25              	    return ret;
  82              		mv a0, a0
  83              	# 0 "" 2
  84              	.LVL3:
  85              		.loc 1 25 5 is_stmt 1
  26:src/syscall_c.cpp **** }
  86              		.loc 1 26 1 is_stmt 0
  87              	#NO_APP
  88 0044 1B050500 		sext.w	a0,a0
  89 0048 03348100 		ld	s0,8(sp)
  90              		.cfi_restore 8
  91              		.cfi_def_cfa 2, 16
GAS LISTING /tmp/ccPP1ttk.s 			page 3


  92 004c 13010101 		addi	sp,sp,16
  93              		.cfi_def_cfa_offset 0
  94 0050 67800000 		jr	ra
  95              		.cfi_endproc
  96              	.LFE18:
  98              		.align	2
  99              		.globl	_Z18mem_get_free_spacev
 101              	_Z18mem_get_free_spacev:
 102              	.LFB19:
  27:src/syscall_c.cpp **** 
  28:src/syscall_c.cpp **** size_t mem_get_free_space(){
 103              		.loc 1 28 28 is_stmt 1
 104              		.cfi_startproc
 105 0054 130101FF 		addi	sp,sp,-16
 106              		.cfi_def_cfa_offset 16
 107 0058 23348100 		sd	s0,8(sp)
 108              		.cfi_offset 8, -8
 109 005c 13040101 		addi	s0,sp,16
 110              		.cfi_def_cfa 8, 0
  29:src/syscall_c.cpp ****     WRITE_REG("a7", Num::SCALL_MEM_GET_FREE_SPACE);
 111              		.loc 1 29 5
 112              		.loc 1 29 51 is_stmt 0
 113 0060 93073000 		li	a5,3
 114              	#APP
 115              	# 29 "src/syscall_c.cpp" 1
  30              	
  31:src/syscall_c.cpp ****     __asm__ volatile("ecall");
 116              		mv a7, a5
 117              	# 0 "" 2
 118              		.loc 1 31 5 is_stmt 1
 119              		.loc 1 31 30 is_stmt 0
 120              	# 31 "src/syscall_c.cpp" 1
  32              	
  33:src/syscall_c.cpp ****     size_t ret;
 121              		ecall
 122              	# 0 "" 2
 123              		.loc 1 33 5 is_stmt 1
  34:src/syscall_c.cpp ****     READ_REG(ret, "a0");
 124              		.loc 1 34 5
 125              		.loc 1 34 24 is_stmt 0
 126              	# 34 "src/syscall_c.cpp" 1
  35              	    return ret;
 127              		mv a0, a0
 128              	# 0 "" 2
 129              	.LVL4:
 130              		.loc 1 35 5 is_stmt 1
  36:src/syscall_c.cpp **** }
 131              		.loc 1 36 1 is_stmt 0
 132              	#NO_APP
 133 0070 03348100 		ld	s0,8(sp)
 134              		.cfi_restore 8
 135              		.cfi_def_cfa 2, 16
 136 0074 13010101 		addi	sp,sp,16
 137              		.cfi_def_cfa_offset 0
 138 0078 67800000 		jr	ra
 139              		.cfi_endproc
 140              	.LFE19:
GAS LISTING /tmp/ccPP1ttk.s 			page 4


 142              		.align	2
 143              		.globl	_Z26mem_get_largest_free_blockv
 145              	_Z26mem_get_largest_free_blockv:
 146              	.LFB20:
  37:src/syscall_c.cpp **** 
  38:src/syscall_c.cpp **** size_t mem_get_largest_free_block(){
 147              		.loc 1 38 36 is_stmt 1
 148              		.cfi_startproc
 149 007c 130101FF 		addi	sp,sp,-16
 150              		.cfi_def_cfa_offset 16
 151 0080 23348100 		sd	s0,8(sp)
 152              		.cfi_offset 8, -8
 153 0084 13040101 		addi	s0,sp,16
 154              		.cfi_def_cfa 8, 0
  39:src/syscall_c.cpp ****     WRITE_REG("a7", Num::SCALL_MEM_GET_LARGEST_FREE_BLOCK);
 155              		.loc 1 39 5
 156              		.loc 1 39 59 is_stmt 0
 157 0088 93074000 		li	a5,4
 158              	#APP
 159              	# 39 "src/syscall_c.cpp" 1
  40              	
  41:src/syscall_c.cpp ****     __asm__ volatile("ecall");
 160              		mv a7, a5
 161              	# 0 "" 2
 162              		.loc 1 41 5 is_stmt 1
 163              		.loc 1 41 30 is_stmt 0
 164              	# 41 "src/syscall_c.cpp" 1
  42              	
  43:src/syscall_c.cpp ****     size_t ret;
 165              		ecall
 166              	# 0 "" 2
 167              		.loc 1 43 5 is_stmt 1
  44:src/syscall_c.cpp ****     READ_REG(ret, "a0");
 168              		.loc 1 44 5
 169              		.loc 1 44 24 is_stmt 0
 170              	# 44 "src/syscall_c.cpp" 1
  45              	    return ret;
 171              		mv a0, a0
 172              	# 0 "" 2
 173              	.LVL5:
 174              		.loc 1 45 5 is_stmt 1
  46:src/syscall_c.cpp **** }
 175              		.loc 1 46 1 is_stmt 0
 176              	#NO_APP
 177 0098 03348100 		ld	s0,8(sp)
 178              		.cfi_restore 8
 179              		.cfi_def_cfa 2, 16
 180 009c 13010101 		addi	sp,sp,16
 181              		.cfi_def_cfa_offset 0
 182 00a0 67800000 		jr	ra
 183              		.cfi_endproc
 184              	.LFE20:
 186              		.align	2
 187              		.globl	_Z13thread_createPP7_threadPFvPvES2_
 189              	_Z13thread_createPP7_threadPFvPvES2_:
 190              	.LFB21:
  47:src/syscall_c.cpp **** 
GAS LISTING /tmp/ccPP1ttk.s 			page 5


  48:src/syscall_c.cpp **** int thread_create(thread_t* handle, void(*start_routine)(void*), void* arg){
 191              		.loc 1 48 76 is_stmt 1
 192              		.cfi_startproc
 193              	.LVL6:
 194 00a4 130101FF 		addi	sp,sp,-16
 195              		.cfi_def_cfa_offset 16
 196 00a8 23348100 		sd	s0,8(sp)
 197              		.cfi_offset 8, -8
 198 00ac 13040101 		addi	s0,sp,16
 199              		.cfi_def_cfa 8, 0
  49:src/syscall_c.cpp ****     WRITE_REG("a7", Num::SCALL_THREAD_CREATE);
 200              		.loc 1 49 5
 201              		.loc 1 49 46 is_stmt 0
 202 00b0 93071001 		li	a5,17
 203              	#APP
 204              	# 49 "src/syscall_c.cpp" 1
  50              	
  51:src/syscall_c.cpp ****     __asm__ volatile("ecall");
 205              		mv a7, a5
 206              	# 0 "" 2
 207              		.loc 1 51 5 is_stmt 1
 208              		.loc 1 51 30 is_stmt 0
 209              	# 51 "src/syscall_c.cpp" 1
  52              	
  53:src/syscall_c.cpp ****     int ret;
 210              		ecall
 211              	# 0 "" 2
 212              		.loc 1 53 5 is_stmt 1
  54:src/syscall_c.cpp ****     READ_REG(ret, "a0");
 213              		.loc 1 54 5
 214              		.loc 1 54 24 is_stmt 0
 215              	# 54 "src/syscall_c.cpp" 1
  55              	    return ret;
 216              		mv a0, a0
 217              	# 0 "" 2
 218              	.LVL7:
 219              		.loc 1 55 5 is_stmt 1
  56:src/syscall_c.cpp **** }
 220              		.loc 1 56 1 is_stmt 0
 221              	#NO_APP
 222 00c0 1B050500 		sext.w	a0,a0
 223 00c4 03348100 		ld	s0,8(sp)
 224              		.cfi_restore 8
 225              		.cfi_def_cfa 2, 16
 226 00c8 13010101 		addi	sp,sp,16
 227              		.cfi_def_cfa_offset 0
 228 00cc 67800000 		jr	ra
 229              		.cfi_endproc
 230              	.LFE21:
 232              		.align	2
 233              		.globl	_Z11thread_exitv
 235              	_Z11thread_exitv:
 236              	.LFB22:
  57:src/syscall_c.cpp **** 
  58:src/syscall_c.cpp **** int thread_exit(){
 237              		.loc 1 58 18 is_stmt 1
 238              		.cfi_startproc
GAS LISTING /tmp/ccPP1ttk.s 			page 6


 239 00d0 130101FF 		addi	sp,sp,-16
 240              		.cfi_def_cfa_offset 16
 241 00d4 23348100 		sd	s0,8(sp)
 242              		.cfi_offset 8, -8
 243 00d8 13040101 		addi	s0,sp,16
 244              		.cfi_def_cfa 8, 0
  59:src/syscall_c.cpp ****     WRITE_REG("a7", Num::SCALL_THREAD_EXIT);
 245              		.loc 1 59 5
 246              		.loc 1 59 44 is_stmt 0
 247 00dc 93072001 		li	a5,18
 248              	#APP
 249              	# 59 "src/syscall_c.cpp" 1
  60              	
  61:src/syscall_c.cpp ****     __asm__ volatile("ecall");
 250              		mv a7, a5
 251              	# 0 "" 2
 252              		.loc 1 61 5 is_stmt 1
 253              		.loc 1 61 30 is_stmt 0
 254              	# 61 "src/syscall_c.cpp" 1
  62              	
  63:src/syscall_c.cpp ****     int ret;
 255              		ecall
 256              	# 0 "" 2
 257              		.loc 1 63 5 is_stmt 1
  64:src/syscall_c.cpp ****     READ_REG(ret, "a0");
 258              		.loc 1 64 5
 259              		.loc 1 64 24 is_stmt 0
 260              	# 64 "src/syscall_c.cpp" 1
  65              	    return ret;
 261              		mv a0, a0
 262              	# 0 "" 2
 263              	.LVL8:
 264              		.loc 1 65 5 is_stmt 1
  66:src/syscall_c.cpp **** }
 265              		.loc 1 66 1 is_stmt 0
 266              	#NO_APP
 267 00ec 1B050500 		sext.w	a0,a0
 268 00f0 03348100 		ld	s0,8(sp)
 269              		.cfi_restore 8
 270              		.cfi_def_cfa 2, 16
 271 00f4 13010101 		addi	sp,sp,16
 272              		.cfi_def_cfa_offset 0
 273 00f8 67800000 		jr	ra
 274              		.cfi_endproc
 275              	.LFE22:
 277              		.align	2
 278              		.globl	_Z15thread_dispatchv
 280              	_Z15thread_dispatchv:
 281              	.LFB23:
  67:src/syscall_c.cpp **** 
  68:src/syscall_c.cpp **** void thread_dispatch(){
 282              		.loc 1 68 23 is_stmt 1
 283              		.cfi_startproc
 284 00fc 130101FF 		addi	sp,sp,-16
 285              		.cfi_def_cfa_offset 16
 286 0100 23348100 		sd	s0,8(sp)
 287              		.cfi_offset 8, -8
GAS LISTING /tmp/ccPP1ttk.s 			page 7


 288 0104 13040101 		addi	s0,sp,16
 289              		.cfi_def_cfa 8, 0
  69:src/syscall_c.cpp ****     WRITE_REG("a7", Num::SCALL_THREAD_DISPATCH);
 290              		.loc 1 69 5
 291              		.loc 1 69 48 is_stmt 0
 292 0108 93073001 		li	a5,19
 293              	#APP
 294              	# 69 "src/syscall_c.cpp" 1
  70              	
  71:src/syscall_c.cpp ****     __asm__ volatile("ecall");
 295              		mv a7, a5
 296              	# 0 "" 2
 297              		.loc 1 71 5 is_stmt 1
 298              		.loc 1 71 30 is_stmt 0
 299              	# 71 "src/syscall_c.cpp" 1
  72              	}
 300              		ecall
 301              	# 0 "" 2
 302              		.loc 1 72 1
 303              	#NO_APP
 304 0114 03348100 		ld	s0,8(sp)
 305              		.cfi_restore 8
 306              		.cfi_def_cfa 2, 16
 307 0118 13010101 		addi	sp,sp,16
 308              		.cfi_def_cfa_offset 0
 309 011c 67800000 		jr	ra
 310              		.cfi_endproc
 311              	.LFE23:
 313              		.align	2
 314              		.globl	_Z8sem_openPP4_semj
 316              	_Z8sem_openPP4_semj:
 317              	.LFB24:
  73:src/syscall_c.cpp **** 
  74:src/syscall_c.cpp **** int sem_open(sem_t* handle, unsigned init){
 318              		.loc 1 74 43 is_stmt 1
 319              		.cfi_startproc
 320              	.LVL9:
 321 0120 130101FF 		addi	sp,sp,-16
 322              		.cfi_def_cfa_offset 16
 323 0124 23348100 		sd	s0,8(sp)
 324              		.cfi_offset 8, -8
 325 0128 13040101 		addi	s0,sp,16
 326              		.cfi_def_cfa 8, 0
  75:src/syscall_c.cpp ****     WRITE_REG("a7", Num::SCALL_SEM_OPEN);
 327              		.loc 1 75 5
 328              		.loc 1 75 41 is_stmt 0
 329 012c 93071002 		li	a5,33
 330              	#APP
 331              	# 75 "src/syscall_c.cpp" 1
  76              	
  77:src/syscall_c.cpp ****     __asm__ volatile("ecall");
 332              		mv a7, a5
 333              	# 0 "" 2
 334              		.loc 1 77 5 is_stmt 1
 335              		.loc 1 77 30 is_stmt 0
 336              	# 77 "src/syscall_c.cpp" 1
  78              	
GAS LISTING /tmp/ccPP1ttk.s 			page 8


  79:src/syscall_c.cpp ****     int ret;
 337              		ecall
 338              	# 0 "" 2
 339              		.loc 1 79 5 is_stmt 1
  80:src/syscall_c.cpp ****     READ_REG(ret, "a0");
 340              		.loc 1 80 5
 341              		.loc 1 80 24 is_stmt 0
 342              	# 80 "src/syscall_c.cpp" 1
  81              	    return ret;
 343              		mv a0, a0
 344              	# 0 "" 2
 345              	.LVL10:
 346              		.loc 1 81 5 is_stmt 1
  82:src/syscall_c.cpp **** }
 347              		.loc 1 82 1 is_stmt 0
 348              	#NO_APP
 349 013c 1B050500 		sext.w	a0,a0
 350 0140 03348100 		ld	s0,8(sp)
 351              		.cfi_restore 8
 352              		.cfi_def_cfa 2, 16
 353 0144 13010101 		addi	sp,sp,16
 354              		.cfi_def_cfa_offset 0
 355 0148 67800000 		jr	ra
 356              		.cfi_endproc
 357              	.LFE24:
 359              		.align	2
 360              		.globl	_Z9sem_closeP4_sem
 362              	_Z9sem_closeP4_sem:
 363              	.LFB25:
  83:src/syscall_c.cpp **** 
  84:src/syscall_c.cpp **** int sem_close(sem_t handle) {
 364              		.loc 1 84 29 is_stmt 1
 365              		.cfi_startproc
 366              	.LVL11:
 367 014c 130101FF 		addi	sp,sp,-16
 368              		.cfi_def_cfa_offset 16
 369 0150 23348100 		sd	s0,8(sp)
 370              		.cfi_offset 8, -8
 371 0154 13040101 		addi	s0,sp,16
 372              		.cfi_def_cfa 8, 0
  85:src/syscall_c.cpp ****     WRITE_REG("a7", Num::SCALL_SEM_CLOSE);
 373              		.loc 1 85 5
 374              		.loc 1 85 42 is_stmt 0
 375 0158 93072002 		li	a5,34
 376              	#APP
 377              	# 85 "src/syscall_c.cpp" 1
  86              	
  87:src/syscall_c.cpp ****     __asm__ volatile("ecall");
 378              		mv a7, a5
 379              	# 0 "" 2
 380              		.loc 1 87 5 is_stmt 1
 381              		.loc 1 87 30 is_stmt 0
 382              	# 87 "src/syscall_c.cpp" 1
  88              	
  89:src/syscall_c.cpp ****     int ret;
 383              		ecall
 384              	# 0 "" 2
GAS LISTING /tmp/ccPP1ttk.s 			page 9


 385              		.loc 1 89 5 is_stmt 1
  90:src/syscall_c.cpp ****     READ_REG(ret, "a0");
 386              		.loc 1 90 5
 387              		.loc 1 90 24 is_stmt 0
 388              	# 90 "src/syscall_c.cpp" 1
  91              	    return ret;
 389              		mv a0, a0
 390              	# 0 "" 2
 391              	.LVL12:
 392              		.loc 1 91 5 is_stmt 1
  92:src/syscall_c.cpp **** }
 393              		.loc 1 92 1 is_stmt 0
 394              	#NO_APP
 395 0168 1B050500 		sext.w	a0,a0
 396 016c 03348100 		ld	s0,8(sp)
 397              		.cfi_restore 8
 398              		.cfi_def_cfa 2, 16
 399 0170 13010101 		addi	sp,sp,16
 400              		.cfi_def_cfa_offset 0
 401 0174 67800000 		jr	ra
 402              		.cfi_endproc
 403              	.LFE25:
 405              		.align	2
 406              		.globl	_Z8sem_waitP4_sem
 408              	_Z8sem_waitP4_sem:
 409              	.LFB26:
  93:src/syscall_c.cpp **** 
  94:src/syscall_c.cpp **** int sem_wait(sem_t id){
 410              		.loc 1 94 23 is_stmt 1
 411              		.cfi_startproc
 412              	.LVL13:
 413 0178 130101FF 		addi	sp,sp,-16
 414              		.cfi_def_cfa_offset 16
 415 017c 23348100 		sd	s0,8(sp)
 416              		.cfi_offset 8, -8
 417 0180 13040101 		addi	s0,sp,16
 418              		.cfi_def_cfa 8, 0
  95:src/syscall_c.cpp ****     WRITE_REG("a7", Num::SCALL_SEM_WAIT);
 419              		.loc 1 95 5
 420              		.loc 1 95 41 is_stmt 0
 421 0184 93073002 		li	a5,35
 422              	#APP
 423              	# 95 "src/syscall_c.cpp" 1
  96              	
  97:src/syscall_c.cpp ****     __asm__ volatile("ecall");
 424              		mv a7, a5
 425              	# 0 "" 2
 426              		.loc 1 97 5 is_stmt 1
 427              		.loc 1 97 30 is_stmt 0
 428              	# 97 "src/syscall_c.cpp" 1
  98              	
  99:src/syscall_c.cpp ****     int ret;
 429              		ecall
 430              	# 0 "" 2
 431              		.loc 1 99 5 is_stmt 1
 100:src/syscall_c.cpp ****     READ_REG(ret, "a0");
 432              		.loc 1 100 5
GAS LISTING /tmp/ccPP1ttk.s 			page 10


 433              		.loc 1 100 24 is_stmt 0
 434              	# 100 "src/syscall_c.cpp" 1
 101              	    return ret;
 435              		mv a0, a0
 436              	# 0 "" 2
 437              	.LVL14:
 438              		.loc 1 101 5 is_stmt 1
 102:src/syscall_c.cpp **** }
 439              		.loc 1 102 1 is_stmt 0
 440              	#NO_APP
 441 0194 1B050500 		sext.w	a0,a0
 442 0198 03348100 		ld	s0,8(sp)
 443              		.cfi_restore 8
 444              		.cfi_def_cfa 2, 16
 445 019c 13010101 		addi	sp,sp,16
 446              		.cfi_def_cfa_offset 0
 447 01a0 67800000 		jr	ra
 448              		.cfi_endproc
 449              	.LFE26:
 451              		.align	2
 452              		.globl	_Z10sem_signalP4_sem
 454              	_Z10sem_signalP4_sem:
 455              	.LFB27:
 103:src/syscall_c.cpp **** 
 104:src/syscall_c.cpp **** int sem_signal(sem_t id){
 456              		.loc 1 104 25 is_stmt 1
 457              		.cfi_startproc
 458              	.LVL15:
 459 01a4 130101FF 		addi	sp,sp,-16
 460              		.cfi_def_cfa_offset 16
 461 01a8 23348100 		sd	s0,8(sp)
 462              		.cfi_offset 8, -8
 463 01ac 13040101 		addi	s0,sp,16
 464              		.cfi_def_cfa 8, 0
 105:src/syscall_c.cpp ****     WRITE_REG("a7", Num::SCALL_SEM_SIGNAL);
 465              		.loc 1 105 5
 466              		.loc 1 105 43 is_stmt 0
 467 01b0 93074002 		li	a5,36
 468              	#APP
 469              	# 105 "src/syscall_c.cpp" 1
 106              	
 107:src/syscall_c.cpp ****     __asm__ volatile("ecall");
 470              		mv a7, a5
 471              	# 0 "" 2
 472              		.loc 1 107 5 is_stmt 1
 473              		.loc 1 107 30 is_stmt 0
 474              	# 107 "src/syscall_c.cpp" 1
 108              	
 109:src/syscall_c.cpp ****     int ret;
 475              		ecall
 476              	# 0 "" 2
 477              		.loc 1 109 5 is_stmt 1
 110:src/syscall_c.cpp ****     READ_REG(ret, "a0");
 478              		.loc 1 110 5
 479              		.loc 1 110 24 is_stmt 0
 480              	# 110 "src/syscall_c.cpp" 1
 111              	    return ret;
GAS LISTING /tmp/ccPP1ttk.s 			page 11


 481              		mv a0, a0
 482              	# 0 "" 2
 483              	.LVL16:
 484              		.loc 1 111 5 is_stmt 1
 112:src/syscall_c.cpp **** }
 485              		.loc 1 112 1 is_stmt 0
 486              	#NO_APP
 487 01c0 1B050500 		sext.w	a0,a0
 488 01c4 03348100 		ld	s0,8(sp)
 489              		.cfi_restore 8
 490              		.cfi_def_cfa 2, 16
 491 01c8 13010101 		addi	sp,sp,16
 492              		.cfi_def_cfa_offset 0
 493 01cc 67800000 		jr	ra
 494              		.cfi_endproc
 495              	.LFE27:
 497              		.align	2
 498              		.globl	_Z4getcv
 500              	_Z4getcv:
 501              	.LFB28:
 113:src/syscall_c.cpp **** 
 114:src/syscall_c.cpp **** char getc(){
 502              		.loc 1 114 12 is_stmt 1
 503              		.cfi_startproc
 504 01d0 130101FF 		addi	sp,sp,-16
 505              		.cfi_def_cfa_offset 16
 506 01d4 23348100 		sd	s0,8(sp)
 507              		.cfi_offset 8, -8
 508 01d8 13040101 		addi	s0,sp,16
 509              		.cfi_def_cfa 8, 0
 115:src/syscall_c.cpp ****     WRITE_REG("a7", Num::SCALL_GETC);
 510              		.loc 1 115 5
 511              		.loc 1 115 37 is_stmt 0
 512 01dc 93071004 		li	a5,65
 513              	#APP
 514              	# 115 "src/syscall_c.cpp" 1
 116              	
 117:src/syscall_c.cpp ****     __asm__ volatile("ecall");
 515              		mv a7, a5
 516              	# 0 "" 2
 517              		.loc 1 117 5 is_stmt 1
 518              		.loc 1 117 30 is_stmt 0
 519              	# 117 "src/syscall_c.cpp" 1
 118              	
 119:src/syscall_c.cpp ****     char ret;
 520              		ecall
 521              	# 0 "" 2
 522              		.loc 1 119 5 is_stmt 1
 120:src/syscall_c.cpp ****     READ_REG(ret, "a0");
 523              		.loc 1 120 5
 524              		.loc 1 120 24 is_stmt 0
 525              	# 120 "src/syscall_c.cpp" 1
 121              	    return ret;
 526              		mv a0, a0
 527              	# 0 "" 2
 528              	.LVL17:
 529              		.loc 1 121 5 is_stmt 1
GAS LISTING /tmp/ccPP1ttk.s 			page 12


 122:src/syscall_c.cpp **** }
 530              		.loc 1 122 1 is_stmt 0
 531              	#NO_APP
 532 01ec 1375F50F 		andi	a0,a0,0xff
 533 01f0 03348100 		ld	s0,8(sp)
 534              		.cfi_restore 8
 535              		.cfi_def_cfa 2, 16
 536 01f4 13010101 		addi	sp,sp,16
 537              		.cfi_def_cfa_offset 0
 538 01f8 67800000 		jr	ra
 539              		.cfi_endproc
 540              	.LFE28:
 542              		.align	2
 543              		.globl	_Z4putcc
 545              	_Z4putcc:
 546              	.LFB29:
 123:src/syscall_c.cpp **** 
 124:src/syscall_c.cpp **** void putc(char c){
 547              		.loc 1 124 18 is_stmt 1
 548              		.cfi_startproc
 549              	.LVL18:
 550 01fc 130101FF 		addi	sp,sp,-16
 551              		.cfi_def_cfa_offset 16
 552 0200 23348100 		sd	s0,8(sp)
 553              		.cfi_offset 8, -8
 554 0204 13040101 		addi	s0,sp,16
 555              		.cfi_def_cfa 8, 0
 125:src/syscall_c.cpp **** 
 126:src/syscall_c.cpp ****     WRITE_REG("a7", Num::SCALL_PUTC);
 556              		.loc 1 126 5
 557              		.loc 1 126 37 is_stmt 0
 558 0208 93072004 		li	a5,66
 559              	#APP
 560              	# 126 "src/syscall_c.cpp" 1
 127              	
 128:src/syscall_c.cpp ****     __asm__ volatile("ecall");
 561              		mv a7, a5
 562              	# 0 "" 2
 563              		.loc 1 128 5 is_stmt 1
 564              		.loc 1 128 30 is_stmt 0
 565              	# 128 "src/syscall_c.cpp" 1
 129              	
 130:src/syscall_c.cpp **** 
 131:src/syscall_c.cpp **** }...
 566              		ecall
 567              	# 0 "" 2
 568              		.loc 1 131 1
 569              	#NO_APP
 570 0214 03348100 		ld	s0,8(sp)
 571              		.cfi_restore 8
 572              		.cfi_def_cfa 2, 16
 573 0218 13010101 		addi	sp,sp,16
 574              		.cfi_def_cfa_offset 0
 575 021c 67800000 		jr	ra
 576              		.cfi_endproc
 577              	.LFE29:
 579              	.Letext0:
GAS LISTING /tmp/ccPP1ttk.s 			page 13


 580              		.file 2 "src/../h/../lib/hw.h"
 581              		.file 3 "src/../h/syscall_c.hpp"
 582              		.file 4 "src/../h/riscv.hpp"
GAS LISTING /tmp/ccPP1ttk.s 			page 14


DEFINED SYMBOLS
                            *ABS*:0000000000000000 syscall_c.cpp
     /tmp/ccPP1ttk.s:9      .text:0000000000000000 _Z9mem_allocm
     /tmp/ccPP1ttk.s:13     .text:0000000000000000 .L0 
     /tmp/ccPP1ttk.s:15     .text:0000000000000000 .L0 
     /tmp/ccPP1ttk.s:16     .text:0000000000000004 .L0 
     /tmp/ccPP1ttk.s:18     .text:0000000000000008 .L0 
     /tmp/ccPP1ttk.s:20     .text:000000000000000c .L0 
     /tmp/ccPP1ttk.s:22     .text:000000000000000c .L0 
     /tmp/ccPP1ttk.s:23     .text:000000000000000c .L0 
     /tmp/ccPP1ttk.s:29     .text:0000000000000014 .L0 
   src/syscall_c.cpp:11     .text:0000000000000014 .L0 
     /tmp/ccPP1ttk.s:34     .text:0000000000000018 .L0 
     /tmp/ccPP1ttk.s:35     .text:0000000000000018 .L0 
   src/syscall_c.cpp:14     .text:0000000000000018 .L0 
     /tmp/ccPP1ttk.s:41     .text:000000000000001c .L0 
     /tmp/ccPP1ttk.s:43     .text:000000000000001c .L0 
     /tmp/ccPP1ttk.s:44     .text:0000000000000020 .L0 
     /tmp/ccPP1ttk.s:45     .text:0000000000000020 .L0 
     /tmp/ccPP1ttk.s:47     .text:0000000000000024 .L0 
     /tmp/ccPP1ttk.s:49     .text:0000000000000028 .L0 
     /tmp/ccPP1ttk.s:55     .text:0000000000000028 _Z8mem_freePv
     /tmp/ccPP1ttk.s:58     .text:0000000000000028 .L0 
     /tmp/ccPP1ttk.s:60     .text:0000000000000028 .L0 
     /tmp/ccPP1ttk.s:61     .text:000000000000002c .L0 
     /tmp/ccPP1ttk.s:63     .text:0000000000000030 .L0 
     /tmp/ccPP1ttk.s:65     .text:0000000000000034 .L0 
     /tmp/ccPP1ttk.s:67     .text:0000000000000034 .L0 
     /tmp/ccPP1ttk.s:68     .text:0000000000000034 .L0 
     /tmp/ccPP1ttk.s:74     .text:000000000000003c .L0 
   src/syscall_c.cpp:21     .text:000000000000003c .L0 
     /tmp/ccPP1ttk.s:79     .text:0000000000000040 .L0 
     /tmp/ccPP1ttk.s:80     .text:0000000000000040 .L0 
   src/syscall_c.cpp:24     .text:0000000000000040 .L0 
     /tmp/ccPP1ttk.s:86     .text:0000000000000044 .L0 
     /tmp/ccPP1ttk.s:88     .text:0000000000000044 .L0 
     /tmp/ccPP1ttk.s:90     .text:000000000000004c .L0 
     /tmp/ccPP1ttk.s:91     .text:000000000000004c .L0 
     /tmp/ccPP1ttk.s:93     .text:0000000000000050 .L0 
     /tmp/ccPP1ttk.s:95     .text:0000000000000054 .L0 
     /tmp/ccPP1ttk.s:101    .text:0000000000000054 _Z18mem_get_free_spacev
     /tmp/ccPP1ttk.s:104    .text:0000000000000054 .L0 
     /tmp/ccPP1ttk.s:105    .text:0000000000000054 .L0 
     /tmp/ccPP1ttk.s:106    .text:0000000000000058 .L0 
     /tmp/ccPP1ttk.s:108    .text:000000000000005c .L0 
     /tmp/ccPP1ttk.s:110    .text:0000000000000060 .L0 
     /tmp/ccPP1ttk.s:112    .text:0000000000000060 .L0 
     /tmp/ccPP1ttk.s:113    .text:0000000000000060 .L0 
     /tmp/ccPP1ttk.s:119    .text:0000000000000068 .L0 
   src/syscall_c.cpp:31     .text:0000000000000068 .L0 
     /tmp/ccPP1ttk.s:124    .text:000000000000006c .L0 
     /tmp/ccPP1ttk.s:125    .text:000000000000006c .L0 
   src/syscall_c.cpp:34     .text:000000000000006c .L0 
     /tmp/ccPP1ttk.s:131    .text:0000000000000070 .L0 
     /tmp/ccPP1ttk.s:133    .text:0000000000000070 .L0 
     /tmp/ccPP1ttk.s:134    .text:0000000000000074 .L0 
     /tmp/ccPP1ttk.s:135    .text:0000000000000074 .L0 
GAS LISTING /tmp/ccPP1ttk.s 			page 15


     /tmp/ccPP1ttk.s:137    .text:0000000000000078 .L0 
     /tmp/ccPP1ttk.s:139    .text:000000000000007c .L0 
     /tmp/ccPP1ttk.s:145    .text:000000000000007c _Z26mem_get_largest_free_blockv
     /tmp/ccPP1ttk.s:148    .text:000000000000007c .L0 
     /tmp/ccPP1ttk.s:149    .text:000000000000007c .L0 
     /tmp/ccPP1ttk.s:150    .text:0000000000000080 .L0 
     /tmp/ccPP1ttk.s:152    .text:0000000000000084 .L0 
     /tmp/ccPP1ttk.s:154    .text:0000000000000088 .L0 
     /tmp/ccPP1ttk.s:156    .text:0000000000000088 .L0 
     /tmp/ccPP1ttk.s:157    .text:0000000000000088 .L0 
     /tmp/ccPP1ttk.s:163    .text:0000000000000090 .L0 
   src/syscall_c.cpp:41     .text:0000000000000090 .L0 
     /tmp/ccPP1ttk.s:168    .text:0000000000000094 .L0 
     /tmp/ccPP1ttk.s:169    .text:0000000000000094 .L0 
   src/syscall_c.cpp:44     .text:0000000000000094 .L0 
     /tmp/ccPP1ttk.s:175    .text:0000000000000098 .L0 
     /tmp/ccPP1ttk.s:177    .text:0000000000000098 .L0 
     /tmp/ccPP1ttk.s:178    .text:000000000000009c .L0 
     /tmp/ccPP1ttk.s:179    .text:000000000000009c .L0 
     /tmp/ccPP1ttk.s:181    .text:00000000000000a0 .L0 
     /tmp/ccPP1ttk.s:183    .text:00000000000000a4 .L0 
     /tmp/ccPP1ttk.s:189    .text:00000000000000a4 _Z13thread_createPP7_threadPFvPvES2_
     /tmp/ccPP1ttk.s:192    .text:00000000000000a4 .L0 
     /tmp/ccPP1ttk.s:194    .text:00000000000000a4 .L0 
     /tmp/ccPP1ttk.s:195    .text:00000000000000a8 .L0 
     /tmp/ccPP1ttk.s:197    .text:00000000000000ac .L0 
     /tmp/ccPP1ttk.s:199    .text:00000000000000b0 .L0 
     /tmp/ccPP1ttk.s:201    .text:00000000000000b0 .L0 
     /tmp/ccPP1ttk.s:202    .text:00000000000000b0 .L0 
     /tmp/ccPP1ttk.s:208    .text:00000000000000b8 .L0 
   src/syscall_c.cpp:51     .text:00000000000000b8 .L0 
     /tmp/ccPP1ttk.s:213    .text:00000000000000bc .L0 
     /tmp/ccPP1ttk.s:214    .text:00000000000000bc .L0 
   src/syscall_c.cpp:54     .text:00000000000000bc .L0 
     /tmp/ccPP1ttk.s:220    .text:00000000000000c0 .L0 
     /tmp/ccPP1ttk.s:222    .text:00000000000000c0 .L0 
     /tmp/ccPP1ttk.s:224    .text:00000000000000c8 .L0 
     /tmp/ccPP1ttk.s:225    .text:00000000000000c8 .L0 
     /tmp/ccPP1ttk.s:227    .text:00000000000000cc .L0 
     /tmp/ccPP1ttk.s:229    .text:00000000000000d0 .L0 
     /tmp/ccPP1ttk.s:235    .text:00000000000000d0 _Z11thread_exitv
     /tmp/ccPP1ttk.s:238    .text:00000000000000d0 .L0 
     /tmp/ccPP1ttk.s:239    .text:00000000000000d0 .L0 
     /tmp/ccPP1ttk.s:240    .text:00000000000000d4 .L0 
     /tmp/ccPP1ttk.s:242    .text:00000000000000d8 .L0 
     /tmp/ccPP1ttk.s:244    .text:00000000000000dc .L0 
     /tmp/ccPP1ttk.s:246    .text:00000000000000dc .L0 
     /tmp/ccPP1ttk.s:247    .text:00000000000000dc .L0 
     /tmp/ccPP1ttk.s:253    .text:00000000000000e4 .L0 
   src/syscall_c.cpp:61     .text:00000000000000e4 .L0 
     /tmp/ccPP1ttk.s:258    .text:00000000000000e8 .L0 
     /tmp/ccPP1ttk.s:259    .text:00000000000000e8 .L0 
   src/syscall_c.cpp:64     .text:00000000000000e8 .L0 
     /tmp/ccPP1ttk.s:265    .text:00000000000000ec .L0 
     /tmp/ccPP1ttk.s:267    .text:00000000000000ec .L0 
     /tmp/ccPP1ttk.s:269    .text:00000000000000f4 .L0 
     /tmp/ccPP1ttk.s:270    .text:00000000000000f4 .L0 
GAS LISTING /tmp/ccPP1ttk.s 			page 16


     /tmp/ccPP1ttk.s:272    .text:00000000000000f8 .L0 
     /tmp/ccPP1ttk.s:274    .text:00000000000000fc .L0 
     /tmp/ccPP1ttk.s:280    .text:00000000000000fc _Z15thread_dispatchv
     /tmp/ccPP1ttk.s:283    .text:00000000000000fc .L0 
     /tmp/ccPP1ttk.s:284    .text:00000000000000fc .L0 
     /tmp/ccPP1ttk.s:285    .text:0000000000000100 .L0 
     /tmp/ccPP1ttk.s:287    .text:0000000000000104 .L0 
     /tmp/ccPP1ttk.s:289    .text:0000000000000108 .L0 
     /tmp/ccPP1ttk.s:291    .text:0000000000000108 .L0 
     /tmp/ccPP1ttk.s:292    .text:0000000000000108 .L0 
     /tmp/ccPP1ttk.s:298    .text:0000000000000110 .L0 
   src/syscall_c.cpp:71     .text:0000000000000110 .L0 
     /tmp/ccPP1ttk.s:304    .text:0000000000000114 .L0 
     /tmp/ccPP1ttk.s:305    .text:0000000000000118 .L0 
     /tmp/ccPP1ttk.s:306    .text:0000000000000118 .L0 
     /tmp/ccPP1ttk.s:308    .text:000000000000011c .L0 
     /tmp/ccPP1ttk.s:310    .text:0000000000000120 .L0 
     /tmp/ccPP1ttk.s:316    .text:0000000000000120 _Z8sem_openPP4_semj
     /tmp/ccPP1ttk.s:319    .text:0000000000000120 .L0 
     /tmp/ccPP1ttk.s:321    .text:0000000000000120 .L0 
     /tmp/ccPP1ttk.s:322    .text:0000000000000124 .L0 
     /tmp/ccPP1ttk.s:324    .text:0000000000000128 .L0 
     /tmp/ccPP1ttk.s:326    .text:000000000000012c .L0 
     /tmp/ccPP1ttk.s:328    .text:000000000000012c .L0 
     /tmp/ccPP1ttk.s:329    .text:000000000000012c .L0 
     /tmp/ccPP1ttk.s:335    .text:0000000000000134 .L0 
   src/syscall_c.cpp:77     .text:0000000000000134 .L0 
     /tmp/ccPP1ttk.s:340    .text:0000000000000138 .L0 
     /tmp/ccPP1ttk.s:341    .text:0000000000000138 .L0 
   src/syscall_c.cpp:80     .text:0000000000000138 .L0 
     /tmp/ccPP1ttk.s:347    .text:000000000000013c .L0 
     /tmp/ccPP1ttk.s:349    .text:000000000000013c .L0 
     /tmp/ccPP1ttk.s:351    .text:0000000000000144 .L0 
     /tmp/ccPP1ttk.s:352    .text:0000000000000144 .L0 
     /tmp/ccPP1ttk.s:354    .text:0000000000000148 .L0 
     /tmp/ccPP1ttk.s:356    .text:000000000000014c .L0 
     /tmp/ccPP1ttk.s:362    .text:000000000000014c _Z9sem_closeP4_sem
     /tmp/ccPP1ttk.s:365    .text:000000000000014c .L0 
     /tmp/ccPP1ttk.s:367    .text:000000000000014c .L0 
     /tmp/ccPP1ttk.s:368    .text:0000000000000150 .L0 
     /tmp/ccPP1ttk.s:370    .text:0000000000000154 .L0 
     /tmp/ccPP1ttk.s:372    .text:0000000000000158 .L0 
     /tmp/ccPP1ttk.s:374    .text:0000000000000158 .L0 
     /tmp/ccPP1ttk.s:375    .text:0000000000000158 .L0 
     /tmp/ccPP1ttk.s:381    .text:0000000000000160 .L0 
   src/syscall_c.cpp:87     .text:0000000000000160 .L0 
     /tmp/ccPP1ttk.s:386    .text:0000000000000164 .L0 
     /tmp/ccPP1ttk.s:387    .text:0000000000000164 .L0 
   src/syscall_c.cpp:90     .text:0000000000000164 .L0 
     /tmp/ccPP1ttk.s:393    .text:0000000000000168 .L0 
     /tmp/ccPP1ttk.s:395    .text:0000000000000168 .L0 
     /tmp/ccPP1ttk.s:397    .text:0000000000000170 .L0 
     /tmp/ccPP1ttk.s:398    .text:0000000000000170 .L0 
     /tmp/ccPP1ttk.s:400    .text:0000000000000174 .L0 
     /tmp/ccPP1ttk.s:402    .text:0000000000000178 .L0 
     /tmp/ccPP1ttk.s:408    .text:0000000000000178 _Z8sem_waitP4_sem
     /tmp/ccPP1ttk.s:411    .text:0000000000000178 .L0 
GAS LISTING /tmp/ccPP1ttk.s 			page 17


     /tmp/ccPP1ttk.s:413    .text:0000000000000178 .L0 
     /tmp/ccPP1ttk.s:414    .text:000000000000017c .L0 
     /tmp/ccPP1ttk.s:416    .text:0000000000000180 .L0 
     /tmp/ccPP1ttk.s:418    .text:0000000000000184 .L0 
     /tmp/ccPP1ttk.s:420    .text:0000000000000184 .L0 
     /tmp/ccPP1ttk.s:421    .text:0000000000000184 .L0 
     /tmp/ccPP1ttk.s:427    .text:000000000000018c .L0 
   src/syscall_c.cpp:97     .text:000000000000018c .L0 
     /tmp/ccPP1ttk.s:432    .text:0000000000000190 .L0 
     /tmp/ccPP1ttk.s:433    .text:0000000000000190 .L0 
   src/syscall_c.cpp:100    .text:0000000000000190 .L0 
     /tmp/ccPP1ttk.s:439    .text:0000000000000194 .L0 
     /tmp/ccPP1ttk.s:441    .text:0000000000000194 .L0 
     /tmp/ccPP1ttk.s:443    .text:000000000000019c .L0 
     /tmp/ccPP1ttk.s:444    .text:000000000000019c .L0 
     /tmp/ccPP1ttk.s:446    .text:00000000000001a0 .L0 
     /tmp/ccPP1ttk.s:448    .text:00000000000001a4 .L0 
     /tmp/ccPP1ttk.s:454    .text:00000000000001a4 _Z10sem_signalP4_sem
     /tmp/ccPP1ttk.s:457    .text:00000000000001a4 .L0 
     /tmp/ccPP1ttk.s:459    .text:00000000000001a4 .L0 
     /tmp/ccPP1ttk.s:460    .text:00000000000001a8 .L0 
     /tmp/ccPP1ttk.s:462    .text:00000000000001ac .L0 
     /tmp/ccPP1ttk.s:464    .text:00000000000001b0 .L0 
     /tmp/ccPP1ttk.s:466    .text:00000000000001b0 .L0 
     /tmp/ccPP1ttk.s:467    .text:00000000000001b0 .L0 
     /tmp/ccPP1ttk.s:473    .text:00000000000001b8 .L0 
   src/syscall_c.cpp:107    .text:00000000000001b8 .L0 
     /tmp/ccPP1ttk.s:478    .text:00000000000001bc .L0 
     /tmp/ccPP1ttk.s:479    .text:00000000000001bc .L0 
   src/syscall_c.cpp:110    .text:00000000000001bc .L0 
     /tmp/ccPP1ttk.s:485    .text:00000000000001c0 .L0 
     /tmp/ccPP1ttk.s:487    .text:00000000000001c0 .L0 
     /tmp/ccPP1ttk.s:489    .text:00000000000001c8 .L0 
     /tmp/ccPP1ttk.s:490    .text:00000000000001c8 .L0 
     /tmp/ccPP1ttk.s:492    .text:00000000000001cc .L0 
     /tmp/ccPP1ttk.s:494    .text:00000000000001d0 .L0 
     /tmp/ccPP1ttk.s:500    .text:00000000000001d0 _Z4getcv
     /tmp/ccPP1ttk.s:503    .text:00000000000001d0 .L0 
     /tmp/ccPP1ttk.s:504    .text:00000000000001d0 .L0 
     /tmp/ccPP1ttk.s:505    .text:00000000000001d4 .L0 
     /tmp/ccPP1ttk.s:507    .text:00000000000001d8 .L0 
     /tmp/ccPP1ttk.s:509    .text:00000000000001dc .L0 
     /tmp/ccPP1ttk.s:511    .text:00000000000001dc .L0 
     /tmp/ccPP1ttk.s:512    .text:00000000000001dc .L0 
     /tmp/ccPP1ttk.s:518    .text:00000000000001e4 .L0 
   src/syscall_c.cpp:117    .text:00000000000001e4 .L0 
     /tmp/ccPP1ttk.s:523    .text:00000000000001e8 .L0 
     /tmp/ccPP1ttk.s:524    .text:00000000000001e8 .L0 
   src/syscall_c.cpp:120    .text:00000000000001e8 .L0 
     /tmp/ccPP1ttk.s:530    .text:00000000000001ec .L0 
     /tmp/ccPP1ttk.s:532    .text:00000000000001ec .L0 
     /tmp/ccPP1ttk.s:534    .text:00000000000001f4 .L0 
     /tmp/ccPP1ttk.s:535    .text:00000000000001f4 .L0 
     /tmp/ccPP1ttk.s:537    .text:00000000000001f8 .L0 
     /tmp/ccPP1ttk.s:539    .text:00000000000001fc .L0 
     /tmp/ccPP1ttk.s:545    .text:00000000000001fc _Z4putcc
     /tmp/ccPP1ttk.s:548    .text:00000000000001fc .L0 
GAS LISTING /tmp/ccPP1ttk.s 			page 18


     /tmp/ccPP1ttk.s:550    .text:00000000000001fc .L0 
     /tmp/ccPP1ttk.s:551    .text:0000000000000200 .L0 
     /tmp/ccPP1ttk.s:553    .text:0000000000000204 .L0 
     /tmp/ccPP1ttk.s:555    .text:0000000000000208 .L0 
     /tmp/ccPP1ttk.s:557    .text:0000000000000208 .L0 
     /tmp/ccPP1ttk.s:558    .text:0000000000000208 .L0 
     /tmp/ccPP1ttk.s:564    .text:0000000000000210 .L0 
   src/syscall_c.cpp:128    .text:0000000000000210 .L0 
     /tmp/ccPP1ttk.s:570    .text:0000000000000214 .L0 
     /tmp/ccPP1ttk.s:571    .text:0000000000000218 .L0 
     /tmp/ccPP1ttk.s:572    .text:0000000000000218 .L0 
     /tmp/ccPP1ttk.s:574    .text:000000000000021c .L0 
     /tmp/ccPP1ttk.s:576    .text:0000000000000220 .L0 
     /tmp/ccPP1ttk.s:583    .text:0000000000000220 .L0 
     /tmp/ccPP1ttk.s:1231   .debug_abbrev:0000000000000000 .Ldebug_abbrev0
     /tmp/ccPP1ttk.s:1862   .debug_str:000000000000033b .LASF66
     /tmp/ccPP1ttk.s:1808   .debug_str:00000000000001a3 .LASF67
     /tmp/ccPP1ttk.s:1792   .debug_str:000000000000013c .LASF68
     /tmp/ccPP1ttk.s:5      .text:0000000000000000 .Ltext0
     /tmp/ccPP1ttk.s:579    .text:0000000000000220 .Letext0
     /tmp/ccPP1ttk.s:1742   .debug_line:0000000000000000 .Ldebug_line0
     /tmp/ccPP1ttk.s:1824   .debug_str:0000000000000217 .LASF0
     /tmp/ccPP1ttk.s:1826   .debug_str:0000000000000224 .LASF1
     /tmp/ccPP1ttk.s:1818   .debug_str:00000000000001f1 .LASF2
     /tmp/ccPP1ttk.s:1784   .debug_str:0000000000000116 .LASF3
     /tmp/ccPP1ttk.s:1804   .debug_str:0000000000000193 .LASF4
     /tmp/ccPP1ttk.s:1850   .debug_str:00000000000002ef .LASF5
     /tmp/ccPP1ttk.s:1760   .debug_str:0000000000000051 .LASF6
     /tmp/ccPP1ttk.s:1830   .debug_str:0000000000000248 .LASF7
     /tmp/ccPP1ttk.s:1822   .debug_str:0000000000000204 .LASF8
     /tmp/ccPP1ttk.s:1868   .debug_str:0000000000000419 .LASF9
     /tmp/ccPP1ttk.s:1798   .debug_str:0000000000000178 .LASF10
     /tmp/ccPP1ttk.s:1840   .debug_str:000000000000028c .LASF11
     /tmp/ccPP1ttk.s:1864   .debug_str:00000000000003ff .LASF12
     /tmp/ccPP1ttk.s:1762   .debug_str:0000000000000058 .LASF13
     /tmp/ccPP1ttk.s:1746   .debug_str:0000000000000009 .LASF14
     /tmp/ccPP1ttk.s:1770   .debug_str:00000000000000a2 .LASF15
     /tmp/ccPP1ttk.s:1846   .debug_str:00000000000002c3 .LASF16
     /tmp/ccPP1ttk.s:1780   .debug_str:00000000000000f2 .LASF17
     /tmp/ccPP1ttk.s:1744   .debug_str:0000000000000000 .LASF18
     /tmp/ccPP1ttk.s:1800   .debug_str:0000000000000186 .LASF20
     /tmp/ccPP1ttk.s:1786   .debug_str:000000000000011c .LASF19
     /tmp/ccPP1ttk.s:1802   .debug_str:000000000000018e .LASF21
     /tmp/ccPP1ttk.s:1816   .debug_str:00000000000001e1 .LASF22
     /tmp/ccPP1ttk.s:1764   .debug_str:0000000000000068 .LASF23
     /tmp/ccPP1ttk.s:1852   .debug_str:0000000000000301 .LASF24
     /tmp/ccPP1ttk.s:1772   .debug_str:00000000000000ae .LASF25
     /tmp/ccPP1ttk.s:1874   .debug_str:000000000000044e .LASF26
     /tmp/ccPP1ttk.s:1838   .debug_str:0000000000000278 .LASF27
     /tmp/ccPP1ttk.s:1814   .debug_str:00000000000001cf .LASF28
     /tmp/ccPP1ttk.s:1848   .debug_str:00000000000002d9 .LASF29
     /tmp/ccPP1ttk.s:1876   .debug_str:000000000000046f .LASF30
     /tmp/ccPP1ttk.s:1854   .debug_str:0000000000000310 .LASF31
     /tmp/ccPP1ttk.s:1860   .debug_str:000000000000032c .LASF32
     /tmp/ccPP1ttk.s:1790   .debug_str:000000000000012b .LASF33
     /tmp/ccPP1ttk.s:1756   .debug_str:0000000000000038 .LASF34
     /tmp/ccPP1ttk.s:1880   .debug_str:000000000000049e .LASF35
GAS LISTING /tmp/ccPP1ttk.s 			page 19


     /tmp/ccPP1ttk.s:1750   .debug_str:000000000000001e .LASF36
     /tmp/ccPP1ttk.s:1820   .debug_str:00000000000001ff .LASF61
     /tmp/ccPP1ttk.s:1794   .debug_str:000000000000015a .LASF63
     /tmp/ccPP1ttk.s:546    .text:00000000000001fc .LFB29
     /tmp/ccPP1ttk.s:577    .text:0000000000000220 .LFE29
     /tmp/ccPP1ttk.s:1832   .debug_str:000000000000025b .LASF37
     /tmp/ccPP1ttk.s:1748   .debug_str:0000000000000019 .LASF38
     /tmp/ccPP1ttk.s:1754   .debug_str:000000000000002f .LASF40
     /tmp/ccPP1ttk.s:501    .text:00000000000001d0 .LFB28
     /tmp/ccPP1ttk.s:540    .text:00000000000001fc .LFE28
     /tmp/ccPP1ttk.s:1866   .debug_str:000000000000040e .LASF39
     /tmp/ccPP1ttk.s:1796   .debug_str:0000000000000163 .LASF41
     /tmp/ccPP1ttk.s:455    .text:00000000000001a4 .LFB27
     /tmp/ccPP1ttk.s:495    .text:00000000000001d0 .LFE27
     /tmp/ccPP1ttk.s:1631   .debug_loc:0000000000000000 .LLST6
     /tmp/ccPP1ttk.s:1774   .debug_str:00000000000000c7 .LASF42
     /tmp/ccPP1ttk.s:1768   .debug_str:0000000000000090 .LASF43
     /tmp/ccPP1ttk.s:409    .text:0000000000000178 .LFB26
     /tmp/ccPP1ttk.s:449    .text:00000000000001a4 .LFE26
     /tmp/ccPP1ttk.s:1645   .debug_loc:0000000000000039 .LLST5
     /tmp/ccPP1ttk.s:1810   .debug_str:00000000000001b5 .LASF44
     /tmp/ccPP1ttk.s:1836   .debug_str:0000000000000265 .LASF45
     /tmp/ccPP1ttk.s:363    .text:000000000000014c .LFB25
     /tmp/ccPP1ttk.s:403    .text:0000000000000178 .LFE25
     /tmp/ccPP1ttk.s:1856   .debug_str:0000000000000320 .LASF46
     /tmp/ccPP1ttk.s:1659   .debug_loc:0000000000000072 .LLST4
     /tmp/ccPP1ttk.s:1788   .debug_str:0000000000000122 .LASF47
     /tmp/ccPP1ttk.s:1778   .debug_str:00000000000000de .LASF48
     /tmp/ccPP1ttk.s:317    .text:0000000000000120 .LFB24
     /tmp/ccPP1ttk.s:357    .text:000000000000014c .LFE24
     /tmp/ccPP1ttk.s:1673   .debug_loc:00000000000000ab .LLST3
     /tmp/ccPP1ttk.s:1834   .debug_str:0000000000000260 .LASF49
     /tmp/ccPP1ttk.s:1812   .debug_str:00000000000001bf .LASF69
     /tmp/ccPP1ttk.s:1844   .debug_str:00000000000002ae .LASF70
     /tmp/ccPP1ttk.s:281    .text:00000000000000fc .LFB23
     /tmp/ccPP1ttk.s:311    .text:0000000000000120 .LFE23
     /tmp/ccPP1ttk.s:1752   .debug_str:0000000000000023 .LASF50
     /tmp/ccPP1ttk.s:1828   .debug_str:0000000000000237 .LASF51
     /tmp/ccPP1ttk.s:236    .text:00000000000000d0 .LFB22
     /tmp/ccPP1ttk.s:275    .text:00000000000000fc .LFE22
     /tmp/ccPP1ttk.s:1782   .debug_str:0000000000000108 .LASF52
     /tmp/ccPP1ttk.s:1884   .debug_str:00000000000004b7 .LASF53
     /tmp/ccPP1ttk.s:190    .text:00000000000000a4 .LFB21
     /tmp/ccPP1ttk.s:230    .text:00000000000000d0 .LFE21
     /tmp/ccPP1ttk.s:1687   .debug_loc:00000000000000e4 .LLST2
     /tmp/ccPP1ttk.s:1758   .debug_str:0000000000000043 .LASF54
     /tmp/ccPP1ttk.s:1872   .debug_str:0000000000000433 .LASF55
     /tmp/ccPP1ttk.s:1878   .debug_str:000000000000047e .LASF56
     /tmp/ccPP1ttk.s:146    .text:000000000000007c .LFB20
     /tmp/ccPP1ttk.s:184    .text:00000000000000a4 .LFE20
     /tmp/ccPP1ttk.s:1842   .debug_str:000000000000029b .LASF57
     /tmp/ccPP1ttk.s:1766   .debug_str:0000000000000078 .LASF58
     /tmp/ccPP1ttk.s:102    .text:0000000000000054 .LFB19
     /tmp/ccPP1ttk.s:140    .text:000000000000007c .LFE19
     /tmp/ccPP1ttk.s:1806   .debug_str:000000000000019a .LASF59
     /tmp/ccPP1ttk.s:1882   .debug_str:00000000000004a9 .LASF60
     /tmp/ccPP1ttk.s:56     .text:0000000000000028 .LFB18
GAS LISTING /tmp/ccPP1ttk.s 			page 20


     /tmp/ccPP1ttk.s:96     .text:0000000000000054 .LFE18
     /tmp/ccPP1ttk.s:1701   .debug_loc:000000000000011d .LLST1
     /tmp/ccPP1ttk.s:1870   .debug_str:0000000000000429 .LASF62
     /tmp/ccPP1ttk.s:1776   .debug_str:00000000000000d0 .LASF64
     /tmp/ccPP1ttk.s:10     .text:0000000000000000 .LFB17
     /tmp/ccPP1ttk.s:50     .text:0000000000000028 .LFE17
     /tmp/ccPP1ttk.s:1858   .debug_str:0000000000000327 .LASF65
     /tmp/ccPP1ttk.s:1715   .debug_loc:0000000000000156 .LLST0
     /tmp/ccPP1ttk.s:458    .text:00000000000001a4 .LVL15
     /tmp/ccPP1ttk.s:483    .text:00000000000001c0 .LVL16
     /tmp/ccPP1ttk.s:412    .text:0000000000000178 .LVL13
     /tmp/ccPP1ttk.s:437    .text:0000000000000194 .LVL14
     /tmp/ccPP1ttk.s:366    .text:000000000000014c .LVL11
     /tmp/ccPP1ttk.s:391    .text:0000000000000168 .LVL12
     /tmp/ccPP1ttk.s:320    .text:0000000000000120 .LVL9
     /tmp/ccPP1ttk.s:345    .text:000000000000013c .LVL10
     /tmp/ccPP1ttk.s:193    .text:00000000000000a4 .LVL6
     /tmp/ccPP1ttk.s:218    .text:00000000000000c0 .LVL7
     /tmp/ccPP1ttk.s:59     .text:0000000000000028 .LVL2
     /tmp/ccPP1ttk.s:84     .text:0000000000000044 .LVL3
     /tmp/ccPP1ttk.s:14     .text:0000000000000000 .LVL0
     /tmp/ccPP1ttk.s:39     .text:000000000000001c .LVL1
     /tmp/ccPP1ttk.s:584    .debug_info:0000000000000000 .Ldebug_info0

NO UNDEFINED SYMBOLS
