GAS LISTING /tmp/ccCROOqm.s 			page 1


   1              		.file	"syscall_cpp.cpp"
   2              		.option pic
   3              		.option norelax
   4              		.text
   5              	.Ltext0:
   6              		.section	.text._ZN6Thread3runEv,"axG",@progbits,_ZN6Thread3runEv,comdat
   7              		.align	2
   8              		.weak	_ZN6Thread3runEv
  10              	_ZN6Thread3runEv:
  11              	.LFB0:
  12              		.file 1 "src/../h/syscall_cpp.hpp"
   1:src/../h/syscall_cpp.hpp **** //
   2:src/../h/syscall_cpp.hpp **** // Created by os on 10/10/25.
   3:src/../h/syscall_cpp.hpp **** //
   4:src/../h/syscall_cpp.hpp **** 
   5:src/../h/syscall_cpp.hpp **** #ifndef PROJECT_BASE_SYSCALL_CPP_HPP
   6:src/../h/syscall_cpp.hpp **** #define PROJECT_BASE_SYSCALL_CPP_HPP
   7:src/../h/syscall_cpp.hpp **** #include "syscall_c.hpp"
   8:src/../h/syscall_cpp.hpp **** 
   9:src/../h/syscall_cpp.hpp **** void* operator new (size_t);
  10:src/../h/syscall_cpp.hpp **** void operator delete (void*);
  11:src/../h/syscall_cpp.hpp **** 
  12:src/../h/syscall_cpp.hpp **** class Thread {
  13:src/../h/syscall_cpp.hpp **** public:
  14:src/../h/syscall_cpp.hpp ****     Thread (void (*body) (void*), void* arg);
  15:src/../h/syscall_cpp.hpp ****     virtual ~Thread();
  16:src/../h/syscall_cpp.hpp **** 
  17:src/../h/syscall_cpp.hpp ****     int start();
  18:src/../h/syscall_cpp.hpp **** 
  19:src/../h/syscall_cpp.hpp ****     static void dispatch();
  20:src/../h/syscall_cpp.hpp **** 
  21:src/../h/syscall_cpp.hpp **** 
  22:src/../h/syscall_cpp.hpp **** 
  23:src/../h/syscall_cpp.hpp **** protected:
  24:src/../h/syscall_cpp.hpp ****     Thread();
  25:src/../h/syscall_cpp.hpp ****     virtual void run() {}
  13              		.loc 1 25 18
  14              		.cfi_startproc
  15              	.LVL0:
  16 0000 130101FF 		addi	sp,sp,-16
  17              		.cfi_def_cfa_offset 16
  18 0004 23348100 		sd	s0,8(sp)
  19              		.cfi_offset 8, -8
  20 0008 13040101 		addi	s0,sp,16
  21              		.cfi_def_cfa 8, 0
  22              		.loc 1 25 25 is_stmt 0
  23 000c 03348100 		ld	s0,8(sp)
  24              		.cfi_restore 8
  25              		.cfi_def_cfa 2, 16
  26 0010 13010101 		addi	sp,sp,16
  27              		.cfi_def_cfa_offset 0
  28 0014 67800000 		jr	ra
  29              		.cfi_endproc
  30              	.LFE0:
  32              		.text
  33              		.align	2
  34              		.globl	_ZN6ThreadD2Ev
GAS LISTING /tmp/ccCROOqm.s 			page 2


  36              	_ZN6ThreadD2Ev:
  37              	.LFB27:
  38              		.file 2 "src/syscall_cpp.cpp"
   1:src/syscall_cpp.cpp **** //
   2:src/syscall_cpp.cpp **** // Created by os on 10/10/25.
   3:src/syscall_cpp.cpp **** //
   4:src/syscall_cpp.cpp **** 
   5:src/syscall_cpp.cpp **** #include "../h/syscall_cpp.hpp"
   6:src/syscall_cpp.cpp **** #include "../h/_thread.hpp"
   7:src/syscall_cpp.cpp **** #include "../lib/console.h"
   8:src/syscall_cpp.cpp **** 
   9:src/syscall_cpp.cpp **** 
  10:src/syscall_cpp.cpp **** char Console::getc() {
  11:src/syscall_cpp.cpp ****     return __getc();
  12:src/syscall_cpp.cpp **** }
  13:src/syscall_cpp.cpp **** 
  14:src/syscall_cpp.cpp **** void Console::putc(char c) {
  15:src/syscall_cpp.cpp ****     __putc(c);
  16:src/syscall_cpp.cpp **** }
  17:src/syscall_cpp.cpp **** 
  18:src/syscall_cpp.cpp **** Thread::Thread(void (*body)(void *), void *arg) {
  19:src/syscall_cpp.cpp ****     thread_create(&myHandle, body, arg);
  20:src/syscall_cpp.cpp ****     myHandle->setStart(false);
  21:src/syscall_cpp.cpp **** }
  22:src/syscall_cpp.cpp **** 
  23:src/syscall_cpp.cpp **** int Thread::start() {
  24:src/syscall_cpp.cpp ****     myHandle->setStart(true);
  25:src/syscall_cpp.cpp ****     return 0;
  26:src/syscall_cpp.cpp **** }
  27:src/syscall_cpp.cpp **** 
  28:src/syscall_cpp.cpp **** void Thread::dispatch() {
  29:src/syscall_cpp.cpp ****     thread_dispatch();
  30:src/syscall_cpp.cpp **** 
  31:src/syscall_cpp.cpp **** }
  32:src/syscall_cpp.cpp **** 
  33:src/syscall_cpp.cpp **** Thread::~Thread() {
  39              		.loc 2 33 1 is_stmt 1
  40              		.cfi_startproc
  41              	.LVL1:
  42 0000 130101FF 		addi	sp,sp,-16
  43              		.cfi_def_cfa_offset 16
  44 0004 23348100 		sd	s0,8(sp)
  45              		.cfi_offset 8, -8
  46 0008 13040101 		addi	s0,sp,16
  47              		.cfi_def_cfa 8, 0
  34:src/syscall_cpp.cpp **** 
  35:src/syscall_cpp.cpp **** }
  48              		.loc 2 35 1 is_stmt 0
  49 000c 03348100 		ld	s0,8(sp)
  50              		.cfi_restore 8
  51              		.cfi_def_cfa 2, 16
  52 0010 13010101 		addi	sp,sp,16
  53              		.cfi_def_cfa_offset 0
  54 0014 67800000 		jr	ra
  55              		.cfi_endproc
  56              	.LFE27:
  58              		.globl	_ZN6ThreadD1Ev
GAS LISTING /tmp/ccCROOqm.s 			page 3


  59              		.set	_ZN6ThreadD1Ev,_ZN6ThreadD2Ev
  60              		.align	2
  61              		.globl	_ZN6Thread12startWrapperEPv
  63              	_ZN6Thread12startWrapperEPv:
  64              	.LFB33:
  36:src/syscall_cpp.cpp **** 
  37:src/syscall_cpp.cpp **** Thread::Thread() {
  38:src/syscall_cpp.cpp ****     thread_create(&myHandle, &startWrapper, this);
  39:src/syscall_cpp.cpp ****     myHandle->setStart(false);
  40:src/syscall_cpp.cpp **** }
  41:src/syscall_cpp.cpp **** 
  42:src/syscall_cpp.cpp **** void Thread::startWrapper(void *thread) {
  65              		.loc 2 42 41 is_stmt 1
  66              		.cfi_startproc
  67              	.LVL2:
  68 0018 130101FF 		addi	sp,sp,-16
  69              		.cfi_def_cfa_offset 16
  70 001c 23341100 		sd	ra,8(sp)
  71 0020 23308100 		sd	s0,0(sp)
  72              		.cfi_offset 1, -8
  73              		.cfi_offset 8, -16
  74 0024 13040101 		addi	s0,sp,16
  75              		.cfi_def_cfa 8, 0
  43:src/syscall_cpp.cpp ****     Thread* t = (Thread*)thread;
  76              		.loc 2 43 5
  77              	.LVL3:
  44:src/syscall_cpp.cpp ****     t->run();
  78              		.loc 2 44 5
  79              		.loc 2 44 12 is_stmt 0
  80 0028 83370500 		ld	a5,0(a0)
  81 002c 83B70701 		ld	a5,16(a5)
  82              		.loc 2 44 11
  83 0030 E7800700 		jalr	a5
  84              	.LVL4:
  45:src/syscall_cpp.cpp **** }
  85              		.loc 2 45 1
  86 0034 83308100 		ld	ra,8(sp)
  87              		.cfi_restore 1
  88 0038 03340100 		ld	s0,0(sp)
  89              		.cfi_restore 8
  90              		.cfi_def_cfa 2, 16
  91 003c 13010101 		addi	sp,sp,16
  92              		.cfi_def_cfa_offset 0
  93 0040 67800000 		jr	ra
  94              		.cfi_endproc
  95              	.LFE33:
  97              		.align	2
  98              		.globl	_ZN6ThreadD0Ev
 100              	_ZN6ThreadD0Ev:
 101              	.LFB29:
  33:src/syscall_cpp.cpp **** 
 102              		.loc 2 33 1 is_stmt 1
 103              		.cfi_startproc
 104              	.LVL5:
 105 0044 130101FF 		addi	sp,sp,-16
 106              		.cfi_def_cfa_offset 16
 107 0048 23341100 		sd	ra,8(sp)
GAS LISTING /tmp/ccCROOqm.s 			page 4


 108 004c 23308100 		sd	s0,0(sp)
 109              		.cfi_offset 1, -8
 110              		.cfi_offset 8, -16
 111 0050 13040101 		addi	s0,sp,16
 112              		.cfi_def_cfa 8, 0
  35:src/syscall_cpp.cpp **** 
 113              		.loc 2 35 1 is_stmt 0
 114 0054 97000000 		call	_ZdlPv@plt
 114      E7800000 
 115              	.LVL6:
 116 005c 83308100 		ld	ra,8(sp)
 117              		.cfi_restore 1
 118 0060 03340100 		ld	s0,0(sp)
 119              		.cfi_restore 8
 120              		.cfi_def_cfa 2, 16
 121 0064 13010101 		addi	sp,sp,16
 122              		.cfi_def_cfa_offset 0
 123 0068 67800000 		jr	ra
 124              		.cfi_endproc
 125              	.LFE29:
 127              		.align	2
 128              		.globl	_ZN9SemaphoreD2Ev
 130              	_ZN9SemaphoreD2Ev:
 131              	.LFB40:
  46:src/syscall_cpp.cpp **** 
  47:src/syscall_cpp.cpp **** int Semaphore::wait() {
  48:src/syscall_cpp.cpp ****     return sem_wait(myHandle);
  49:src/syscall_cpp.cpp **** }
  50:src/syscall_cpp.cpp **** 
  51:src/syscall_cpp.cpp **** int Semaphore::signal() {
  52:src/syscall_cpp.cpp ****     return sem_signal(myHandle);
  53:src/syscall_cpp.cpp **** }
  54:src/syscall_cpp.cpp **** 
  55:src/syscall_cpp.cpp **** Semaphore::Semaphore(unsigned int init) {
  56:src/syscall_cpp.cpp ****     sem_open(&myHandle, init);
  57:src/syscall_cpp.cpp **** }
  58:src/syscall_cpp.cpp **** 
  59:src/syscall_cpp.cpp **** Semaphore::~Semaphore() {
 132              		.loc 2 59 1 is_stmt 1
 133              		.cfi_startproc
 134              		.cfi_personality 0x9b,DW.ref.__gxx_personality_v0
 135              		.cfi_lsda 0x1b,.LLSDA40
 136              	.LVL7:
 137 006c 130101FF 		addi	sp,sp,-16
 138              		.cfi_def_cfa_offset 16
 139 0070 23341100 		sd	ra,8(sp)
 140 0074 23308100 		sd	s0,0(sp)
 141              		.cfi_offset 1, -8
 142              		.cfi_offset 8, -16
 143 0078 13040101 		addi	s0,sp,16
 144              		.cfi_def_cfa 8, 0
 145              	.LBB2:
 146              		.loc 2 59 23 is_stmt 0
 147 007c 97070000 		lla	a5,_ZTV9Semaphore+16
 147      93870700 
 148 0084 2330F500 		sd	a5,0(a0)
  60:src/syscall_cpp.cpp ****     sem_close(myHandle);
GAS LISTING /tmp/ccCROOqm.s 			page 5


 149              		.loc 2 60 5 is_stmt 1
 150              		.loc 2 60 14 is_stmt 0
 151 0088 03358500 		ld	a0,8(a0)
 152              	.LVL8:
 153 008c 97000000 		call	_Z9sem_closeP4_sem@plt
 153      E7800000 
 154              	.LVL9:
 155              	.LBE2:
  61:src/syscall_cpp.cpp **** 
  62:src/syscall_cpp.cpp **** }
 156              		.loc 2 62 1
 157 0094 83308100 		ld	ra,8(sp)
 158              		.cfi_restore 1
 159 0098 03340100 		ld	s0,0(sp)
 160              		.cfi_restore 8
 161              		.cfi_def_cfa 2, 16
 162 009c 13010101 		addi	sp,sp,16
 163              		.cfi_def_cfa_offset 0
 164 00a0 67800000 		jr	ra
 165              		.cfi_endproc
 166              	.LFE40:
 167              		.globl	__gxx_personality_v0
 168              		.section	.gcc_except_table,"a",@progbits
 169              	.LLSDA40:
 170 0000 FF       		.byte	0xff
 171 0001 FF       		.byte	0xff
 172 0002 03       		.byte	0x3
 173 0003 00       		.byte	0
 174              		.text
 176              		.globl	_ZN9SemaphoreD1Ev
 177              		.set	_ZN9SemaphoreD1Ev,_ZN9SemaphoreD2Ev
 178              		.align	2
 179              		.globl	_ZN9SemaphoreD0Ev
 181              	_ZN9SemaphoreD0Ev:
 182              	.LFB42:
  59:src/syscall_cpp.cpp ****     sem_close(myHandle);
 183              		.loc 2 59 1 is_stmt 1
 184              		.cfi_startproc
 185              	.LVL10:
 186 00a4 130101FE 		addi	sp,sp,-32
 187              		.cfi_def_cfa_offset 32
 188 00a8 233C1100 		sd	ra,24(sp)
 189 00ac 23388100 		sd	s0,16(sp)
 190 00b0 23349100 		sd	s1,8(sp)
 191              		.cfi_offset 1, -8
 192              		.cfi_offset 8, -16
 193              		.cfi_offset 9, -24
 194 00b4 13040102 		addi	s0,sp,32
 195              		.cfi_def_cfa 8, 0
 196 00b8 93040500 		mv	s1,a0
 197              		.loc 2 62 1 is_stmt 0
 198 00bc 97000000 		call	_ZN9SemaphoreD1Ev
 198      E7800000 
 199              	.LVL11:
 200 00c4 13850400 		mv	a0,s1
 201 00c8 97000000 		call	_ZdlPv@plt
 201      E7800000 
GAS LISTING /tmp/ccCROOqm.s 			page 6


 202              	.LVL12:
 203 00d0 83308101 		ld	ra,24(sp)
 204              		.cfi_restore 1
 205 00d4 03340101 		ld	s0,16(sp)
 206              		.cfi_restore 8
 207              		.cfi_def_cfa 2, 32
 208 00d8 83348100 		ld	s1,8(sp)
 209              		.cfi_restore 9
 210              	.LVL13:
 211 00dc 13010102 		addi	sp,sp,32
 212              		.cfi_def_cfa_offset 0
 213 00e0 67800000 		jr	ra
 214              		.cfi_endproc
 215              	.LFE42:
 217              		.align	2
 218              		.globl	_ZN7Console4getcEv
 220              	_ZN7Console4getcEv:
 221              	.LFB19:
  10:src/syscall_cpp.cpp ****     return __getc();
 222              		.loc 2 10 22 is_stmt 1
 223              		.cfi_startproc
 224 00e4 130101FF 		addi	sp,sp,-16
 225              		.cfi_def_cfa_offset 16
 226 00e8 23341100 		sd	ra,8(sp)
 227 00ec 23308100 		sd	s0,0(sp)
 228              		.cfi_offset 1, -8
 229              		.cfi_offset 8, -16
 230 00f0 13040101 		addi	s0,sp,16
 231              		.cfi_def_cfa 8, 0
  11:src/syscall_cpp.cpp **** }
 232              		.loc 2 11 5
  11:src/syscall_cpp.cpp **** }
 233              		.loc 2 11 18 is_stmt 0
 234 00f4 97000000 		call	__getc@plt
 234      E7800000 
 235              	.LVL14:
  12:src/syscall_cpp.cpp **** 
 236              		.loc 2 12 1
 237 00fc 83308100 		ld	ra,8(sp)
 238              		.cfi_restore 1
 239 0100 03340100 		ld	s0,0(sp)
 240              		.cfi_restore 8
 241              		.cfi_def_cfa 2, 16
 242 0104 13010101 		addi	sp,sp,16
 243              		.cfi_def_cfa_offset 0
 244 0108 67800000 		jr	ra
 245              		.cfi_endproc
 246              	.LFE19:
 248              		.align	2
 249              		.globl	_ZN7Console4putcEc
 251              	_ZN7Console4putcEc:
 252              	.LFB20:
  14:src/syscall_cpp.cpp ****     __putc(c);
 253              		.loc 2 14 28 is_stmt 1
 254              		.cfi_startproc
 255              	.LVL15:
 256 010c 130101FF 		addi	sp,sp,-16
GAS LISTING /tmp/ccCROOqm.s 			page 7


 257              		.cfi_def_cfa_offset 16
 258 0110 23341100 		sd	ra,8(sp)
 259 0114 23308100 		sd	s0,0(sp)
 260              		.cfi_offset 1, -8
 261              		.cfi_offset 8, -16
 262 0118 13040101 		addi	s0,sp,16
 263              		.cfi_def_cfa 8, 0
  15:src/syscall_cpp.cpp **** }
 264              		.loc 2 15 5
  15:src/syscall_cpp.cpp **** }
 265              		.loc 2 15 11 is_stmt 0
 266 011c 97000000 		call	__putc@plt
 266      E7800000 
 267              	.LVL16:
  16:src/syscall_cpp.cpp **** 
 268              		.loc 2 16 1
 269 0124 83308100 		ld	ra,8(sp)
 270              		.cfi_restore 1
 271 0128 03340100 		ld	s0,0(sp)
 272              		.cfi_restore 8
 273              		.cfi_def_cfa 2, 16
 274 012c 13010101 		addi	sp,sp,16
 275              		.cfi_def_cfa_offset 0
 276 0130 67800000 		jr	ra
 277              		.cfi_endproc
 278              	.LFE20:
 280              		.align	2
 281              		.globl	_ZN6ThreadC2EPFvPvES0_
 283              	_ZN6ThreadC2EPFvPvES0_:
 284              	.LFB22:
  18:src/syscall_cpp.cpp ****     thread_create(&myHandle, body, arg);
 285              		.loc 2 18 1 is_stmt 1
 286              		.cfi_startproc
 287              	.LVL17:
 288 0134 130101FE 		addi	sp,sp,-32
 289              		.cfi_def_cfa_offset 32
 290 0138 233C1100 		sd	ra,24(sp)
 291 013c 23388100 		sd	s0,16(sp)
 292 0140 23349100 		sd	s1,8(sp)
 293              		.cfi_offset 1, -8
 294              		.cfi_offset 8, -16
 295              		.cfi_offset 9, -24
 296 0144 13040102 		addi	s0,sp,32
 297              		.cfi_def_cfa 8, 0
 298 0148 93040500 		mv	s1,a0
 299              	.LBB3:
  18:src/syscall_cpp.cpp ****     thread_create(&myHandle, body, arg);
 300              		.loc 2 18 47 is_stmt 0
 301 014c 97070000 		lla	a5,_ZTV6Thread+16
 301      93870700 
 302 0154 2330F500 		sd	a5,0(a0)
  19:src/syscall_cpp.cpp ****     myHandle->setStart(false);
 303              		.loc 2 19 5 is_stmt 1
  19:src/syscall_cpp.cpp ****     myHandle->setStart(false);
 304              		.loc 2 19 18 is_stmt 0
 305 0158 13058500 		addi	a0,a0,8
 306              	.LVL18:
GAS LISTING /tmp/ccCROOqm.s 			page 8


 307 015c 97000000 		call	_Z13thread_createPP7_threadPFvPvES2_@plt
 307      E7800000 
 308              	.LVL19:
  20:src/syscall_cpp.cpp **** }
 309              		.loc 2 20 5 is_stmt 1
  20:src/syscall_cpp.cpp **** }
 310              		.loc 2 20 23 is_stmt 0
 311 0164 93050000 		li	a1,0
 312 0168 03B58400 		ld	a0,8(s1)
 313 016c 97000000 		call	_ZN7_thread8setStartEb@plt
 313      E7800000 
 314              	.LVL20:
 315              	.LBE3:
  21:src/syscall_cpp.cpp **** 
 316              		.loc 2 21 1
 317 0174 83308101 		ld	ra,24(sp)
 318              		.cfi_restore 1
 319 0178 03340101 		ld	s0,16(sp)
 320              		.cfi_restore 8
 321              		.cfi_def_cfa 2, 32
 322 017c 83348100 		ld	s1,8(sp)
 323              		.cfi_restore 9
 324              	.LVL21:
 325 0180 13010102 		addi	sp,sp,32
 326              		.cfi_def_cfa_offset 0
 327 0184 67800000 		jr	ra
 328              		.cfi_endproc
 329              	.LFE22:
 331              		.globl	_ZN6ThreadC1EPFvPvES0_
 332              		.set	_ZN6ThreadC1EPFvPvES0_,_ZN6ThreadC2EPFvPvES0_
 333              		.align	2
 334              		.globl	_ZN6Thread5startEv
 336              	_ZN6Thread5startEv:
 337              	.LFB24:
  23:src/syscall_cpp.cpp ****     myHandle->setStart(true);
 338              		.loc 2 23 21 is_stmt 1
 339              		.cfi_startproc
 340              	.LVL22:
 341 0188 130101FF 		addi	sp,sp,-16
 342              		.cfi_def_cfa_offset 16
 343 018c 23341100 		sd	ra,8(sp)
 344 0190 23308100 		sd	s0,0(sp)
 345              		.cfi_offset 1, -8
 346              		.cfi_offset 8, -16
 347 0194 13040101 		addi	s0,sp,16
 348              		.cfi_def_cfa 8, 0
  24:src/syscall_cpp.cpp ****     return 0;
 349              		.loc 2 24 5
  24:src/syscall_cpp.cpp ****     return 0;
 350              		.loc 2 24 23 is_stmt 0
 351 0198 93051000 		li	a1,1
 352 019c 03358500 		ld	a0,8(a0)
 353              	.LVL23:
 354 01a0 97000000 		call	_ZN7_thread8setStartEb@plt
 354      E7800000 
 355              	.LVL24:
  25:src/syscall_cpp.cpp **** }
GAS LISTING /tmp/ccCROOqm.s 			page 9


 356              		.loc 2 25 5 is_stmt 1
  26:src/syscall_cpp.cpp **** 
 357              		.loc 2 26 1 is_stmt 0
 358 01a8 13050000 		li	a0,0
 359 01ac 83308100 		ld	ra,8(sp)
 360              		.cfi_restore 1
 361 01b0 03340100 		ld	s0,0(sp)
 362              		.cfi_restore 8
 363              		.cfi_def_cfa 2, 16
 364 01b4 13010101 		addi	sp,sp,16
 365              		.cfi_def_cfa_offset 0
 366 01b8 67800000 		jr	ra
 367              		.cfi_endproc
 368              	.LFE24:
 370              		.align	2
 371              		.globl	_ZN6Thread8dispatchEv
 373              	_ZN6Thread8dispatchEv:
 374              	.LFB25:
  28:src/syscall_cpp.cpp ****     thread_dispatch();
 375              		.loc 2 28 25 is_stmt 1
 376              		.cfi_startproc
 377 01bc 130101FF 		addi	sp,sp,-16
 378              		.cfi_def_cfa_offset 16
 379 01c0 23341100 		sd	ra,8(sp)
 380 01c4 23308100 		sd	s0,0(sp)
 381              		.cfi_offset 1, -8
 382              		.cfi_offset 8, -16
 383 01c8 13040101 		addi	s0,sp,16
 384              		.cfi_def_cfa 8, 0
  29:src/syscall_cpp.cpp **** 
 385              		.loc 2 29 5
  29:src/syscall_cpp.cpp **** 
 386              		.loc 2 29 20 is_stmt 0
 387 01cc 97000000 		call	_Z15thread_dispatchv@plt
 387      E7800000 
 388              	.LVL25:
  31:src/syscall_cpp.cpp **** 
 389              		.loc 2 31 1
 390 01d4 83308100 		ld	ra,8(sp)
 391              		.cfi_restore 1
 392 01d8 03340100 		ld	s0,0(sp)
 393              		.cfi_restore 8
 394              		.cfi_def_cfa 2, 16
 395 01dc 13010101 		addi	sp,sp,16
 396              		.cfi_def_cfa_offset 0
 397 01e0 67800000 		jr	ra
 398              		.cfi_endproc
 399              	.LFE25:
 401              		.align	2
 402              		.globl	_ZN6ThreadC2Ev
 404              	_ZN6ThreadC2Ev:
 405              	.LFB31:
  37:src/syscall_cpp.cpp ****     thread_create(&myHandle, &startWrapper, this);
 406              		.loc 2 37 1 is_stmt 1
 407              		.cfi_startproc
 408              	.LVL26:
 409 01e4 130101FE 		addi	sp,sp,-32
GAS LISTING /tmp/ccCROOqm.s 			page 10


 410              		.cfi_def_cfa_offset 32
 411 01e8 233C1100 		sd	ra,24(sp)
 412 01ec 23388100 		sd	s0,16(sp)
 413 01f0 23349100 		sd	s1,8(sp)
 414              		.cfi_offset 1, -8
 415              		.cfi_offset 8, -16
 416              		.cfi_offset 9, -24
 417 01f4 13040102 		addi	s0,sp,32
 418              		.cfi_def_cfa 8, 0
 419 01f8 93040500 		mv	s1,a0
 420              	.LBB4:
  37:src/syscall_cpp.cpp ****     thread_create(&myHandle, &startWrapper, this);
 421              		.loc 2 37 16 is_stmt 0
 422 01fc 97070000 		lla	a5,_ZTV6Thread+16
 422      93870700 
 423 0204 2330F500 		sd	a5,0(a0)
  38:src/syscall_cpp.cpp ****     myHandle->setStart(false);
 424              		.loc 2 38 5 is_stmt 1
  38:src/syscall_cpp.cpp ****     myHandle->setStart(false);
 425              		.loc 2 38 18 is_stmt 0
 426 0208 13060500 		mv	a2,a0
 427 020c 97050000 		lla	a1,_ZN6Thread12startWrapperEPv
 427      93850500 
 428 0214 13058500 		addi	a0,a0,8
 429              	.LVL27:
 430 0218 97000000 		call	_Z13thread_createPP7_threadPFvPvES2_@plt
 430      E7800000 
 431              	.LVL28:
  39:src/syscall_cpp.cpp **** }
 432              		.loc 2 39 5 is_stmt 1
  39:src/syscall_cpp.cpp **** }
 433              		.loc 2 39 23 is_stmt 0
 434 0220 93050000 		li	a1,0
 435 0224 03B58400 		ld	a0,8(s1)
 436 0228 97000000 		call	_ZN7_thread8setStartEb@plt
 436      E7800000 
 437              	.LVL29:
 438              	.LBE4:
  40:src/syscall_cpp.cpp **** 
 439              		.loc 2 40 1
 440 0230 83308101 		ld	ra,24(sp)
 441              		.cfi_restore 1
 442 0234 03340101 		ld	s0,16(sp)
 443              		.cfi_restore 8
 444              		.cfi_def_cfa 2, 32
 445 0238 83348100 		ld	s1,8(sp)
 446              		.cfi_restore 9
 447              	.LVL30:
 448 023c 13010102 		addi	sp,sp,32
 449              		.cfi_def_cfa_offset 0
 450 0240 67800000 		jr	ra
 451              		.cfi_endproc
 452              	.LFE31:
 454              		.globl	_ZN6ThreadC1Ev
 455              		.set	_ZN6ThreadC1Ev,_ZN6ThreadC2Ev
 456              		.align	2
 457              		.globl	_ZN9Semaphore4waitEv
GAS LISTING /tmp/ccCROOqm.s 			page 11


 459              	_ZN9Semaphore4waitEv:
 460              	.LFB34:
  47:src/syscall_cpp.cpp ****     return sem_wait(myHandle);
 461              		.loc 2 47 23 is_stmt 1
 462              		.cfi_startproc
 463              	.LVL31:
 464 0244 130101FF 		addi	sp,sp,-16
 465              		.cfi_def_cfa_offset 16
 466 0248 23341100 		sd	ra,8(sp)
 467 024c 23308100 		sd	s0,0(sp)
 468              		.cfi_offset 1, -8
 469              		.cfi_offset 8, -16
 470 0250 13040101 		addi	s0,sp,16
 471              		.cfi_def_cfa 8, 0
  48:src/syscall_cpp.cpp **** }
 472              		.loc 2 48 5
  48:src/syscall_cpp.cpp **** }
 473              		.loc 2 48 20 is_stmt 0
 474 0254 03358500 		ld	a0,8(a0)
 475              	.LVL32:
 476 0258 97000000 		call	_Z8sem_waitP4_sem@plt
 476      E7800000 
 477              	.LVL33:
  49:src/syscall_cpp.cpp **** 
 478              		.loc 2 49 1
 479 0260 83308100 		ld	ra,8(sp)
 480              		.cfi_restore 1
 481 0264 03340100 		ld	s0,0(sp)
 482              		.cfi_restore 8
 483              		.cfi_def_cfa 2, 16
 484 0268 13010101 		addi	sp,sp,16
 485              		.cfi_def_cfa_offset 0
 486 026c 67800000 		jr	ra
 487              		.cfi_endproc
 488              	.LFE34:
 490              		.align	2
 491              		.globl	_ZN9Semaphore6signalEv
 493              	_ZN9Semaphore6signalEv:
 494              	.LFB35:
  51:src/syscall_cpp.cpp ****     return sem_signal(myHandle);
 495              		.loc 2 51 25 is_stmt 1
 496              		.cfi_startproc
 497              	.LVL34:
 498 0270 130101FF 		addi	sp,sp,-16
 499              		.cfi_def_cfa_offset 16
 500 0274 23341100 		sd	ra,8(sp)
 501 0278 23308100 		sd	s0,0(sp)
 502              		.cfi_offset 1, -8
 503              		.cfi_offset 8, -16
 504 027c 13040101 		addi	s0,sp,16
 505              		.cfi_def_cfa 8, 0
  52:src/syscall_cpp.cpp **** }
 506              		.loc 2 52 5
  52:src/syscall_cpp.cpp **** }
 507              		.loc 2 52 22 is_stmt 0
 508 0280 03358500 		ld	a0,8(a0)
 509              	.LVL35:
GAS LISTING /tmp/ccCROOqm.s 			page 12


 510 0284 97000000 		call	_Z10sem_signalP4_sem@plt
 510      E7800000 
 511              	.LVL36:
  53:src/syscall_cpp.cpp **** 
 512              		.loc 2 53 1
 513 028c 83308100 		ld	ra,8(sp)
 514              		.cfi_restore 1
 515 0290 03340100 		ld	s0,0(sp)
 516              		.cfi_restore 8
 517              		.cfi_def_cfa 2, 16
 518 0294 13010101 		addi	sp,sp,16
 519              		.cfi_def_cfa_offset 0
 520 0298 67800000 		jr	ra
 521              		.cfi_endproc
 522              	.LFE35:
 524              		.align	2
 525              		.globl	_ZN9SemaphoreC2Ej
 527              	_ZN9SemaphoreC2Ej:
 528              	.LFB37:
  55:src/syscall_cpp.cpp ****     sem_open(&myHandle, init);
 529              		.loc 2 55 1 is_stmt 1
 530              		.cfi_startproc
 531              	.LVL37:
 532 029c 130101FF 		addi	sp,sp,-16
 533              		.cfi_def_cfa_offset 16
 534 02a0 23341100 		sd	ra,8(sp)
 535 02a4 23308100 		sd	s0,0(sp)
 536              		.cfi_offset 1, -8
 537              		.cfi_offset 8, -16
 538 02a8 13040101 		addi	s0,sp,16
 539              		.cfi_def_cfa 8, 0
 540              	.LBB5:
  55:src/syscall_cpp.cpp ****     sem_open(&myHandle, init);
 541              		.loc 2 55 39 is_stmt 0
 542 02ac 97070000 		lla	a5,_ZTV9Semaphore+16
 542      93870700 
 543 02b4 2330F500 		sd	a5,0(a0)
  56:src/syscall_cpp.cpp **** }
 544              		.loc 2 56 5 is_stmt 1
  56:src/syscall_cpp.cpp **** }
 545              		.loc 2 56 13 is_stmt 0
 546 02b8 13058500 		addi	a0,a0,8
 547              	.LVL38:
 548 02bc 97000000 		call	_Z8sem_openPP4_semj@plt
 548      E7800000 
 549              	.LVL39:
 550              	.LBE5:
  57:src/syscall_cpp.cpp **** 
 551              		.loc 2 57 1
 552 02c4 83308100 		ld	ra,8(sp)
 553              		.cfi_restore 1
 554 02c8 03340100 		ld	s0,0(sp)
 555              		.cfi_restore 8
 556              		.cfi_def_cfa 2, 16
 557 02cc 13010101 		addi	sp,sp,16
 558              		.cfi_def_cfa_offset 0
 559 02d0 67800000 		jr	ra
GAS LISTING /tmp/ccCROOqm.s 			page 13


 560              		.cfi_endproc
 561              	.LFE37:
 563              		.globl	_ZN9SemaphoreC1Ej
 564              		.set	_ZN9SemaphoreC1Ej,_ZN9SemaphoreC2Ej
 565              		.weak	_ZTV6Thread
 566              		.section	.data.rel.ro.local._ZTV6Thread,"awG",@progbits,_ZTV6Thread,comdat
 567              		.align	3
 570              	_ZTV6Thread:
 571 0000 00000000 		.dword	0
 571      00000000 
 572 0008 00000000 		.dword	0
 572      00000000 
 573 0010 00000000 		.dword	_ZN6ThreadD1Ev
 573      00000000 
 574 0018 00000000 		.dword	_ZN6ThreadD0Ev
 574      00000000 
 575 0020 00000000 		.dword	_ZN6Thread3runEv
 575      00000000 
 576              		.weak	_ZTV9Semaphore
 577              		.section	.data.rel.ro.local._ZTV9Semaphore,"awG",@progbits,_ZTV9Semaphore,comdat
 578              		.align	3
 581              	_ZTV9Semaphore:
 582 0000 00000000 		.dword	0
 582      00000000 
 583 0008 00000000 		.dword	0
 583      00000000 
 584 0010 00000000 		.dword	_ZN9SemaphoreD1Ev
 584      00000000 
 585 0018 00000000 		.dword	_ZN9SemaphoreD0Ev
 585      00000000 
 586              		.text
 587              	.Letext0:
 588              		.file 3 "src/../h/../lib/hw.h"
 589              		.file 4 "src/../h/syscall_c.hpp"
 590              		.file 5 "src/../h/_thread.hpp"
 591              		.file 6 "src/../lib/console.h"
 3278              		.align	3
 3281              	DW.ref.__gxx_personality_v0:
 3282 0000 00000000 		.dword	__gxx_personality_v0
 3282      00000000 
 3283              		.ident	"GCC: (Ubuntu 9.4.0-1ubuntu1~20.04) 9.4.0"
 3284              		.section	.note.GNU-stack,"",@progbits
GAS LISTING /tmp/ccCROOqm.s 			page 14

